---
triple:          'arm64-apple-darwin'
binary-path:     '/Volumes/APFS/xcode/Build/Products/Release-iphoneos/AgoraFaceUnityExtension.framework/AgoraFaceUnityExtension'
relocations:
  - { offsetInCU: 0x33, offset: 0x33, size: 0x8, addend: 0x0, symName: _AgoraFaceUnityExtensionVersionString, symObjAddr: 0x0, symBinAddr: 0x3B6C0, symSize: 0x0 }
  - { offsetInCU: 0x67, offset: 0x67, size: 0x8, addend: 0x0, symName: _AgoraFaceUnityExtensionVersionNumber, symObjAddr: 0x48, symBinAddr: 0x3B708, symSize: 0x0 }
  - { offsetInCU: 0x26, offset: 0xA2, size: 0x8, addend: 0x0, symName: __ZN5agora3rtc9extension17ExtensionProviderC2Ev, symObjAddr: 0x0, symBinAddr: 0x8000, symSize: 0x1C }
  - { offsetInCU: 0x5C, offset: 0xD8, size: 0x8, addend: 0x0, symName: __ZNSt3__1L19piecewise_constructE, symObjAddr: 0x1C77, symBinAddr: 0x3B777, symSize: 0x0 }
  - { offsetInCU: 0x71CF, offset: 0x724B, size: 0x8, addend: 0x0, symName: __ZNSt3__120__throw_length_errorB7v160006EPKc, symObjAddr: 0x6D0, symBinAddr: 0x86D0, symSize: 0x50 }
  - { offsetInCU: 0x7751, offset: 0x77CD, size: 0x8, addend: 0x0, symName: __ZNSt3__112__destroy_atB7v160006INS_4pairIKNS_12basic_stringIcNS_11char_traitsIcEENS_9allocatorIcEEEEN5agora3rtc9extension16ExtensionContextEEELi0EEEvPT_, symObjAddr: 0x8D8, symBinAddr: 0x88D8, symSize: 0x54 }
  - { offsetInCU: 0x7BC5, offset: 0x7C41, size: 0x8, addend: 0x0, symName: __ZNSt3__1ssB7v160006IcNS_11char_traitsIcEENS_9allocatorIcEEEEDaRKNS_12basic_stringIT_T0_T1_EESC_, symObjAddr: 0xAE0, symBinAddr: 0x8AE0, symSize: 0x64 }
  - { offsetInCU: 0x7D3F, offset: 0x7DBB, size: 0x8, addend: 0x0, symName: __ZNSt3__127__tree_balance_after_insertB7v160006IPNS_16__tree_node_baseIPvEEEEvT_S5_, symObjAddr: 0xB8C, symBinAddr: 0x8B8C, symSize: 0x198 }
  - { offsetInCU: 0xFAAA, offset: 0xFB26, size: 0x8, addend: 0x0, symName: __ZN5agora3rtc9extension17ExtensionProviderC2Ev, symObjAddr: 0x0, symBinAddr: 0x8000, symSize: 0x1C }
  - { offsetInCU: 0xFBF3, offset: 0xFC6F, size: 0x8, addend: 0x0, symName: __ZN5agora3rtc9extension17ExtensionProviderD2Ev, symObjAddr: 0x1C, symBinAddr: 0x801C, symSize: 0x34 }
  - { offsetInCU: 0xFCBE, offset: 0xFD3A, size: 0x8, addend: 0x0, symName: __ZNSt3__16__treeINS_12__value_typeINS_12basic_stringIcNS_11char_traitsIcEENS_9allocatorIcEEEEN5agora3rtc9extension16ExtensionContextEEENS_19__map_value_compareIS7_SC_NS_4lessIS7_EELb1EEENS5_ISC_EEE7destroyEPNS_11__tree_nodeISC_PvEE, symObjAddr: 0x890, symBinAddr: 0x8890, symSize: 0x48 }
  - { offsetInCU: 0xFE44, offset: 0xFEC0, size: 0x8, addend: 0x0, symName: __ZN5agora3rtc9extension17ExtensionProviderD1Ev, symObjAddr: 0x50, symBinAddr: 0x8050, symSize: 0x4 }
  - { offsetInCU: 0xFE6D, offset: 0xFEE9, size: 0x8, addend: 0x0, symName: __ZN5agora3rtc9extension17ExtensionProviderD0Ev, symObjAddr: 0x54, symBinAddr: 0x8054, symSize: 0x4 }
  - { offsetInCU: 0xFF3A, offset: 0xFFB6, size: 0x8, addend: 0x0, symName: __ZN5agora3rtc9extension17ExtensionProvider19setExtensionControlEPNS0_17IExtensionControlE, symObjAddr: 0x58, symBinAddr: 0x8058, symSize: 0x54 }
  - { offsetInCU: 0x10474, offset: 0x104F0, size: 0x8, addend: 0x0, symName: __ZN5agora3rtc9extension17ExtensionProvider19enumerateExtensionsEPNS0_18IExtensionProvider17ExtensionMetaInfoERi, symObjAddr: 0xAC, symBinAddr: 0x80AC, symSize: 0x230 }
  - { offsetInCU: 0x11147, offset: 0x111C3, size: 0x8, addend: 0x0, symName: __ZNSt3__112basic_stringIcNS_11char_traitsIcEENS_9allocatorIcEEE17__assign_externalEPKcm, symObjAddr: 0x744, symBinAddr: 0x8744, symSize: 0xB0 }
  - { offsetInCU: 0x113C1, offset: 0x1143D, size: 0x8, addend: 0x0, symName: __ZNSt3__112basic_stringIcNS_11char_traitsIcEENS_9allocatorIcEEEC2B7v160006IDnEEPKc, symObjAddr: 0x7F4, symBinAddr: 0x87F4, symSize: 0x9C }
  - { offsetInCU: 0x11721, offset: 0x1179D, size: 0x8, addend: 0x0, symName: __ZNSt3__16__treeINS_12__value_typeINS_12basic_stringIcNS_11char_traitsIcEENS_9allocatorIcEEEEN5agora3rtc9extension16ExtensionContextEEENS_19__map_value_compareIS7_SC_NS_4lessIS7_EELb1EEENS5_ISC_EEE7destroyEPNS_11__tree_nodeISC_PvEE, symObjAddr: 0x890, symBinAddr: 0x8890, symSize: 0x48 }
  - { offsetInCU: 0x1174F, offset: 0x117CB, size: 0x8, addend: 0x0, symName: __ZNSt3__16__treeINS_12__value_typeINS_12basic_stringIcNS_11char_traitsIcEENS_9allocatorIcEEEEN5agora3rtc9extension16ExtensionContextEEENS_19__map_value_compareIS7_SC_NS_4lessIS7_EELb1EEENS5_ISC_EEE25__emplace_unique_key_argsIS7_JRKNS_21piecewise_construct_tENS_5tupleIJOS7_EEENSN_IJEEEEEENS_4pairINS_15__tree_iteratorISC_PNS_11__tree_nodeISC_PvEElEEbEERKT_DpOT0_, symObjAddr: 0x92C, symBinAddr: 0x892C, symSize: 0xD0 }
  - { offsetInCU: 0x11C31, offset: 0x11CAD, size: 0x8, addend: 0x0, symName: __ZN5agora3rtc9extension16ExtensionContextD1Ev, symObjAddr: 0x2DC, symBinAddr: 0x82DC, symSize: 0x40 }
  - { offsetInCU: 0x11FF0, offset: 0x1206C, size: 0x8, addend: 0x0, symName: __ZN5agora3rtc9extension17ExtensionProvider17createAudioFilterEPKc, symObjAddr: 0x31C, symBinAddr: 0x831C, symSize: 0x134 }
  - { offsetInCU: 0x12475, offset: 0x124F1, size: 0x8, addend: 0x0, symName: __ZN5agora3rtc9extension17ExtensionProvider17createVideoFilterEPKc, symObjAddr: 0x450, symBinAddr: 0x8450, symSize: 0x134 }
  - { offsetInCU: 0x128FC, offset: 0x12978, size: 0x8, addend: 0x0, symName: __ZN5agora3rtc9extension17ExtensionProvider15createVideoSinkEPKc, symObjAddr: 0x584, symBinAddr: 0x8584, symSize: 0x134 }
  - { offsetInCU: 0x12CA4, offset: 0x12D20, size: 0x8, addend: 0x0, symName: __ZN5agora3rtc9extension17ExtensionProvider11setPropertyEPKcS4_, symObjAddr: 0x6B8, symBinAddr: 0x86B8, symSize: 0x4 }
  - { offsetInCU: 0x12CDF, offset: 0x12D5B, size: 0x8, addend: 0x0, symName: __ZNKSt3__112basic_stringIcNS_11char_traitsIcEENS_9allocatorIcEEE20__throw_length_errorB7v160006Ev, symObjAddr: 0x6BC, symBinAddr: 0x86BC, symSize: 0x14 }
  - { offsetInCU: 0x12D09, offset: 0x12D85, size: 0x8, addend: 0x0, symName: __ZNSt3__120__throw_length_errorB7v160006EPKc, symObjAddr: 0x6D0, symBinAddr: 0x86D0, symSize: 0x50 }
  - { offsetInCU: 0x12D14, offset: 0x12D90, size: 0x8, addend: 0x0, symName: __ZNSt12length_errorC1B7v160006EPKc, symObjAddr: 0x720, symBinAddr: 0x8720, symSize: 0x24 }
  - { offsetInCU: 0x13589, offset: 0x13605, size: 0x8, addend: 0x0, symName: __ZNSt3__16__treeINS_12__value_typeINS_12basic_stringIcNS_11char_traitsIcEENS_9allocatorIcEEEEN5agora3rtc9extension16ExtensionContextEEENS_19__map_value_compareIS7_SC_NS_4lessIS7_EELb1EEENS5_ISC_EEE12__find_equalIS7_EERPNS_16__tree_node_baseIPvEERPNS_15__tree_end_nodeISN_EERKT_, symObjAddr: 0x9FC, symBinAddr: 0x89FC, symSize: 0x90 }
  - { offsetInCU: 0x13700, offset: 0x1377C, size: 0x8, addend: 0x0, symName: __ZNSt3__16__treeINS_12__value_typeINS_12basic_stringIcNS_11char_traitsIcEENS_9allocatorIcEEEEN5agora3rtc9extension16ExtensionContextEEENS_19__map_value_compareIS7_SC_NS_4lessIS7_EELb1EEENS5_ISC_EEE16__insert_node_atEPNS_15__tree_end_nodeIPNS_16__tree_node_baseIPvEEEERSN_SN_, symObjAddr: 0xA8C, symBinAddr: 0x8A8C, symSize: 0x54 }
  - { offsetInCU: 0x13767, offset: 0x137E3, size: 0x8, addend: 0x0, symName: __ZNSt3__110unique_ptrINS_11__tree_nodeINS_12__value_typeINS_12basic_stringIcNS_11char_traitsIcEENS_9allocatorIcEEEEN5agora3rtc9extension16ExtensionContextEEEPvEENS_22__tree_node_destructorINS6_ISF_EEEEE5resetB7v160006EPSF_, symObjAddr: 0xD24, symBinAddr: 0x8D24, symSize: 0x44 }
  - { offsetInCU: 0x139BC, offset: 0x13A38, size: 0x8, addend: 0x0, symName: __ZNKSt3__117basic_string_viewIcNS_11char_traitsIcEEE7compareES3_, symObjAddr: 0xB44, symBinAddr: 0x8B44, symSize: 0x48 }
  - { offsetInCU: 0x13B68, offset: 0x13BE4, size: 0x8, addend: 0x0, symName: __ZN5agora16RefCountedObjectINS_3rtc9extension20ExtensionAudioFilterEED1Ev, symObjAddr: 0xD68, symBinAddr: 0x8D68, symSize: 0x4 }
  - { offsetInCU: 0x13B8A, offset: 0x13C06, size: 0x8, addend: 0x0, symName: __ZN5agora16RefCountedObjectINS_3rtc9extension20ExtensionAudioFilterEED1Ev, symObjAddr: 0xD68, symBinAddr: 0x8D68, symSize: 0x4 }
  - { offsetInCU: 0x13BBE, offset: 0x13C3A, size: 0x8, addend: 0x0, symName: __ZN5agora16RefCountedObjectINS_3rtc9extension20ExtensionAudioFilterEED0Ev, symObjAddr: 0xD6C, symBinAddr: 0x8D6C, symSize: 0x14 }
  - { offsetInCU: 0x13C16, offset: 0x13C92, size: 0x8, addend: 0x0, symName: __ZN5agora3rtc9extension10IExtensionINS_5media4base13AudioPcmFrameEE11SetDelegateEPNS1_17ExtensionDelegateIS5_EE, symObjAddr: 0xD80, symBinAddr: 0x8D80, symSize: 0x8 }
  - { offsetInCU: 0x13C61, offset: 0x13CDD, size: 0x8, addend: 0x0, symName: __ZNSt3__110shared_ptrIN5agora3rtc9extension17ExtensionDelegateINS1_5media4base13AudioPcmFrameEEEE5resetB7v160006IS8_vEEvPT_, symObjAddr: 0xEA0, symBinAddr: 0x8EA0, symSize: 0x70 }
  - { offsetInCU: 0x13DEF, offset: 0x13E6B, size: 0x8, addend: 0x0, symName: __ZNK5agora3rtc9extension10IExtensionINS_5media4base13AudioPcmFrameEE11GetDelegateEv, symObjAddr: 0xD88, symBinAddr: 0x8D88, symSize: 0x8 }
  - { offsetInCU: 0x13E18, offset: 0x13E94, size: 0x8, addend: 0x0, symName: __ZNK5agora3rtc9extension10IExtensionINS_5media4base13AudioPcmFrameEE11GetDelegateEv, symObjAddr: 0xD88, symBinAddr: 0x8D88, symSize: 0x8 }
  - { offsetInCU: 0x13E6C, offset: 0x13EE8, size: 0x8, addend: 0x0, symName: __ZNK5agora16RefCountedObjectINS_3rtc9extension20ExtensionAudioFilterEE6AddRefEv, symObjAddr: 0xD90, symBinAddr: 0x8D90, symSize: 0x18 }
  - { offsetInCU: 0x13EED, offset: 0x13F69, size: 0x8, addend: 0x0, symName: __ZNK5agora16RefCountedObjectINS_3rtc9extension20ExtensionAudioFilterEE7ReleaseEv, symObjAddr: 0xDA8, symBinAddr: 0x8DA8, symSize: 0x4C }
  - { offsetInCU: 0x13F84, offset: 0x14000, size: 0x8, addend: 0x0, symName: __ZNK5agora16RefCountedObjectINS_3rtc9extension20ExtensionAudioFilterEE9HasOneRefEv, symObjAddr: 0xDF4, symBinAddr: 0x8DF4, symSize: 0x14 }
  - { offsetInCU: 0x13FFB, offset: 0x14077, size: 0x8, addend: 0x0, symName: __ZThn48_NK5agora16RefCountedObjectINS_3rtc9extension20ExtensionAudioFilterEE6AddRefEv, symObjAddr: 0xE08, symBinAddr: 0x8E08, symSize: 0x18 }
  - { offsetInCU: 0x14015, offset: 0x14091, size: 0x8, addend: 0x0, symName: __ZThn48_NK5agora16RefCountedObjectINS_3rtc9extension20ExtensionAudioFilterEE6AddRefEv, symObjAddr: 0xE08, symBinAddr: 0x8E08, symSize: 0x18 }
  - { offsetInCU: 0x1408E, offset: 0x1410A, size: 0x8, addend: 0x0, symName: __ZThn48_NK5agora16RefCountedObjectINS_3rtc9extension20ExtensionAudioFilterEE7ReleaseEv, symObjAddr: 0xE20, symBinAddr: 0x8E20, symSize: 0x44 }
  - { offsetInCU: 0x14117, offset: 0x14193, size: 0x8, addend: 0x0, symName: __ZThn48_NK5agora16RefCountedObjectINS_3rtc9extension20ExtensionAudioFilterEE9HasOneRefEv, symObjAddr: 0xE64, symBinAddr: 0x8E64, symSize: 0x14 }
  - { offsetInCU: 0x14131, offset: 0x141AD, size: 0x8, addend: 0x0, symName: __ZThn48_NK5agora16RefCountedObjectINS_3rtc9extension20ExtensionAudioFilterEE9HasOneRefEv, symObjAddr: 0xE64, symBinAddr: 0x8E64, symSize: 0x14 }
  - { offsetInCU: 0x14186, offset: 0x14202, size: 0x8, addend: 0x0, symName: __ZThn48_N5agora16RefCountedObjectINS_3rtc9extension20ExtensionAudioFilterEED1Ev, symObjAddr: 0xE78, symBinAddr: 0x8E78, symSize: 0x8 }
  - { offsetInCU: 0x141EF, offset: 0x1426B, size: 0x8, addend: 0x0, symName: __ZThn48_N5agora16RefCountedObjectINS_3rtc9extension20ExtensionAudioFilterEED0Ev, symObjAddr: 0xE80, symBinAddr: 0x8E80, symSize: 0x18 }
  - { offsetInCU: 0x1425A, offset: 0x142D6, size: 0x8, addend: 0x0, symName: __ZN5agora3rtc12IAudioFilter26getPreferredChannelNumbersEv, symObjAddr: 0xE98, symBinAddr: 0x8E98, symSize: 0x8 }
  - { offsetInCU: 0x14349, offset: 0x143C5, size: 0x8, addend: 0x0, symName: __ZNSt3__110shared_ptrIN5agora3rtc9extension17ExtensionDelegateINS1_5media4base13AudioPcmFrameEEEEC2IS8_vEEPT_, symObjAddr: 0xF10, symBinAddr: 0x8F10, symSize: 0x68 }
  - { offsetInCU: 0x14725, offset: 0x147A1, size: 0x8, addend: 0x0, symName: __ZNSt3__120__shared_ptr_pointerIPN5agora3rtc9extension17ExtensionDelegateINS1_5media4base13AudioPcmFrameEEENS_10shared_ptrIS8_E27__shared_ptr_default_deleteIS8_S8_EENS_9allocatorIS8_EEED1Ev, symObjAddr: 0xF78, symBinAddr: 0x8F78, symSize: 0x4 }
  - { offsetInCU: 0x14747, offset: 0x147C3, size: 0x8, addend: 0x0, symName: __ZNSt3__120__shared_ptr_pointerIPN5agora3rtc9extension17ExtensionDelegateINS1_5media4base13AudioPcmFrameEEENS_10shared_ptrIS8_E27__shared_ptr_default_deleteIS8_S8_EENS_9allocatorIS8_EEED1Ev, symObjAddr: 0xF78, symBinAddr: 0x8F78, symSize: 0x4 }
  - { offsetInCU: 0x1477D, offset: 0x147F9, size: 0x8, addend: 0x0, symName: __ZNSt3__120__shared_ptr_pointerIPN5agora3rtc9extension17ExtensionDelegateINS1_5media4base13AudioPcmFrameEEENS_10shared_ptrIS8_E27__shared_ptr_default_deleteIS8_S8_EENS_9allocatorIS8_EEED0Ev, symObjAddr: 0xF7C, symBinAddr: 0x8F7C, symSize: 0x14 }
  - { offsetInCU: 0x147E0, offset: 0x1485C, size: 0x8, addend: 0x0, symName: __ZNSt3__120__shared_ptr_pointerIPN5agora3rtc9extension17ExtensionDelegateINS1_5media4base13AudioPcmFrameEEENS_10shared_ptrIS8_E27__shared_ptr_default_deleteIS8_S8_EENS_9allocatorIS8_EEE16__on_zero_sharedEv, symObjAddr: 0xF90, symBinAddr: 0x8F90, symSize: 0x18 }
  - { offsetInCU: 0x14830, offset: 0x148AC, size: 0x8, addend: 0x0, symName: __ZNKSt3__120__shared_ptr_pointerIPN5agora3rtc9extension17ExtensionDelegateINS1_5media4base13AudioPcmFrameEEENS_10shared_ptrIS8_E27__shared_ptr_default_deleteIS8_S8_EENS_9allocatorIS8_EEE13__get_deleterERKSt9type_info, symObjAddr: 0xFA8, symBinAddr: 0x8FA8, symSize: 0x3C }
  - { offsetInCU: 0x1487C, offset: 0x148F8, size: 0x8, addend: 0x0, symName: __ZNKSt9type_infoeqB7v160006ERKS_, symObjAddr: 0xFE8, symBinAddr: 0x8FE8, symSize: 0x48 }
  - { offsetInCU: 0x14940, offset: 0x149BC, size: 0x8, addend: 0x0, symName: __ZNSt3__120__shared_ptr_pointerIPN5agora3rtc9extension17ExtensionDelegateINS1_5media4base13AudioPcmFrameEEENS_10shared_ptrIS8_E27__shared_ptr_default_deleteIS8_S8_EENS_9allocatorIS8_EEE21__on_zero_shared_weakEv, symObjAddr: 0xFE4, symBinAddr: 0x8FE4, symSize: 0x4 }
  - { offsetInCU: 0x14974, offset: 0x149F0, size: 0x8, addend: 0x0, symName: __ZNSt3__120__shared_ptr_pointerIPN5agora3rtc9extension17ExtensionDelegateINS1_5media4base13AudioPcmFrameEEENS_10shared_ptrIS8_E27__shared_ptr_default_deleteIS8_S8_EENS_9allocatorIS8_EEE21__on_zero_shared_weakEv, symObjAddr: 0xFE4, symBinAddr: 0x8FE4, symSize: 0x4 }
  - { offsetInCU: 0x14996, offset: 0x14A12, size: 0x8, addend: 0x0, symName: __ZNSt3__120__shared_ptr_pointerIPN5agora3rtc9extension17ExtensionDelegateINS1_5media4base13AudioPcmFrameEEENS_10shared_ptrIS8_E27__shared_ptr_default_deleteIS8_S8_EENS_9allocatorIS8_EEE21__on_zero_shared_weakEv, symObjAddr: 0xFE4, symBinAddr: 0x8FE4, symSize: 0x4 }
  - { offsetInCU: 0x149C1, offset: 0x14A3D, size: 0x8, addend: 0x0, symName: __ZNSt3__120__shared_ptr_pointerIPN5agora3rtc9extension17ExtensionDelegateINS1_5media4base13AudioPcmFrameEEENS_10shared_ptrIS8_E27__shared_ptr_default_deleteIS8_S8_EENS_9allocatorIS8_EEE21__on_zero_shared_weakEv, symObjAddr: 0xFE4, symBinAddr: 0x8FE4, symSize: 0x4 }
  - { offsetInCU: 0x149E7, offset: 0x14A63, size: 0x8, addend: 0x0, symName: __ZNSt3__120__shared_ptr_pointerIPN5agora3rtc9extension17ExtensionDelegateINS1_5media4base13AudioPcmFrameEEENS_10shared_ptrIS8_E27__shared_ptr_default_deleteIS8_S8_EENS_9allocatorIS8_EEE21__on_zero_shared_weakEv, symObjAddr: 0xFE4, symBinAddr: 0x8FE4, symSize: 0x4 }
  - { offsetInCU: 0x14A5D, offset: 0x14AD9, size: 0x8, addend: 0x0, symName: __ZN5agora16RefCountedObjectINS_3rtc9extension20ExtensionVideoFilterEED1Ev, symObjAddr: 0x1030, symBinAddr: 0x9030, symSize: 0x4 }
  - { offsetInCU: 0x14A7F, offset: 0x14AFB, size: 0x8, addend: 0x0, symName: __ZN5agora16RefCountedObjectINS_3rtc9extension20ExtensionVideoFilterEED1Ev, symObjAddr: 0x1030, symBinAddr: 0x9030, symSize: 0x4 }
  - { offsetInCU: 0x14AB3, offset: 0x14B2F, size: 0x8, addend: 0x0, symName: __ZN5agora16RefCountedObjectINS_3rtc9extension20ExtensionVideoFilterEED0Ev, symObjAddr: 0x1034, symBinAddr: 0x9034, symSize: 0x14 }
  - { offsetInCU: 0x14B37, offset: 0x14BB3, size: 0x8, addend: 0x0, symName: __ZNK5agora3rtc9extension10IExtensionINS0_14VideoFrameDataEE7getNameEv, symObjAddr: 0x1048, symBinAddr: 0x9048, symSize: 0x1C }
  - { offsetInCU: 0x14BDC, offset: 0x14C58, size: 0x8, addend: 0x0, symName: __ZN5agora3rtc9extension10IExtensionINS0_14VideoFrameDataEE11SetDelegateEPNS1_17ExtensionDelegateIS3_EE, symObjAddr: 0x1064, symBinAddr: 0x9064, symSize: 0x8 }
  - { offsetInCU: 0x14C27, offset: 0x14CA3, size: 0x8, addend: 0x0, symName: __ZNSt3__110shared_ptrIN5agora3rtc9extension17ExtensionDelegateINS2_14VideoFrameDataEEEE5resetB7v160006IS6_vEEvPT_, symObjAddr: 0x1194, symBinAddr: 0x9194, symSize: 0x70 }
  - { offsetInCU: 0x14DB5, offset: 0x14E31, size: 0x8, addend: 0x0, symName: __ZNK5agora3rtc9extension10IExtensionINS0_14VideoFrameDataEE11GetDelegateEv, symObjAddr: 0x106C, symBinAddr: 0x906C, symSize: 0x8 }
  - { offsetInCU: 0x14DDE, offset: 0x14E5A, size: 0x8, addend: 0x0, symName: __ZNK5agora3rtc9extension10IExtensionINS0_14VideoFrameDataEE11GetDelegateEv, symObjAddr: 0x106C, symBinAddr: 0x906C, symSize: 0x8 }
  - { offsetInCU: 0x14DFA, offset: 0x14E76, size: 0x8, addend: 0x0, symName: __ZNK5agora16RefCountedObjectINS_3rtc9extension20ExtensionVideoFilterEE6AddRefEv, symObjAddr: 0x1074, symBinAddr: 0x9074, symSize: 0x18 }
  - { offsetInCU: 0x14E52, offset: 0x14ECE, size: 0x8, addend: 0x0, symName: __ZNK5agora16RefCountedObjectINS_3rtc9extension20ExtensionVideoFilterEE7ReleaseEv, symObjAddr: 0x108C, symBinAddr: 0x908C, symSize: 0x4C }
  - { offsetInCU: 0x14EBB, offset: 0x14F37, size: 0x8, addend: 0x0, symName: __ZNK5agora16RefCountedObjectINS_3rtc9extension20ExtensionVideoFilterEE9HasOneRefEv, symObjAddr: 0x10D8, symBinAddr: 0x90D8, symSize: 0x14 }
  - { offsetInCU: 0x14F32, offset: 0x14FAE, size: 0x8, addend: 0x0, symName: __ZThn48_NK5agora16RefCountedObjectINS_3rtc9extension20ExtensionVideoFilterEE6AddRefEv, symObjAddr: 0x10EC, symBinAddr: 0x90EC, symSize: 0x18 }
  - { offsetInCU: 0x14F4C, offset: 0x14FC8, size: 0x8, addend: 0x0, symName: __ZThn48_NK5agora16RefCountedObjectINS_3rtc9extension20ExtensionVideoFilterEE6AddRefEv, symObjAddr: 0x10EC, symBinAddr: 0x90EC, symSize: 0x18 }
  - { offsetInCU: 0x14FC0, offset: 0x1503C, size: 0x8, addend: 0x0, symName: __ZThn48_NK5agora16RefCountedObjectINS_3rtc9extension20ExtensionVideoFilterEE7ReleaseEv, symObjAddr: 0x1104, symBinAddr: 0x9104, symSize: 0x44 }
  - { offsetInCU: 0x15049, offset: 0x150C5, size: 0x8, addend: 0x0, symName: __ZThn48_NK5agora16RefCountedObjectINS_3rtc9extension20ExtensionVideoFilterEE9HasOneRefEv, symObjAddr: 0x1148, symBinAddr: 0x9148, symSize: 0x14 }
  - { offsetInCU: 0x15063, offset: 0x150DF, size: 0x8, addend: 0x0, symName: __ZThn48_NK5agora16RefCountedObjectINS_3rtc9extension20ExtensionVideoFilterEE9HasOneRefEv, symObjAddr: 0x1148, symBinAddr: 0x9148, symSize: 0x14 }
  - { offsetInCU: 0x150B8, offset: 0x15134, size: 0x8, addend: 0x0, symName: __ZThn48_N5agora16RefCountedObjectINS_3rtc9extension20ExtensionVideoFilterEED1Ev, symObjAddr: 0x115C, symBinAddr: 0x915C, symSize: 0x8 }
  - { offsetInCU: 0x15121, offset: 0x1519D, size: 0x8, addend: 0x0, symName: __ZThn48_N5agora16RefCountedObjectINS_3rtc9extension20ExtensionVideoFilterEED0Ev, symObjAddr: 0x1164, symBinAddr: 0x9164, symSize: 0x18 }
  - { offsetInCU: 0x1518C, offset: 0x15208, size: 0x8, addend: 0x0, symName: __ZN5agora3rtc21IExtensionVideoFilter15adaptVideoFrameERKNS_5media4base10VideoFrameERS4_, symObjAddr: 0x117C, symBinAddr: 0x917C, symSize: 0x8 }
  - { offsetInCU: 0x151CF, offset: 0x1524B, size: 0x8, addend: 0x0, symName: __ZN5agora3rtc12IVideoFilter10isExternalEv, symObjAddr: 0x1184, symBinAddr: 0x9184, symSize: 0x8 }
  - { offsetInCU: 0x151F6, offset: 0x15272, size: 0x8, addend: 0x0, symName: __ZN5agora3rtc21IExtensionVideoFilter17isExtensionFilterEv, symObjAddr: 0x118C, symBinAddr: 0x918C, symSize: 0x8 }
  - { offsetInCU: 0x152AE, offset: 0x1532A, size: 0x8, addend: 0x0, symName: __ZNSt3__110shared_ptrIN5agora3rtc9extension17ExtensionDelegateINS2_14VideoFrameDataEEEEC2IS6_vEEPT_, symObjAddr: 0x1204, symBinAddr: 0x9204, symSize: 0x68 }
  - { offsetInCU: 0x15665, offset: 0x156E1, size: 0x8, addend: 0x0, symName: __ZNSt3__120__shared_ptr_pointerIPN5agora3rtc9extension17ExtensionDelegateINS2_14VideoFrameDataEEENS_10shared_ptrIS6_E27__shared_ptr_default_deleteIS6_S6_EENS_9allocatorIS6_EEED1Ev, symObjAddr: 0x126C, symBinAddr: 0x926C, symSize: 0x4 }
  - { offsetInCU: 0x15687, offset: 0x15703, size: 0x8, addend: 0x0, symName: __ZNSt3__120__shared_ptr_pointerIPN5agora3rtc9extension17ExtensionDelegateINS2_14VideoFrameDataEEENS_10shared_ptrIS6_E27__shared_ptr_default_deleteIS6_S6_EENS_9allocatorIS6_EEED1Ev, symObjAddr: 0x126C, symBinAddr: 0x926C, symSize: 0x4 }
  - { offsetInCU: 0x156BD, offset: 0x15739, size: 0x8, addend: 0x0, symName: __ZNSt3__120__shared_ptr_pointerIPN5agora3rtc9extension17ExtensionDelegateINS2_14VideoFrameDataEEENS_10shared_ptrIS6_E27__shared_ptr_default_deleteIS6_S6_EENS_9allocatorIS6_EEED0Ev, symObjAddr: 0x1270, symBinAddr: 0x9270, symSize: 0x14 }
  - { offsetInCU: 0x15720, offset: 0x1579C, size: 0x8, addend: 0x0, symName: __ZNSt3__120__shared_ptr_pointerIPN5agora3rtc9extension17ExtensionDelegateINS2_14VideoFrameDataEEENS_10shared_ptrIS6_E27__shared_ptr_default_deleteIS6_S6_EENS_9allocatorIS6_EEE16__on_zero_sharedEv, symObjAddr: 0x1284, symBinAddr: 0x9284, symSize: 0x18 }
  - { offsetInCU: 0x15770, offset: 0x157EC, size: 0x8, addend: 0x0, symName: __ZNKSt3__120__shared_ptr_pointerIPN5agora3rtc9extension17ExtensionDelegateINS2_14VideoFrameDataEEENS_10shared_ptrIS6_E27__shared_ptr_default_deleteIS6_S6_EENS_9allocatorIS6_EEE13__get_deleterERKSt9type_info, symObjAddr: 0x129C, symBinAddr: 0x929C, symSize: 0x3C }
  - { offsetInCU: 0x157F7, offset: 0x15873, size: 0x8, addend: 0x0, symName: __ZNSt3__120__shared_ptr_pointerIPN5agora3rtc9extension17ExtensionDelegateINS2_14VideoFrameDataEEENS_10shared_ptrIS6_E27__shared_ptr_default_deleteIS6_S6_EENS_9allocatorIS6_EEE21__on_zero_shared_weakEv, symObjAddr: 0x12D8, symBinAddr: 0x92D8, symSize: 0x4 }
  - { offsetInCU: 0x1582B, offset: 0x158A7, size: 0x8, addend: 0x0, symName: __ZNSt3__120__shared_ptr_pointerIPN5agora3rtc9extension17ExtensionDelegateINS2_14VideoFrameDataEEENS_10shared_ptrIS6_E27__shared_ptr_default_deleteIS6_S6_EENS_9allocatorIS6_EEE21__on_zero_shared_weakEv, symObjAddr: 0x12D8, symBinAddr: 0x92D8, symSize: 0x4 }
  - { offsetInCU: 0x1584D, offset: 0x158C9, size: 0x8, addend: 0x0, symName: __ZNSt3__120__shared_ptr_pointerIPN5agora3rtc9extension17ExtensionDelegateINS2_14VideoFrameDataEEENS_10shared_ptrIS6_E27__shared_ptr_default_deleteIS6_S6_EENS_9allocatorIS6_EEE21__on_zero_shared_weakEv, symObjAddr: 0x12D8, symBinAddr: 0x92D8, symSize: 0x4 }
  - { offsetInCU: 0x15878, offset: 0x158F4, size: 0x8, addend: 0x0, symName: __ZNSt3__120__shared_ptr_pointerIPN5agora3rtc9extension17ExtensionDelegateINS2_14VideoFrameDataEEENS_10shared_ptrIS6_E27__shared_ptr_default_deleteIS6_S6_EENS_9allocatorIS6_EEE21__on_zero_shared_weakEv, symObjAddr: 0x12D8, symBinAddr: 0x92D8, symSize: 0x4 }
  - { offsetInCU: 0x1589E, offset: 0x1591A, size: 0x8, addend: 0x0, symName: __ZNSt3__120__shared_ptr_pointerIPN5agora3rtc9extension17ExtensionDelegateINS2_14VideoFrameDataEEENS_10shared_ptrIS6_E27__shared_ptr_default_deleteIS6_S6_EENS_9allocatorIS6_EEE21__on_zero_shared_weakEv, symObjAddr: 0x12D8, symBinAddr: 0x92D8, symSize: 0x4 }
  - { offsetInCU: 0x158E1, offset: 0x1595D, size: 0x8, addend: 0x0, symName: __ZN5agora16RefCountedObjectINS_3rtc9extension18ExtensionVideoSinkEED1Ev, symObjAddr: 0x12DC, symBinAddr: 0x92DC, symSize: 0x4 }
  - { offsetInCU: 0x15903, offset: 0x1597F, size: 0x8, addend: 0x0, symName: __ZN5agora16RefCountedObjectINS_3rtc9extension18ExtensionVideoSinkEED1Ev, symObjAddr: 0x12DC, symBinAddr: 0x92DC, symSize: 0x4 }
  - { offsetInCU: 0x15937, offset: 0x159B3, size: 0x8, addend: 0x0, symName: __ZN5agora16RefCountedObjectINS_3rtc9extension18ExtensionVideoSinkEED0Ev, symObjAddr: 0x12E0, symBinAddr: 0x92E0, symSize: 0x14 }
  - { offsetInCU: 0x1598F, offset: 0x15A0B, size: 0x8, addend: 0x0, symName: __ZNK5agora3rtc9extension10IExtensionINS_5media4base10VideoFrameEE7getNameEv, symObjAddr: 0x12F4, symBinAddr: 0x92F4, symSize: 0x1C }
  - { offsetInCU: 0x15A34, offset: 0x15AB0, size: 0x8, addend: 0x0, symName: __ZN5agora3rtc9extension10IExtensionINS_5media4base10VideoFrameEE11SetDelegateEPNS1_17ExtensionDelegateIS5_EE, symObjAddr: 0x1310, symBinAddr: 0x9310, symSize: 0x8 }
  - { offsetInCU: 0x15A7F, offset: 0x15AFB, size: 0x8, addend: 0x0, symName: __ZNSt3__110shared_ptrIN5agora3rtc9extension17ExtensionDelegateINS1_5media4base10VideoFrameEEEE5resetB7v160006IS8_vEEvPT_, symObjAddr: 0x1440, symBinAddr: 0x9440, symSize: 0x70 }
  - { offsetInCU: 0x15C0D, offset: 0x15C89, size: 0x8, addend: 0x0, symName: __ZNK5agora3rtc9extension10IExtensionINS_5media4base10VideoFrameEE11GetDelegateEv, symObjAddr: 0x1318, symBinAddr: 0x9318, symSize: 0x8 }
  - { offsetInCU: 0x15C36, offset: 0x15CB2, size: 0x8, addend: 0x0, symName: __ZNK5agora3rtc9extension10IExtensionINS_5media4base10VideoFrameEE11GetDelegateEv, symObjAddr: 0x1318, symBinAddr: 0x9318, symSize: 0x8 }
  - { offsetInCU: 0x15C52, offset: 0x15CCE, size: 0x8, addend: 0x0, symName: __ZNK5agora16RefCountedObjectINS_3rtc9extension18ExtensionVideoSinkEE6AddRefEv, symObjAddr: 0x1320, symBinAddr: 0x9320, symSize: 0x18 }
  - { offsetInCU: 0x15CAA, offset: 0x15D26, size: 0x8, addend: 0x0, symName: __ZNK5agora16RefCountedObjectINS_3rtc9extension18ExtensionVideoSinkEE7ReleaseEv, symObjAddr: 0x1338, symBinAddr: 0x9338, symSize: 0x4C }
  - { offsetInCU: 0x15D13, offset: 0x15D8F, size: 0x8, addend: 0x0, symName: __ZNK5agora16RefCountedObjectINS_3rtc9extension18ExtensionVideoSinkEE9HasOneRefEv, symObjAddr: 0x1384, symBinAddr: 0x9384, symSize: 0x14 }
  - { offsetInCU: 0x15D8A, offset: 0x15E06, size: 0x8, addend: 0x0, symName: __ZThn48_NK5agora16RefCountedObjectINS_3rtc9extension18ExtensionVideoSinkEE6AddRefEv, symObjAddr: 0x1398, symBinAddr: 0x9398, symSize: 0x18 }
  - { offsetInCU: 0x15DA4, offset: 0x15E20, size: 0x8, addend: 0x0, symName: __ZThn48_NK5agora16RefCountedObjectINS_3rtc9extension18ExtensionVideoSinkEE6AddRefEv, symObjAddr: 0x1398, symBinAddr: 0x9398, symSize: 0x18 }
  - { offsetInCU: 0x15E18, offset: 0x15E94, size: 0x8, addend: 0x0, symName: __ZThn48_NK5agora16RefCountedObjectINS_3rtc9extension18ExtensionVideoSinkEE7ReleaseEv, symObjAddr: 0x13B0, symBinAddr: 0x93B0, symSize: 0x44 }
  - { offsetInCU: 0x15EA1, offset: 0x15F1D, size: 0x8, addend: 0x0, symName: __ZThn48_NK5agora16RefCountedObjectINS_3rtc9extension18ExtensionVideoSinkEE9HasOneRefEv, symObjAddr: 0x13F4, symBinAddr: 0x93F4, symSize: 0x14 }
  - { offsetInCU: 0x15EBB, offset: 0x15F37, size: 0x8, addend: 0x0, symName: __ZThn48_NK5agora16RefCountedObjectINS_3rtc9extension18ExtensionVideoSinkEE9HasOneRefEv, symObjAddr: 0x13F4, symBinAddr: 0x93F4, symSize: 0x14 }
  - { offsetInCU: 0x15F10, offset: 0x15F8C, size: 0x8, addend: 0x0, symName: __ZThn48_N5agora16RefCountedObjectINS_3rtc9extension18ExtensionVideoSinkEED1Ev, symObjAddr: 0x1408, symBinAddr: 0x9408, symSize: 0x8 }
  - { offsetInCU: 0x15F79, offset: 0x15FF5, size: 0x8, addend: 0x0, symName: __ZThn48_N5agora16RefCountedObjectINS_3rtc9extension18ExtensionVideoSinkEED0Ev, symObjAddr: 0x1410, symBinAddr: 0x9410, symSize: 0x18 }
  - { offsetInCU: 0x15FE4, offset: 0x16060, size: 0x8, addend: 0x0, symName: __ZN5agora3rtc14IVideoSinkBase14isExternalSinkEv, symObjAddr: 0x1428, symBinAddr: 0x9428, symSize: 0x8 }
  - { offsetInCU: 0x1600B, offset: 0x16087, size: 0x8, addend: 0x0, symName: __ZN5agora3rtc14IVideoSinkBase11applyMirrorEv, symObjAddr: 0x1430, symBinAddr: 0x9430, symSize: 0x8 }
  - { offsetInCU: 0x16032, offset: 0x160AE, size: 0x8, addend: 0x0, symName: __ZN5agora3rtc14IVideoSinkBase13applyRotationEv, symObjAddr: 0x1438, symBinAddr: 0x9438, symSize: 0x8 }
  - { offsetInCU: 0x160EA, offset: 0x16166, size: 0x8, addend: 0x0, symName: __ZNSt3__110shared_ptrIN5agora3rtc9extension17ExtensionDelegateINS1_5media4base10VideoFrameEEEEC2IS8_vEEPT_, symObjAddr: 0x14B0, symBinAddr: 0x94B0, symSize: 0x68 }
  - { offsetInCU: 0x164A1, offset: 0x1651D, size: 0x8, addend: 0x0, symName: __ZNSt3__120__shared_ptr_pointerIPN5agora3rtc9extension17ExtensionDelegateINS1_5media4base10VideoFrameEEENS_10shared_ptrIS8_E27__shared_ptr_default_deleteIS8_S8_EENS_9allocatorIS8_EEED1Ev, symObjAddr: 0x1518, symBinAddr: 0x9518, symSize: 0x4 }
  - { offsetInCU: 0x164C3, offset: 0x1653F, size: 0x8, addend: 0x0, symName: __ZNSt3__120__shared_ptr_pointerIPN5agora3rtc9extension17ExtensionDelegateINS1_5media4base10VideoFrameEEENS_10shared_ptrIS8_E27__shared_ptr_default_deleteIS8_S8_EENS_9allocatorIS8_EEED1Ev, symObjAddr: 0x1518, symBinAddr: 0x9518, symSize: 0x4 }
  - { offsetInCU: 0x164F9, offset: 0x16575, size: 0x8, addend: 0x0, symName: __ZNSt3__120__shared_ptr_pointerIPN5agora3rtc9extension17ExtensionDelegateINS1_5media4base10VideoFrameEEENS_10shared_ptrIS8_E27__shared_ptr_default_deleteIS8_S8_EENS_9allocatorIS8_EEED0Ev, symObjAddr: 0x151C, symBinAddr: 0x951C, symSize: 0x14 }
  - { offsetInCU: 0x1655C, offset: 0x165D8, size: 0x8, addend: 0x0, symName: __ZNSt3__120__shared_ptr_pointerIPN5agora3rtc9extension17ExtensionDelegateINS1_5media4base10VideoFrameEEENS_10shared_ptrIS8_E27__shared_ptr_default_deleteIS8_S8_EENS_9allocatorIS8_EEE16__on_zero_sharedEv, symObjAddr: 0x1530, symBinAddr: 0x9530, symSize: 0x18 }
  - { offsetInCU: 0x165AC, offset: 0x16628, size: 0x8, addend: 0x0, symName: __ZNKSt3__120__shared_ptr_pointerIPN5agora3rtc9extension17ExtensionDelegateINS1_5media4base10VideoFrameEEENS_10shared_ptrIS8_E27__shared_ptr_default_deleteIS8_S8_EENS_9allocatorIS8_EEE13__get_deleterERKSt9type_info, symObjAddr: 0x1548, symBinAddr: 0x9548, symSize: 0x3C }
  - { offsetInCU: 0x16633, offset: 0x166AF, size: 0x8, addend: 0x0, symName: __ZNSt3__120__shared_ptr_pointerIPN5agora3rtc9extension17ExtensionDelegateINS1_5media4base10VideoFrameEEENS_10shared_ptrIS8_E27__shared_ptr_default_deleteIS8_S8_EENS_9allocatorIS8_EEE21__on_zero_shared_weakEv, symObjAddr: 0x1584, symBinAddr: 0x9584, symSize: 0x4 }
  - { offsetInCU: 0x16667, offset: 0x166E3, size: 0x8, addend: 0x0, symName: __ZNSt3__120__shared_ptr_pointerIPN5agora3rtc9extension17ExtensionDelegateINS1_5media4base10VideoFrameEEENS_10shared_ptrIS8_E27__shared_ptr_default_deleteIS8_S8_EENS_9allocatorIS8_EEE21__on_zero_shared_weakEv, symObjAddr: 0x1584, symBinAddr: 0x9584, symSize: 0x4 }
  - { offsetInCU: 0x16689, offset: 0x16705, size: 0x8, addend: 0x0, symName: __ZNSt3__120__shared_ptr_pointerIPN5agora3rtc9extension17ExtensionDelegateINS1_5media4base10VideoFrameEEENS_10shared_ptrIS8_E27__shared_ptr_default_deleteIS8_S8_EENS_9allocatorIS8_EEE21__on_zero_shared_weakEv, symObjAddr: 0x1584, symBinAddr: 0x9584, symSize: 0x4 }
  - { offsetInCU: 0x166B4, offset: 0x16730, size: 0x8, addend: 0x0, symName: __ZNSt3__120__shared_ptr_pointerIPN5agora3rtc9extension17ExtensionDelegateINS1_5media4base10VideoFrameEEENS_10shared_ptrIS8_E27__shared_ptr_default_deleteIS8_S8_EENS_9allocatorIS8_EEE21__on_zero_shared_weakEv, symObjAddr: 0x1584, symBinAddr: 0x9584, symSize: 0x4 }
  - { offsetInCU: 0x166DA, offset: 0x16756, size: 0x8, addend: 0x0, symName: __ZNSt3__120__shared_ptr_pointerIPN5agora3rtc9extension17ExtensionDelegateINS1_5media4base10VideoFrameEEENS_10shared_ptrIS8_E27__shared_ptr_default_deleteIS8_S8_EENS_9allocatorIS8_EEE21__on_zero_shared_weakEv, symObjAddr: 0x1584, symBinAddr: 0x9584, symSize: 0x4 }
  - { offsetInCU: 0x26, offset: 0x167E0, size: 0x8, addend: 0x0, symName: __ZN5agora3rtc9extension18ExtensionVideoSinkC2EPKc, symObjAddr: 0x0, symBinAddr: 0x9588, symSize: 0x4C }
  - { offsetInCU: 0x5421, offset: 0x1BBDB, size: 0x8, addend: 0x0, symName: __ZN5agora3rtc9extension18ExtensionVideoSinkC2EPKc, symObjAddr: 0x0, symBinAddr: 0x9588, symSize: 0x4C }
  - { offsetInCU: 0x5714, offset: 0x1BECE, size: 0x8, addend: 0x0, symName: __ZN5agora3rtc9extension18ExtensionVideoSinkD2Ev, symObjAddr: 0x4C, symBinAddr: 0x95D4, symSize: 0x4 }
  - { offsetInCU: 0x5742, offset: 0x1BEFC, size: 0x8, addend: 0x0, symName: __ZN5agora3rtc9extension18ExtensionVideoSinkD2Ev, symObjAddr: 0x4C, symBinAddr: 0x95D4, symSize: 0x4 }
  - { offsetInCU: 0x5755, offset: 0x1BF0F, size: 0x8, addend: 0x0, symName: __ZN5agora3rtc9extension10IExtensionINS_5media4base10VideoFrameEED2Ev, symObjAddr: 0x50, symBinAddr: 0x95D8, symSize: 0x44 }
  - { offsetInCU: 0x59B2, offset: 0x1C16C, size: 0x8, addend: 0x0, symName: __ZNSt3__110shared_ptrIN5agora3rtc9extension17ExtensionDelegateINS1_5media4base10VideoFrameEEEED2B7v160006Ev, symObjAddr: 0x2B8, symBinAddr: 0x97FC, symSize: 0x58 }
  - { offsetInCU: 0x5A3C, offset: 0x1C1F6, size: 0x8, addend: 0x0, symName: __ZN5agora3rtc9extension18ExtensionVideoSinkD1Ev, symObjAddr: 0x94, symBinAddr: 0x961C, symSize: 0x4 }
  - { offsetInCU: 0x5A7C, offset: 0x1C236, size: 0x8, addend: 0x0, symName: __ZThn48_N5agora3rtc9extension18ExtensionVideoSinkD1Ev, symObjAddr: 0x98, symBinAddr: 0x9620, symSize: 0x4 }
  - { offsetInCU: 0x5A96, offset: 0x1C250, size: 0x8, addend: 0x0, symName: __ZThn48_N5agora3rtc9extension18ExtensionVideoSinkD1Ev, symObjAddr: 0x98, symBinAddr: 0x9620, symSize: 0x4 }
  - { offsetInCU: 0x5AA7, offset: 0x1C261, size: 0x8, addend: 0x0, symName: __ZN5agora3rtc9extension18ExtensionVideoSinkD0Ev, symObjAddr: 0x9C, symBinAddr: 0x9624, symSize: 0x4 }
  - { offsetInCU: 0x5AE2, offset: 0x1C29C, size: 0x8, addend: 0x0, symName: __ZThn48_N5agora3rtc9extension18ExtensionVideoSinkD0Ev, symObjAddr: 0xA0, symBinAddr: 0x9628, symSize: 0x4 }
  - { offsetInCU: 0x5AFC, offset: 0x1C2B6, size: 0x8, addend: 0x0, symName: __ZThn48_N5agora3rtc9extension18ExtensionVideoSinkD0Ev, symObjAddr: 0xA0, symBinAddr: 0x9628, symSize: 0x4 }
  - { offsetInCU: 0x5B0D, offset: 0x1C2C7, size: 0x8, addend: 0x0, symName: __ZN5agora3rtc9extension18ExtensionVideoSink7onFrameERKNS_5media4base10VideoFrameE, symObjAddr: 0xA4, symBinAddr: 0x962C, symSize: 0x38 }
  - { offsetInCU: 0x5B82, offset: 0x1C33C, size: 0x8, addend: 0x0, symName: __ZThn48_N5agora3rtc9extension18ExtensionVideoSink7onFrameERKNS_5media4base10VideoFrameE, symObjAddr: 0xDC, symBinAddr: 0x9664, symSize: 0x38 }
  - { offsetInCU: 0x5BDD, offset: 0x1C397, size: 0x8, addend: 0x0, symName: __ZN5agora3rtc9extension18ExtensionVideoSink11setPropertyEPKcPKvi, symObjAddr: 0x114, symBinAddr: 0x969C, symSize: 0x4C }
  - { offsetInCU: 0x5C7F, offset: 0x1C439, size: 0x8, addend: 0x0, symName: __ZThn48_N5agora3rtc9extension18ExtensionVideoSink11setPropertyEPKcPKvi, symObjAddr: 0x160, symBinAddr: 0x96E8, symSize: 0x4C }
  - { offsetInCU: 0x5CF4, offset: 0x1C4AE, size: 0x8, addend: 0x0, symName: __ZN5agora3rtc9extension18ExtensionVideoSink11getPropertyEPKcPvi, symObjAddr: 0x1AC, symBinAddr: 0x9734, symSize: 0x4C }
  - { offsetInCU: 0x5D97, offset: 0x1C551, size: 0x8, addend: 0x0, symName: __ZThn48_N5agora3rtc9extension18ExtensionVideoSink11getPropertyEPKcPvi, symObjAddr: 0x1F8, symBinAddr: 0x9780, symSize: 0x4C }
  - { offsetInCU: 0x5E0C, offset: 0x1C5C6, size: 0x8, addend: 0x0, symName: __ZN5agora3rtc9extension18ExtensionVideoSink21onDataStreamWillStartEv, symObjAddr: 0x244, symBinAddr: 0x97CC, symSize: 0x8 }
  - { offsetInCU: 0x5E31, offset: 0x1C5EB, size: 0x8, addend: 0x0, symName: __ZThn48_N5agora3rtc9extension18ExtensionVideoSink21onDataStreamWillStartEv, symObjAddr: 0x24C, symBinAddr: 0x97D4, symSize: 0x8 }
  - { offsetInCU: 0x5E47, offset: 0x1C601, size: 0x8, addend: 0x0, symName: __ZN5agora3rtc9extension18ExtensionVideoSink20onDataStreamWillStopEv, symObjAddr: 0x254, symBinAddr: 0x97DC, symSize: 0x4 }
  - { offsetInCU: 0x5E6C, offset: 0x1C626, size: 0x8, addend: 0x0, symName: __ZThn48_N5agora3rtc9extension18ExtensionVideoSink20onDataStreamWillStopEv, symObjAddr: 0x258, symBinAddr: 0x97E0, symSize: 0x4 }
  - { offsetInCU: 0x5E82, offset: 0x1C63C, size: 0x8, addend: 0x0, symName: __ZN5agora3rtc9extension10IExtensionINS_5media4base10VideoFrameEED1Ev, symObjAddr: 0x2A0, symBinAddr: 0x97E4, symSize: 0x4 }
  - { offsetInCU: 0x5EA5, offset: 0x1C65F, size: 0x8, addend: 0x0, symName: __ZN5agora3rtc9extension10IExtensionINS_5media4base10VideoFrameEED1Ev, symObjAddr: 0x2A0, symBinAddr: 0x97E4, symSize: 0x4 }
  - { offsetInCU: 0x5ED2, offset: 0x1C68C, size: 0x8, addend: 0x0, symName: __ZN5agora3rtc9extension10IExtensionINS_5media4base10VideoFrameEED0Ev, symObjAddr: 0x2A4, symBinAddr: 0x97E8, symSize: 0x14 }
  - { offsetInCU: 0x5D, offset: 0x1C9C3, size: 0x8, addend: 0x0, symName: __ZNSt3__1L19piecewise_constructE, symObjAddr: 0x1393, symBinAddr: 0x3BD92, symSize: 0x0 }
  - { offsetInCU: 0x6040, offset: 0x229A6, size: 0x8, addend: 0x0, symName: __ZNSt3__119__allocate_at_leastB7v160006INS_9allocatorIiEEEENS_19__allocation_resultINS_16allocator_traitsIT_E7pointerEEERS5_m, symObjAddr: 0x524, symBinAddr: 0x9D78, symSize: 0x34 }
  - { offsetInCU: 0x60DE, offset: 0x22A44, size: 0x8, addend: 0x0, symName: ___clang_call_terminate, symObjAddr: 0x558, symBinAddr: 0x9DAC, symSize: 0xC }
  - { offsetInCU: 0x689B, offset: 0x23201, size: 0x8, addend: 0x0, symName: __ZNSt3__113__tree_removeB7v160006IPNS_16__tree_node_baseIPvEEEEvT_S5_, symObjAddr: 0xF18, symBinAddr: 0xA560, symSize: 0x384 }
  - { offsetInCU: 0x6EB3, offset: 0x23819, size: 0x8, addend: 0x0, symName: __ZSt28__throw_bad_array_new_lengthB7v160006v, symObjAddr: 0x5D8, symBinAddr: 0x9DB8, symSize: 0x28 }
  - { offsetInCU: 0x9C76, offset: 0x265DC, size: 0x8, addend: 0x0, symName: __ZN17FUBindItemsTracer14traceBindItemsEiPii, symObjAddr: 0x0, symBinAddr: 0x9854, symSize: 0x188 }
  - { offsetInCU: 0xA610, offset: 0x26F76, size: 0x8, addend: 0x0, symName: __ZNSt3__16vectorIiNS_9allocatorIiEEEC2IPiLi0EEET_S6_, symObjAddr: 0x450, symBinAddr: 0x9CA4, symSize: 0x80 }
  - { offsetInCU: 0xA98D, offset: 0x272F3, size: 0x8, addend: 0x0, symName: __ZNSt3__16__treeINS_12__value_typeIi6FUItemEENS_19__map_value_compareIiS3_NS_4lessIiEELb1EEENS_9allocatorIS3_EEE25__emplace_unique_key_argsIiJRKNS_21piecewise_construct_tENS_5tupleIJRKiEEENSF_IJEEEEEENS_4pairINS_15__tree_iteratorIS3_PNS_11__tree_nodeIS3_PvEElEEbEERKT_DpOT0_, symObjAddr: 0xB04, symBinAddr: 0xA2E4, symSize: 0xF4 }
  - { offsetInCU: 0xAEF7, offset: 0x2785D, size: 0x8, addend: 0x0, symName: __ZNSt3__14listINS_6vectorIiNS_9allocatorIiEEEENS2_IS4_EEE6assignINS_21__list_const_iteratorIS4_PvEEEEvT_SB_PNS_9enable_ifIXsr25__is_cpp17_input_iteratorISB_EE5valueEvE4typeE, symObjAddr: 0x600, symBinAddr: 0x9DE0, symSize: 0x9C }
  - { offsetInCU: 0xB015, offset: 0x2797B, size: 0x8, addend: 0x0, symName: __ZNSt3__110__list_impINS_6vectorIiNS_9allocatorIiEEEENS2_IS4_EEE5clearEv, symObjAddr: 0x9CC, symBinAddr: 0xA1AC, symSize: 0x74 }
  - { offsetInCU: 0xB34E, offset: 0x27CB4, size: 0x8, addend: 0x0, symName: __ZNSt3__14listINS_6vectorIiNS_9allocatorIiEEEENS2_IS4_EEE9push_backERKS4_, symObjAddr: 0xA40, symBinAddr: 0xA220, symSize: 0x70 }
  - { offsetInCU: 0xB609, offset: 0x27F6F, size: 0x8, addend: 0x0, symName: __ZN17FUBindItemsTracer16traceUnbindItemsEiPii, symObjAddr: 0x188, symBinAddr: 0x99DC, symSize: 0x108 }
  - { offsetInCU: 0xBD70, offset: 0x286D6, size: 0x8, addend: 0x0, symName: __ZN6FUItem6unbindERKNSt3__16vectorIiNS0_9allocatorIiEEEE, symObjAddr: 0x290, symBinAddr: 0x9AE4, symSize: 0x74 }
  - { offsetInCU: 0xBF39, offset: 0x2889F, size: 0x8, addend: 0x0, symName: __ZNSt3__14listINS_6vectorIiNS_9allocatorIiEEEENS2_IS4_EEE5eraseENS_21__list_const_iteratorIS4_PvEE, symObjAddr: 0xAB0, symBinAddr: 0xA290, symSize: 0x54 }
  - { offsetInCU: 0xC206, offset: 0x28B6C, size: 0x8, addend: 0x0, symName: __ZN17FUBindItemsTracer15traceCreateItemEi, symObjAddr: 0x304, symBinAddr: 0x9B58, symSize: 0xDC }
  - { offsetInCU: 0xC739, offset: 0x2909F, size: 0x8, addend: 0x0, symName: __ZN17FUBindItemsTracer16traceDestroyItemEi, symObjAddr: 0x3E0, symBinAddr: 0x9C34, symSize: 0x24 }
  - { offsetInCU: 0xC7B1, offset: 0x29117, size: 0x8, addend: 0x0, symName: __ZNSt3__16__treeINS_12__value_typeIi6FUItemEENS_19__map_value_compareIiS3_NS_4lessIiEELb1EEENS_9allocatorIS3_EEE14__erase_uniqueIiEEmRKT_, symObjAddr: 0xE28, symBinAddr: 0xA470, symSize: 0x80 }
  - { offsetInCU: 0xCB56, offset: 0x294BC, size: 0x8, addend: 0x0, symName: __ZN17FUBindItemsTracer12getBindItemsEi, symObjAddr: 0x404, symBinAddr: 0x9C58, symSize: 0x4C }
  - { offsetInCU: 0xCB9A, offset: 0x29500, size: 0x8, addend: 0x0, symName: __ZN17FUBindItemsTracer12getBindItemsEi, symObjAddr: 0x404, symBinAddr: 0x9C58, symSize: 0x4C }
  - { offsetInCU: 0xCBB7, offset: 0x2951D, size: 0x8, addend: 0x0, symName: __ZN17FUBindItemsTracer12getBindItemsEi, symObjAddr: 0x404, symBinAddr: 0x9C58, symSize: 0x4C }
  - { offsetInCU: 0xCBDE, offset: 0x29544, size: 0x8, addend: 0x0, symName: __ZN17FUBindItemsTracer12getBindItemsEi, symObjAddr: 0x404, symBinAddr: 0x9C58, symSize: 0x4C }
  - { offsetInCU: 0xCE24, offset: 0x2978A, size: 0x8, addend: 0x0, symName: __ZNSt3__16vectorIiNS_9allocatorIiEEE11__vallocateB7v160006Em, symObjAddr: 0x4D0, symBinAddr: 0x9D24, symSize: 0x40 }
  - { offsetInCU: 0xCE9E, offset: 0x29804, size: 0x8, addend: 0x0, symName: __ZNKSt3__16vectorIiNS_9allocatorIiEEE20__throw_length_errorB7v160006Ev, symObjAddr: 0x510, symBinAddr: 0x9D64, symSize: 0x14 }
  - { offsetInCU: 0xCEC6, offset: 0x2982C, size: 0x8, addend: 0x0, symName: __ZNKSt3__16vectorIiNS_9allocatorIiEEE20__throw_length_errorB7v160006Ev, symObjAddr: 0x510, symBinAddr: 0x9D64, symSize: 0x14 }
  - { offsetInCU: 0xCEEF, offset: 0x29855, size: 0x8, addend: 0x0, symName: __ZNSt3__119__allocate_at_leastB7v160006INS_9allocatorIiEEEENS_19__allocation_resultINS_16allocator_traitsIT_E7pointerEEERS5_m, symObjAddr: 0x524, symBinAddr: 0x9D78, symSize: 0x34 }
  - { offsetInCU: 0xCFDA, offset: 0x29940, size: 0x8, addend: 0x0, symName: __ZNSt3__16vectorIiNS_9allocatorIiEEE6assignIPiLi0EEEvT_S6_, symObjAddr: 0x844, symBinAddr: 0xA024, symSize: 0x108 }
  - { offsetInCU: 0xD5A4, offset: 0x29F0A, size: 0x8, addend: 0x0, symName: __ZNSt3__16vectorIiNS_9allocatorIiEEEC2ERKS3_, symObjAddr: 0x94C, symBinAddr: 0xA12C, symSize: 0x80 }
  - { offsetInCU: 0xD5C5, offset: 0x29F2B, size: 0x8, addend: 0x0, symName: __ZNSt3__14listINS_6vectorIiNS_9allocatorIiEEEENS2_IS4_EEE5eraseENS_21__list_const_iteratorIS4_PvEES9_, symObjAddr: 0x7C4, symBinAddr: 0x9FA4, symSize: 0x80 }
  - { offsetInCU: 0xD8FF, offset: 0x2A265, size: 0x8, addend: 0x0, symName: __ZNSt3__14listINS_6vectorIiNS_9allocatorIiEEEENS2_IS4_EEE6insertINS_21__list_const_iteratorIS4_PvEEEENS_15__list_iteratorIS4_S9_EESA_T_SD_PNS_9enable_ifIXsr25__is_cpp17_input_iteratorISD_EE5valueEvE4typeE, symObjAddr: 0x69C, symBinAddr: 0x9E7C, symSize: 0x128 }
  - { offsetInCU: 0xDF57, offset: 0x2A8BD, size: 0x8, addend: 0x0, symName: __ZNSt3__16vectorIiNS_9allocatorIiEEEC2ERKS3_, symObjAddr: 0x94C, symBinAddr: 0xA12C, symSize: 0x80 }
  - { offsetInCU: 0xE262, offset: 0x2ABC8, size: 0x8, addend: 0x0, symName: __ZNSt3__14listINS_6vectorIiNS_9allocatorIiEEEENS2_IS4_EEE6insertINS_21__list_const_iteratorIS4_PvEEEENS_15__list_iteratorIS4_S9_EESA_T_SD_PNS_9enable_ifIXsr25__is_cpp17_input_iteratorISD_EE5valueEvE4typeE.cold.1, symObjAddr: 0x129C, symBinAddr: 0x392A4, symSize: 0x40 }
  - { offsetInCU: 0xEADD, offset: 0x2B443, size: 0x8, addend: 0x0, symName: __ZNSt3__16__treeINS_12__value_typeIi6FUItemEENS_19__map_value_compareIiS3_NS_4lessIiEELb1EEENS_9allocatorIS3_EEE16__insert_node_atEPNS_15__tree_end_nodeIPNS_16__tree_node_baseIPvEEEERSF_SF_, symObjAddr: 0xBF8, symBinAddr: 0xA3D8, symSize: 0x54 }
  - { offsetInCU: 0xEB44, offset: 0x2B4AA, size: 0x8, addend: 0x0, symName: __ZNSt3__110unique_ptrINS_11__tree_nodeINS_12__value_typeIi6FUItemEEPvEENS_22__tree_node_destructorINS_9allocatorIS6_EEEEE5resetB7v160006EPS6_, symObjAddr: 0xDE4, symBinAddr: 0xA42C, symSize: 0x44 }
  - { offsetInCU: 0xEF1B, offset: 0x2B881, size: 0x8, addend: 0x0, symName: __ZNSt3__16__treeINS_12__value_typeIi6FUItemEENS_19__map_value_compareIiS3_NS_4lessIiEELb1EEENS_9allocatorIS3_EEE21__remove_node_pointerEPNS_11__tree_nodeIS3_PvEE, symObjAddr: 0xEA8, symBinAddr: 0xA4F0, symSize: 0x70 }
  - { offsetInCU: 0x5766, offset: 0x310C5, size: 0x8, addend: 0x0, symName: __ZN5agora3rtc9extension20ExtensionVideoFilterC2EPKc, symObjAddr: 0x0, symBinAddr: 0xA8E4, symSize: 0x4C }
  - { offsetInCU: 0x5B36, offset: 0x31495, size: 0x8, addend: 0x0, symName: __ZN5agora3rtc9extension10IExtensionINS0_14VideoFrameDataEED2Ev, symObjAddr: 0x4C, symBinAddr: 0xA930, symSize: 0x44 }
  - { offsetInCU: 0x5CAE, offset: 0x3160D, size: 0x8, addend: 0x0, symName: __ZNSt3__110shared_ptrIN5agora3rtc9extension17ExtensionDelegateINS2_14VideoFrameDataEEEED2B7v160006Ev, symObjAddr: 0x98C, symBinAddr: 0xB22C, symSize: 0x58 }
  - { offsetInCU: 0x5D87, offset: 0x316E6, size: 0x8, addend: 0x0, symName: __ZN5agora3rtc9extension20ExtensionVideoFilterD2Ev, symObjAddr: 0x90, symBinAddr: 0xA974, symSize: 0x50 }
  - { offsetInCU: 0x5E1F, offset: 0x3177E, size: 0x8, addend: 0x0, symName: __ZN5agora3rtc9extension20ExtensionVideoFilterD1Ev, symObjAddr: 0xE0, symBinAddr: 0xA9C4, symSize: 0x4 }
  - { offsetInCU: 0x5E5F, offset: 0x317BE, size: 0x8, addend: 0x0, symName: __ZThn48_N5agora3rtc9extension20ExtensionVideoFilterD1Ev, symObjAddr: 0xE4, symBinAddr: 0xA9C8, symSize: 0x4 }
  - { offsetInCU: 0x5E79, offset: 0x317D8, size: 0x8, addend: 0x0, symName: __ZThn48_N5agora3rtc9extension20ExtensionVideoFilterD1Ev, symObjAddr: 0xE4, symBinAddr: 0xA9C8, symSize: 0x4 }
  - { offsetInCU: 0x5E8A, offset: 0x317E9, size: 0x8, addend: 0x0, symName: __ZN5agora3rtc9extension20ExtensionVideoFilterD0Ev, symObjAddr: 0xE8, symBinAddr: 0xA9CC, symSize: 0x4 }
  - { offsetInCU: 0x5EC5, offset: 0x31824, size: 0x8, addend: 0x0, symName: __ZThn48_N5agora3rtc9extension20ExtensionVideoFilterD0Ev, symObjAddr: 0xEC, symBinAddr: 0xA9D0, symSize: 0x4 }
  - { offsetInCU: 0x5EDF, offset: 0x3183E, size: 0x8, addend: 0x0, symName: __ZThn48_N5agora3rtc9extension20ExtensionVideoFilterD0Ev, symObjAddr: 0xEC, symBinAddr: 0xA9D0, symSize: 0x4 }
  - { offsetInCU: 0x5EF0, offset: 0x3184F, size: 0x8, addend: 0x0, symName: __ZN5agora3rtc9extension20ExtensionVideoFilter14getProcessModeERNS0_21IExtensionVideoFilter11ProcessModeERb, symObjAddr: 0xF0, symBinAddr: 0xA9D4, symSize: 0x64 }
  - { offsetInCU: 0x5F8D, offset: 0x318EC, size: 0x8, addend: 0x0, symName: __ZThn48_N5agora3rtc9extension20ExtensionVideoFilter14getProcessModeERNS0_21IExtensionVideoFilter11ProcessModeERb, symObjAddr: 0x154, symBinAddr: 0xAA38, symSize: 0x64 }
  - { offsetInCU: 0x5FF8, offset: 0x31957, size: 0x8, addend: 0x0, symName: __ZN5agora3rtc9extension20ExtensionVideoFilter5startENS_12agora_refptrINS0_21IExtensionVideoFilter7ControlEEE, symObjAddr: 0x1B8, symBinAddr: 0xAA9C, symSize: 0x44 }
  - { offsetInCU: 0x6057, offset: 0x319B6, size: 0x8, addend: 0x0, symName: __ZN5agora12agora_refptrINS_3rtc21IExtensionVideoFilter7ControlEEaSERKS4_, symObjAddr: 0x1FC, symBinAddr: 0xAAE0, symSize: 0x5C }
  - { offsetInCU: 0x614A, offset: 0x31AA9, size: 0x8, addend: 0x0, symName: __ZThn48_N5agora3rtc9extension20ExtensionVideoFilter5startENS_12agora_refptrINS0_21IExtensionVideoFilter7ControlEEE, symObjAddr: 0x258, symBinAddr: 0xAB3C, symSize: 0x44 }
  - { offsetInCU: 0x61BC, offset: 0x31B1B, size: 0x8, addend: 0x0, symName: __ZN5agora3rtc9extension20ExtensionVideoFilter4stopEv, symObjAddr: 0x29C, symBinAddr: 0xAB80, symSize: 0x2C }
  - { offsetInCU: 0x6216, offset: 0x31B75, size: 0x8, addend: 0x0, symName: __ZThn48_N5agora3rtc9extension20ExtensionVideoFilter4stopEv, symObjAddr: 0x2C8, symBinAddr: 0xABAC, symSize: 0x2C }
  - { offsetInCU: 0x6263, offset: 0x31BC2, size: 0x8, addend: 0x0, symName: __ZN5agora3rtc9extension20ExtensionVideoFilter20getVideoFormatWantedERNS0_14VideoFrameData4TypeERNS0_14RawPixelBuffer6FormatE, symObjAddr: 0x2F4, symBinAddr: 0xABD8, symSize: 0x60 }
  - { offsetInCU: 0x6300, offset: 0x31C5F, size: 0x8, addend: 0x0, symName: __ZThn48_N5agora3rtc9extension20ExtensionVideoFilter20getVideoFormatWantedERNS0_14VideoFrameData4TypeERNS0_14RawPixelBuffer6FormatE, symObjAddr: 0x354, symBinAddr: 0xAC38, symSize: 0x60 }
  - { offsetInCU: 0x64D0, offset: 0x31E2F, size: 0x8, addend: 0x0, symName: __ZN5agora3rtc9extension20ExtensionVideoFilter14pendVideoFrameENS_12agora_refptrINS0_11IVideoFrameEEE, symObjAddr: 0x3B4, symBinAddr: 0xAC98, symSize: 0x198 }
  - { offsetInCU: 0x680E, offset: 0x3216D, size: 0x8, addend: 0x0, symName: __ZThn48_N5agora3rtc9extension20ExtensionVideoFilter14pendVideoFrameENS_12agora_refptrINS0_11IVideoFrameEEE, symObjAddr: 0x54C, symBinAddr: 0xAE30, symSize: 0x8 }
  - { offsetInCU: 0x683B, offset: 0x3219A, size: 0x8, addend: 0x0, symName: __ZN5agora3rtc9extension20ExtensionVideoFilter15adaptVideoFrameENS_12agora_refptrINS0_11IVideoFrameEEERS5_, symObjAddr: 0x554, symBinAddr: 0xAE38, symSize: 0xF0 }
  - { offsetInCU: 0x69DB, offset: 0x3233A, size: 0x8, addend: 0x0, symName: __ZN5agora12agora_refptrINS_3rtc11IVideoFrameEEaSERKS3_, symObjAddr: 0x644, symBinAddr: 0xAF28, symSize: 0x5C }
  - { offsetInCU: 0x6AA6, offset: 0x32405, size: 0x8, addend: 0x0, symName: __ZThn48_N5agora3rtc9extension20ExtensionVideoFilter15adaptVideoFrameENS_12agora_refptrINS0_11IVideoFrameEEERS5_, symObjAddr: 0x6A0, symBinAddr: 0xAF84, symSize: 0x8 }
  - { offsetInCU: 0x6ADA, offset: 0x32439, size: 0x8, addend: 0x0, symName: __ZN5agora3rtc9extension20ExtensionVideoFilter18getRotationAppliedEv, symObjAddr: 0x6A8, symBinAddr: 0xAF8C, symSize: 0x48 }
  - { offsetInCU: 0x6B4F, offset: 0x324AE, size: 0x8, addend: 0x0, symName: __ZThn48_N5agora3rtc9extension20ExtensionVideoFilter18getRotationAppliedEv, symObjAddr: 0x6F0, symBinAddr: 0xAFD4, symSize: 0x48 }
  - { offsetInCU: 0x6BAC, offset: 0x3250B, size: 0x8, addend: 0x0, symName: __ZN5agora3rtc9extension20ExtensionVideoFilter10setEnabledEb, symObjAddr: 0x738, symBinAddr: 0xB01C, symSize: 0x34 }
  - { offsetInCU: 0x6C21, offset: 0x32580, size: 0x8, addend: 0x0, symName: __ZThn48_N5agora3rtc9extension20ExtensionVideoFilter10setEnabledEb, symObjAddr: 0x76C, symBinAddr: 0xB050, symSize: 0x34 }
  - { offsetInCU: 0x6C75, offset: 0x325D4, size: 0x8, addend: 0x0, symName: __ZN5agora3rtc9extension20ExtensionVideoFilter9isEnabledEv, symObjAddr: 0x7A0, symBinAddr: 0xB084, symSize: 0x24 }
  - { offsetInCU: 0x6CCF, offset: 0x3262E, size: 0x8, addend: 0x0, symName: __ZThn48_N5agora3rtc9extension20ExtensionVideoFilter9isEnabledEv, symObjAddr: 0x7C4, symBinAddr: 0xB0A8, symSize: 0x24 }
  - { offsetInCU: 0x6D1C, offset: 0x3267B, size: 0x8, addend: 0x0, symName: __ZN5agora3rtc9extension20ExtensionVideoFilter11setPropertyEPKcPKvm, symObjAddr: 0x7E8, symBinAddr: 0xB0CC, symSize: 0x4C }
  - { offsetInCU: 0x6DC5, offset: 0x32724, size: 0x8, addend: 0x0, symName: __ZThn48_N5agora3rtc9extension20ExtensionVideoFilter11setPropertyEPKcPKvm, symObjAddr: 0x834, symBinAddr: 0xB118, symSize: 0x4C }
  - { offsetInCU: 0x6E40, offset: 0x3279F, size: 0x8, addend: 0x0, symName: __ZN5agora3rtc9extension20ExtensionVideoFilter11getPropertyEPKcPvm, symObjAddr: 0x880, symBinAddr: 0xB164, symSize: 0x4C }
  - { offsetInCU: 0x6EE9, offset: 0x32848, size: 0x8, addend: 0x0, symName: __ZThn48_N5agora3rtc9extension20ExtensionVideoFilter11getPropertyEPKcPvm, symObjAddr: 0x8CC, symBinAddr: 0xB1B0, symSize: 0x4C }
  - { offsetInCU: 0x6F64, offset: 0x328C3, size: 0x8, addend: 0x0, symName: __ZN5agora3rtc9extension20ExtensionVideoFilter21onDataStreamWillStartEv, symObjAddr: 0x918, symBinAddr: 0xB1FC, symSize: 0x8 }
  - { offsetInCU: 0x6F89, offset: 0x328E8, size: 0x8, addend: 0x0, symName: __ZThn48_N5agora3rtc9extension20ExtensionVideoFilter21onDataStreamWillStartEv, symObjAddr: 0x920, symBinAddr: 0xB204, symSize: 0x8 }
  - { offsetInCU: 0x6F9F, offset: 0x328FE, size: 0x8, addend: 0x0, symName: __ZN5agora3rtc9extension20ExtensionVideoFilter20onDataStreamWillStopEv, symObjAddr: 0x928, symBinAddr: 0xB20C, symSize: 0x4 }
  - { offsetInCU: 0x6FC4, offset: 0x32923, size: 0x8, addend: 0x0, symName: __ZThn48_N5agora3rtc9extension20ExtensionVideoFilter20onDataStreamWillStopEv, symObjAddr: 0x92C, symBinAddr: 0xB210, symSize: 0x4 }
  - { offsetInCU: 0x6FDA, offset: 0x32939, size: 0x8, addend: 0x0, symName: __ZN5agora3rtc9extension10IExtensionINS0_14VideoFrameDataEED1Ev, symObjAddr: 0x974, symBinAddr: 0xB214, symSize: 0x4 }
  - { offsetInCU: 0x6FFD, offset: 0x3295C, size: 0x8, addend: 0x0, symName: __ZN5agora3rtc9extension10IExtensionINS0_14VideoFrameDataEED1Ev, symObjAddr: 0x974, symBinAddr: 0xB214, symSize: 0x4 }
  - { offsetInCU: 0x702A, offset: 0x32989, size: 0x8, addend: 0x0, symName: __ZN5agora3rtc9extension10IExtensionINS0_14VideoFrameDataEED0Ev, symObjAddr: 0x978, symBinAddr: 0xB218, symSize: 0x14 }
  - { offsetInCU: 0x56, offset: 0x32CB9, size: 0x8, addend: 0x0, symName: __ZN3fmt3v106detail17format_error_codeERNS1_6bufferIcEEiNS0_17basic_string_viewIcEE, symObjAddr: 0xAC, symBinAddr: 0xB330, symSize: 0x108 }
  - { offsetInCU: 0x7B, offset: 0x32CDE, size: 0x8, addend: 0x0, symName: __ZZN3fmt3v106detail17format_error_codeERNS1_6bufferIcEEiNS0_17basic_string_viewIcEEE3SEP, symObjAddr: 0x10E78, symBinAddr: 0x3C088, symSize: 0x0 }
  - { offsetInCU: 0x91, offset: 0x32CF4, size: 0x8, addend: 0x0, symName: __ZZN3fmt3v106detail17format_error_codeERNS1_6bufferIcEEiNS0_17basic_string_viewIcEEE9ERROR_STR, symObjAddr: 0x10E7B, symBinAddr: 0x3C08B, symSize: 0x0 }
  - { offsetInCU: 0x3C7, offset: 0x3302A, size: 0x8, addend: 0x0, symName: __ZN3fmt3v106detail12is_printableEj, symObjAddr: 0x107C, symBinAddr: 0xC2F4, symSize: 0x218 }
  - { offsetInCU: 0x3F3, offset: 0x33056, size: 0x8, addend: 0x0, symName: __ZZN3fmt3v106detail12is_printableEjE11singletons0, symObjAddr: 0x10E82, symBinAddr: 0x3C092, symSize: 0x0 }
  - { offsetInCU: 0x40A, offset: 0x3306D, size: 0x8, addend: 0x0, symName: __ZZN3fmt3v106detail12is_printableEjE17singletons0_lower, symObjAddr: 0x10ED4, symBinAddr: 0x3C0E4, symSize: 0x0 }
  - { offsetInCU: 0x421, offset: 0x33084, size: 0x8, addend: 0x0, symName: __ZZN3fmt3v106detail12is_printableEjE11singletons1, symObjAddr: 0x10FF6, symBinAddr: 0x3C206, symSize: 0x0 }
  - { offsetInCU: 0x438, offset: 0x3309B, size: 0x8, addend: 0x0, symName: __ZZN3fmt3v106detail12is_printableEjE17singletons1_lower, symObjAddr: 0x11042, symBinAddr: 0x3C252, symSize: 0x0 }
  - { offsetInCU: 0x44F, offset: 0x330B2, size: 0x8, addend: 0x0, symName: __ZZN3fmt3v106detail12is_printableEjE7normal0, symObjAddr: 0x110F1, symBinAddr: 0x3C301, symSize: 0x0 }
  - { offsetInCU: 0x466, offset: 0x330C9, size: 0x8, addend: 0x0, symName: __ZZN3fmt3v106detail12is_printableEjE7normal1, symObjAddr: 0x11226, symBinAddr: 0x3C436, symSize: 0x0 }
  - { offsetInCU: 0x9AC, offset: 0x3360F, size: 0x8, addend: 0x0, symName: __ZN3fmt3v106detail9dragonbox10to_decimalIfEENS2_10decimal_fpIT_EES5_, symObjAddr: 0x1294, symBinAddr: 0xC50C, symSize: 0x334 }
  - { offsetInCU: 0xEDF, offset: 0x33B42, size: 0x8, addend: 0x0, symName: __ZN3fmt3v106detail9dragonbox14cache_accessorIfE18compute_mul_parityEjRKyi, symObjAddr: 0x15C8, symBinAddr: 0xC840, symSize: 0x80 }
  - { offsetInCU: 0xF06, offset: 0x33B69, size: 0x8, addend: 0x0, symName: __ZN3fmt3v106detail9dragonbox10to_decimalIdEENS2_10decimal_fpIT_EES5_, symObjAddr: 0x1648, symBinAddr: 0xC8C0, symSize: 0x45C }
  - { offsetInCU: 0x162F, offset: 0x34292, size: 0x8, addend: 0x0, symName: __ZN3fmt3v106detail9dragonbox14cache_accessorIdE18compute_mul_parityEyRKNS1_16uint128_fallbackEi, symObjAddr: 0x1AA4, symBinAddr: 0xCD1C, symSize: 0x84 }
  - { offsetInCU: 0x1656, offset: 0x342B9, size: 0x8, addend: 0x0, symName: __ZN3fmt3v106detail9dragonbox16get_cached_powerEi, symObjAddr: 0x818, symBinAddr: 0xBA90, symSize: 0x4 }
  - { offsetInCU: 0x1675, offset: 0x342D8, size: 0x8, addend: 0x0, symName: __ZN3fmt3v106detail9dragonbox16get_cached_powerEi, symObjAddr: 0x818, symBinAddr: 0xBA90, symSize: 0x4 }
  - { offsetInCU: 0x26CE, offset: 0x35331, size: 0x8, addend: 0x0, symName: __ZN3fmt3v106detail9write_locENS0_8appenderENS0_9loc_valueERKNS0_12format_specsIcEENS1_10locale_refE, symObjAddr: 0x280, symBinAddr: 0xB4F8, symSize: 0x178 }
  - { offsetInCU: 0x2C7D, offset: 0x358E0, size: 0x8, addend: 0x0, symName: __ZN3fmt3v106detail5writeIcNS0_8appenderEfLi0EEET0_S4_T1_, symObjAddr: 0x4AC8, symBinAddr: 0xFC90, symSize: 0xA0 }
  - { offsetInCU: 0x2E24, offset: 0x35A87, size: 0x8, addend: 0x0, symName: __ZN3fmt3v106detail5writeIcNS0_8appenderEdLi0EEET0_S4_T1_, symObjAddr: 0x63F0, symBinAddr: 0x115B8, symSize: 0xA0 }
  - { offsetInCU: 0x2FD2, offset: 0x35C35, size: 0x8, addend: 0x0, symName: __ZN3fmt3v106detail5writeIcNS0_8appenderEeLi0EEET0_S4_T1_, symObjAddr: 0x7488, symBinAddr: 0x12650, symSize: 0xA0 }
  - { offsetInCU: 0x3180, offset: 0x35DE3, size: 0x8, addend: 0x0, symName: __ZN3fmt3v106detail23parse_replacement_fieldIcRZNS1_10vformat_toIcEEvRNS1_6bufferIT_EENS0_17basic_string_viewIS5_EENS1_12vformat_argsIS5_E4typeENS1_10locale_refEE14format_handlerEEPKS5_SH_SH_OT0_, symObjAddr: 0x7894, symBinAddr: 0x12A5C, symSize: 0x3DC }
  - { offsetInCU: 0x3A8A, offset: 0x366ED, size: 0x8, addend: 0x0, symName: __ZZN3fmt3v106detail19parse_format_stringILb0EcZNS1_10vformat_toIcEEvRNS1_6bufferIT_EENS0_17basic_string_viewIS5_EENS1_12vformat_argsIS5_E4typeENS1_10locale_refEE14format_handlerEEvNS8_IT0_EEOT1_EN6writerclEPKcSL_, symObjAddr: 0x7C70, symBinAddr: 0x12E38, symSize: 0xC0 }
  - { offsetInCU: 0x3AAE, offset: 0x36711, size: 0x8, addend: 0x0, symName: __ZN3fmt3v106detail10vformat_toIcEEvRNS1_6bufferIT_EENS0_17basic_string_viewIS4_EENS1_12vformat_argsIS4_E4typeENS1_10locale_refE, symObjAddr: 0xBA0, symBinAddr: 0xBE18, symSize: 0x36C }
  - { offsetInCU: 0x44B8, offset: 0x3711B, size: 0x8, addend: 0x0, symName: __ZN3fmt3v106detail13write_consoleEP7__sFILENS0_17basic_string_viewIcEE, symObjAddr: 0xF0C, symBinAddr: 0xC184, symSize: 0x8 }
  - { offsetInCU: 0x49F4, offset: 0x37657, size: 0x8, addend: 0x0, symName: __ZN3fmt3v106detail5writeIcNS0_8appenderEEET0_S4_T_RKNS0_12format_specsIS5_EENS1_10locale_refE, symObjAddr: 0xAEA4, symBinAddr: 0x1606C, symSize: 0x104 }
  - { offsetInCU: 0x4C86, offset: 0x378E9, size: 0x8, addend: 0x0, symName: __ZN3fmt3v106detail15format_hexfloatIdLi0EEEvT_iNS1_11float_specsERNS1_6bufferIcEE, symObjAddr: 0xB450, symBinAddr: 0x16618, symSize: 0x3B8 }
  - { offsetInCU: 0x58F0, offset: 0x38553, size: 0x8, addend: 0x0, symName: __ZN3fmt3v106detail18throw_format_errorEPKc, symObjAddr: 0x34, symBinAddr: 0xB2B8, symSize: 0x50 }
  - { offsetInCU: 0x592D, offset: 0x38590, size: 0x8, addend: 0x0, symName: __ZN3fmt3v106detail11assert_failEPKciS3_, symObjAddr: 0x0, symBinAddr: 0xB284, symSize: 0x34 }
  - { offsetInCU: 0x5977, offset: 0x385DA, size: 0x8, addend: 0x0, symName: __ZN3fmt3v106detail18throw_format_errorEPKc, symObjAddr: 0x34, symBinAddr: 0xB2B8, symSize: 0x50 }
  - { offsetInCU: 0x5A55, offset: 0x386B8, size: 0x8, addend: 0x0, symName: __ZN3fmt3v106detail12report_errorEPFvRNS1_6bufferIcEEiPKcEiS6_, symObjAddr: 0x1C0, symBinAddr: 0xB438, symSize: 0xC0 }
  - { offsetInCU: 0x6213, offset: 0x38E76, size: 0x8, addend: 0x0, symName: __ZN3fmt3v106detail5writeIcNSt3__120back_insert_iteratorINS1_6bufferIcEEEEEET0_S8_PKT_, symObjAddr: 0xB48, symBinAddr: 0xBDC0, symSize: 0x44 }
  - { offsetInCU: 0x62F0, offset: 0x38F53, size: 0x8, addend: 0x0, symName: __ZN3fmt3v1019report_system_errorEiPKc, symObjAddr: 0xB8C, symBinAddr: 0xBE04, symSize: 0x14 }
  - { offsetInCU: 0x6355, offset: 0x38FB8, size: 0x8, addend: 0x0, symName: __ZN3fmt3v106detail17copy_str_noinlineIcPKcNSt3__120back_insert_iteratorINS1_6bufferIcEEEEEET1_T0_SB_SA_, symObjAddr: 0x24E8, symBinAddr: 0xD6B0, symSize: 0x4 }
  - { offsetInCU: 0x63A2, offset: 0x39005, size: 0x8, addend: 0x0, symName: __ZN3fmt3v106detail17copy_str_noinlineIcPKcNSt3__120back_insert_iteratorINS1_6bufferIcEEEEEET1_T0_SB_SA_, symObjAddr: 0x24E8, symBinAddr: 0xD6B0, symSize: 0x4 }
  - { offsetInCU: 0x688D, offset: 0x394F0, size: 0x8, addend: 0x0, symName: __ZN3fmt3v106detail5writeIcNS0_8appenderEiLi0EEET0_S4_T1_, symObjAddr: 0x2614, symBinAddr: 0xD7DC, symSize: 0x130 }
  - { offsetInCU: 0x6B03, offset: 0x39766, size: 0x8, addend: 0x0, symName: __ZN3fmt3v106detail5writeIcNS0_8appenderEjLi0EEET0_S4_T1_, symObjAddr: 0x2840, symBinAddr: 0xDA08, symSize: 0xBC }
  - { offsetInCU: 0x6CF2, offset: 0x39955, size: 0x8, addend: 0x0, symName: __ZN3fmt3v106detail5writeIcNS0_8appenderExLi0EEET0_S4_T1_, symObjAddr: 0x28FC, symBinAddr: 0xDAC4, symSize: 0x13C }
  - { offsetInCU: 0x6F5F, offset: 0x39BC2, size: 0x8, addend: 0x0, symName: __ZN3fmt3v106detail5writeIcNS0_8appenderEyLi0EEET0_S4_T1_, symObjAddr: 0x2B20, symBinAddr: 0xDCE8, symSize: 0xCC }
  - { offsetInCU: 0x7150, offset: 0x39DB3, size: 0x8, addend: 0x0, symName: __ZN3fmt3v106detail5writeIcNS0_8appenderEnLi0EEET0_S4_T1_, symObjAddr: 0x2BEC, symBinAddr: 0xDDB4, symSize: 0x204 }
  - { offsetInCU: 0x73E7, offset: 0x3A04A, size: 0x8, addend: 0x0, symName: __ZN3fmt3v106detail5writeIcNS0_8appenderEoLi0EEET0_S4_T1_, symObjAddr: 0x2FD4, symBinAddr: 0xE19C, symSize: 0x198 }
  - { offsetInCU: 0x75F4, offset: 0x3A257, size: 0x8, addend: 0x0, symName: __ZN3fmt3v106detail5writeIcNS0_8appenderEEET0_S4_PKT_, symObjAddr: 0x7528, symBinAddr: 0x126F0, symSize: 0x44 }
  - { offsetInCU: 0x76D1, offset: 0x3A334, size: 0x8, addend: 0x0, symName: __ZN3fmt3v106detail17copy_str_noinlineIcPKcNS0_8appenderEEET1_T0_S7_S6_, symObjAddr: 0x756C, symBinAddr: 0x12734, symSize: 0x30 }
  - { offsetInCU: 0x76EE, offset: 0x3A351, size: 0x8, addend: 0x0, symName: __ZN3fmt3v106detail17copy_str_noinlineIcPKcNS0_8appenderEEET1_T0_S7_S6_, symObjAddr: 0x756C, symBinAddr: 0x12734, symSize: 0x30 }
  - { offsetInCU: 0x77A5, offset: 0x3A408, size: 0x8, addend: 0x0, symName: __ZN3fmt3v106detail13write_consoleEP7__sFILENS0_17basic_string_viewIcEE, symObjAddr: 0xF0C, symBinAddr: 0xC184, symSize: 0x8 }
  - { offsetInCU: 0x781F, offset: 0x3A482, size: 0x8, addend: 0x0, symName: __ZN3fmt3v106detail5printEP7__sFILENS0_17basic_string_viewIcEE, symObjAddr: 0xF14, symBinAddr: 0xC18C, symSize: 0x88 }
  - { offsetInCU: 0x7A69, offset: 0x3A6CC, size: 0x8, addend: 0x0, symName: __ZN3fmt3v106detail18thousands_sep_implIcEENS1_20thousands_sep_resultIT_EENS1_10locale_refE, symObjAddr: 0x1B38, symBinAddr: 0xCDB0, symSize: 0xE0 }
  - { offsetInCU: 0x7D3B, offset: 0x3A99E, size: 0x8, addend: 0x0, symName: __ZN3fmt3v106detail18decimal_point_implIcEET_NS1_10locale_refE, symObjAddr: 0x1C18, symBinAddr: 0xCE90, symSize: 0x7C }
  - { offsetInCU: 0x7DCE, offset: 0x3AA31, size: 0x8, addend: 0x0, symName: __ZN3fmt3v106detail18thousands_sep_implIwEENS1_20thousands_sep_resultIT_EENS1_10locale_refE, symObjAddr: 0x1DB4, symBinAddr: 0xD02C, symSize: 0xE0 }
  - { offsetInCU: 0x80A0, offset: 0x3AD03, size: 0x8, addend: 0x0, symName: __ZN3fmt3v106detail18decimal_point_implIwEET_NS1_10locale_refE, symObjAddr: 0x1E94, symBinAddr: 0xD10C, symSize: 0x7C }
  - { offsetInCU: 0x81B1, offset: 0x3AE14, size: 0x8, addend: 0x0, symName: __ZN3fmt3v106detail8copy_strIcPKcNSt3__120back_insert_iteratorINS1_6bufferIcEEEEEET1_T0_SB_SA_, symObjAddr: 0x24EC, symBinAddr: 0xD6B4, symSize: 0x78 }
  - { offsetInCU: 0x8284, offset: 0x3AEE7, size: 0x8, addend: 0x0, symName: __ZN3fmt3v106detail5writeIcNS0_8appenderEbLi0EEET0_S4_T1_RKNS0_12format_specsIT_EENS1_10locale_refE, symObjAddr: 0x316C, symBinAddr: 0xE334, symSize: 0x110 }
  - { offsetInCU: 0x8549, offset: 0x3B1AC, size: 0x8, addend: 0x0, symName: __ZN3fmt3v106detail9write_ptrIcNS0_8appenderEmEET0_S4_T1_PKNS0_12format_specsIT_EE, symObjAddr: 0x759C, symBinAddr: 0x12764, symSize: 0x6C }
  - { offsetInCU: 0x8793, offset: 0x3B3F6, size: 0x8, addend: 0x0, symName: __ZN3fmt3v106detail14format_decimalIcjEENS1_21format_decimal_resultIPT_EES5_T0_i, symObjAddr: 0x2744, symBinAddr: 0xD90C, symSize: 0xCC }
  - { offsetInCU: 0x888F, offset: 0x3B4F2, size: 0x8, addend: 0x0, symName: __ZN3fmt3v106detail17copy_str_noinlineIcPcNS0_8appenderEEET1_T0_S6_S5_, symObjAddr: 0x2810, symBinAddr: 0xD9D8, symSize: 0x30 }
  - { offsetInCU: 0x88B3, offset: 0x3B516, size: 0x8, addend: 0x0, symName: __ZN3fmt3v106detail17copy_str_noinlineIcPcNS0_8appenderEEET1_T0_S6_S5_, symObjAddr: 0x2810, symBinAddr: 0xD9D8, symSize: 0x30 }
  - { offsetInCU: 0x8AB6, offset: 0x3B719, size: 0x8, addend: 0x0, symName: __ZN3fmt3v106detail14format_decimalIcyEENS1_21format_decimal_resultIPT_EES5_T0_i, symObjAddr: 0x2A38, symBinAddr: 0xDC00, symSize: 0xE8 }
  - { offsetInCU: 0x8BA0, offset: 0x3B803, size: 0x8, addend: 0x0, symName: __ZN3fmt3v106detail5writeIcNS0_8appenderEyLi0EEET0_S4_T1_, symObjAddr: 0x2B20, symBinAddr: 0xDCE8, symSize: 0xCC }
  - { offsetInCU: 0x8C84, offset: 0x3B8E7, size: 0x8, addend: 0x0, symName: __ZN3fmt3v106detail14format_decimalIcoEENS1_21format_decimal_resultIPT_EES5_T0_i, symObjAddr: 0x2DF0, symBinAddr: 0xDFB8, symSize: 0x1E4 }
  - { offsetInCU: 0x8D6B, offset: 0x3B9CE, size: 0x8, addend: 0x0, symName: __ZN3fmt3v106detail5writeIcNS0_8appenderEoLi0EEET0_S4_T1_, symObjAddr: 0x2FD4, symBinAddr: 0xE19C, symSize: 0x198 }
  - { offsetInCU: 0x8F9E, offset: 0x3BC01, size: 0x8, addend: 0x0, symName: __ZN3fmt3v106detail12write_paddedILNS0_5align4typeE1ENS0_8appenderEcRZNS1_11write_bytesILS4_1EcS5_EET1_S7_NS0_17basic_string_viewIcEERKNS0_12format_specsIT0_EEEUlS5_E_EESB_SB_RKNSA_IS7_EEmmOT2_, symObjAddr: 0x4A00, symBinAddr: 0xFBC8, symSize: 0xC8 }
  - { offsetInCU: 0x913E, offset: 0x3BDA1, size: 0x8, addend: 0x0, symName: __ZN3fmt3v106detail5writeIcNS0_8appenderEfLi0EEET0_S4_T1_, symObjAddr: 0x4AC8, symBinAddr: 0xFC90, symSize: 0xA0 }
  - { offsetInCU: 0x9175, offset: 0x3BDD8, size: 0x8, addend: 0x0, symName: __ZN3fmt3v106detail18write_int_noinlineIcNS0_8appenderEjEET0_S4_NS1_13write_int_argIT1_EERKNS0_12format_specsIT_EENS1_10locale_refE, symObjAddr: 0x327C, symBinAddr: 0xE444, symSize: 0x678 }
  - { offsetInCU: 0x9EB4, offset: 0x3CB17, size: 0x8, addend: 0x0, symName: __ZN3fmt3v106detail14write_int_dataIcEC2EijRKNS0_12format_specsIcEE, symObjAddr: 0x38F4, symBinAddr: 0xEABC, symSize: 0x8C }
  - { offsetInCU: 0xAABD, offset: 0x3D720, size: 0x8, addend: 0x0, symName: __ZN3fmt3v106detail12write_paddedILNS0_5align4typeE2ENS0_8appenderEcRZNS1_9write_intIS5_cZNS1_9write_intIcS5_jEET0_S8_NS1_13write_int_argIT1_EERKNS0_12format_specsIT_EENS1_10locale_refEEUlS5_E_EESD_SD_ijRKNSC_IS8_EESA_EUlS5_E_EES8_S8_RKNSC_ISA_EEmmOT2_, symObjAddr: 0x3980, symBinAddr: 0xEB48, symSize: 0x160 }
  - { offsetInCU: 0xAD58, offset: 0x3D9BB, size: 0x8, addend: 0x0, symName: __ZN3fmt3v106detail12write_paddedILNS0_5align4typeE2ENS0_8appenderEcRZNS1_9write_intIS5_cZNS1_9write_intIcS5_jEET0_S8_NS1_13write_int_argIT1_EERKNS0_12format_specsIT_EENS1_10locale_refEEUlS5_E0_EESD_SD_ijRKNSC_IS8_EESA_EUlS5_E_EES8_S8_RKNSC_ISA_EEmmOT2_, symObjAddr: 0x3BCC, symBinAddr: 0xED94, symSize: 0xB0 }
  - { offsetInCU: 0xAE77, offset: 0x3DADA, size: 0x8, addend: 0x0, symName: __ZZN3fmt3v106detail9write_intINS0_8appenderEcZNS1_9write_intIcS3_jEET0_S5_NS1_13write_int_argIT1_EERKNS0_12format_specsIT_EENS1_10locale_refEEUlS3_E0_EESA_SA_ijRKNS9_IS5_EES7_ENKUlS3_E_clES3_, symObjAddr: 0x3C7C, symBinAddr: 0xEE44, symSize: 0x1AC }
  - { offsetInCU: 0xAEAE, offset: 0x3DB11, size: 0x8, addend: 0x0, symName: __ZN3fmt3v106detail12write_paddedILNS0_5align4typeE2ENS0_8appenderEcRZNS1_9write_intIS5_cZNS1_9write_intIcS5_jEET0_S8_NS1_13write_int_argIT1_EERKNS0_12format_specsIT_EENS1_10locale_refEEUlS5_E1_EESD_SD_ijRKNSC_IS8_EESA_EUlS5_E_EES8_S8_RKNSC_ISA_EEmmOT2_, symObjAddr: 0x3E28, symBinAddr: 0xEFF0, symSize: 0xB0 }
  - { offsetInCU: 0xAFCD, offset: 0x3DC30, size: 0x8, addend: 0x0, symName: __ZZN3fmt3v106detail9write_intINS0_8appenderEcZNS1_9write_intIcS3_jEET0_S5_NS1_13write_int_argIT1_EERKNS0_12format_specsIT_EENS1_10locale_refEEUlS3_E1_EESA_SA_ijRKNS9_IS5_EES7_ENKUlS3_E_clES3_, symObjAddr: 0x3ED8, symBinAddr: 0xF0A0, symSize: 0x17C }
  - { offsetInCU: 0xB004, offset: 0x3DC67, size: 0x8, addend: 0x0, symName: __ZN3fmt3v106detail12write_paddedILNS0_5align4typeE2ENS0_8appenderEcRZNS1_9write_intIS5_cZNS1_9write_intIcS5_jEET0_S8_NS1_13write_int_argIT1_EERKNS0_12format_specsIT_EENS1_10locale_refEEUlS5_E2_EESD_SD_ijRKNSC_IS8_EESA_EUlS5_E_EES8_S8_RKNSC_ISA_EEmmOT2_, symObjAddr: 0x4054, symBinAddr: 0xF21C, symSize: 0xB0 }
  - { offsetInCU: 0xB123, offset: 0x3DD86, size: 0x8, addend: 0x0, symName: __ZZN3fmt3v106detail9write_intINS0_8appenderEcZNS1_9write_intIcS3_jEET0_S5_NS1_13write_int_argIT1_EERKNS0_12format_specsIT_EENS1_10locale_refEEUlS3_E2_EESA_SA_ijRKNS9_IS5_EES7_ENKUlS3_E_clES3_, symObjAddr: 0x4104, symBinAddr: 0xF2CC, symSize: 0x178 }
  - { offsetInCU: 0xB15A, offset: 0x3DDBD, size: 0x8, addend: 0x0, symName: __ZN3fmt3v106detail12write_paddedILNS0_5align4typeE1ENS0_8appenderEcRZNS1_10write_charIcS5_EET0_S7_T_RKNS0_12format_specsIS8_EEEUlS5_E_EES7_S7_RKNS9_IT1_EEmmOT2_, symObjAddr: 0x427C, symBinAddr: 0xF444, symSize: 0x10C }
  - { offsetInCU: 0xB326, offset: 0x3DF89, size: 0x8, addend: 0x0, symName: __ZN3fmt3v106detail18write_escaped_charIcNS0_8appenderEEET0_S4_T_, symObjAddr: 0x4388, symBinAddr: 0xF550, symSize: 0x14C }
  - { offsetInCU: 0xB35D, offset: 0x3DFC0, size: 0x8, addend: 0x0, symName: __ZN3fmt3v106detail4fillINS0_8appenderEcEET_S4_mRKNS1_6fill_tIT0_EE, symObjAddr: 0x3AE0, symBinAddr: 0xECA8, symSize: 0x78 }
  - { offsetInCU: 0xB482, offset: 0x3E0E5, size: 0x8, addend: 0x0, symName: __ZN3fmt3v106detail6fill_nINS0_8appenderEmcEET_S4_T0_RKT1_, symObjAddr: 0x3B58, symBinAddr: 0xED20, symSize: 0x74 }
  - { offsetInCU: 0xB5CA, offset: 0x3E22D, size: 0x8, addend: 0x0, symName: __ZN3fmt3v106detail18write_escaped_charIcNS0_8appenderEEET0_S4_T_, symObjAddr: 0x4388, symBinAddr: 0xF550, symSize: 0x14C }
  - { offsetInCU: 0xB7D5, offset: 0x3E438, size: 0x8, addend: 0x0, symName: __ZN3fmt3v106detail16write_escaped_cpINS0_8appenderEcEET_S4_RKNS1_18find_escape_resultIT0_EE, symObjAddr: 0x44D4, symBinAddr: 0xF69C, symSize: 0x23C }
  - { offsetInCU: 0xBB18, offset: 0x3E77B, size: 0x8, addend: 0x0, symName: __ZN3fmt3v106detail15write_codepointILm2EcNS0_8appenderEEET1_S4_cj, symObjAddr: 0x4710, symBinAddr: 0xF8D8, symSize: 0xEC }
  - { offsetInCU: 0xBB3C, offset: 0x3E79F, size: 0x8, addend: 0x0, symName: __ZN3fmt3v106detail15write_codepointILm2EcNS0_8appenderEEET1_S4_cj, symObjAddr: 0x4710, symBinAddr: 0xF8D8, symSize: 0xEC }
  - { offsetInCU: 0xBD58, offset: 0x3E9BB, size: 0x8, addend: 0x0, symName: __ZN3fmt3v106detail15write_codepointILm4EcNS0_8appenderEEET1_S4_cj, symObjAddr: 0x47FC, symBinAddr: 0xF9C4, symSize: 0xEC }
  - { offsetInCU: 0xBF74, offset: 0x3EBD7, size: 0x8, addend: 0x0, symName: __ZN3fmt3v106detail15write_codepointILm8EcNS0_8appenderEEET1_S4_cj, symObjAddr: 0x48E8, symBinAddr: 0xFAB0, symSize: 0x118 }
  - { offsetInCU: 0xC2D6, offset: 0x3EF39, size: 0x8, addend: 0x0, symName: __ZN3fmt3v106detail15write_nonfiniteIcNS0_8appenderEEET0_S4_bNS0_12format_specsIT_EERKNS1_11float_specsE, symObjAddr: 0x4B68, symBinAddr: 0xFD30, symSize: 0x9C }
  - { offsetInCU: 0xC41B, offset: 0x3F07E, size: 0x8, addend: 0x0, symName: __ZN3fmt3v106detail14do_write_floatINS0_8appenderENS1_9dragonbox10decimal_fpIfEEcNS1_14digit_groupingIcEEEET_S9_RKT0_RKNS0_12format_specsIT1_EENS1_11float_specsENS1_10locale_refE, symObjAddr: 0x4D14, symBinAddr: 0xFEDC, symSize: 0x404 }
  - { offsetInCU: 0xCC13, offset: 0x3F876, size: 0x8, addend: 0x0, symName: __ZN3fmt3v106detail12write_paddedILNS0_5align4typeE1ENS0_8appenderEcRZNS1_15write_nonfiniteIcS5_EET0_S7_bNS0_12format_specsIT_EERKNS1_11float_specsEEUlS5_E_EES7_S7_RKNS8_IT1_EEmmOT2_, symObjAddr: 0x4C04, symBinAddr: 0xFDCC, symSize: 0x110 }
  - { offsetInCU: 0xCE0B, offset: 0x3FA6E, size: 0x8, addend: 0x0, symName: __ZN3fmt3v106detail14do_write_floatINS0_8appenderENS1_9dragonbox10decimal_fpIfEEcNS1_14digit_groupingIcEEEET_S9_RKT0_RKNS0_12format_specsIT1_EENS1_11float_specsENS1_10locale_refE, symObjAddr: 0x4D14, symBinAddr: 0xFEDC, symSize: 0x404 }
  - { offsetInCU: 0xD185, offset: 0x3FDE8, size: 0x8, addend: 0x0, symName: __ZN3fmt3v106detail12write_paddedILNS0_5align4typeE2ENS0_8appenderEcRZNS1_14do_write_floatIS5_NS1_9dragonbox10decimal_fpIfEEcNS1_14digit_groupingIcEEEET_SC_RKT0_RKNS0_12format_specsIT1_EENS1_11float_specsENS1_10locale_refEEUlS5_E1_EESD_SD_SK_mmOT2_, symObjAddr: 0x5DD4, symBinAddr: 0x10F9C, symSize: 0x138 }
  - { offsetInCU: 0xD35C, offset: 0x3FFBF, size: 0x8, addend: 0x0, symName: __ZN3fmt3v106detail17write_significandINS0_8appenderEcjNS1_14digit_groupingIcEEEET_S6_T1_iiT0_RKT2_, symObjAddr: 0x5F0C, symBinAddr: 0x110D4, symSize: 0x2C0 }
  - { offsetInCU: 0xD393, offset: 0x3FFF6, size: 0x8, addend: 0x0, symName: __ZN3fmt3v106detail12write_paddedILNS0_5align4typeE2ENS0_8appenderEcRZNS1_14do_write_floatIS5_NS1_9dragonbox10decimal_fpIfEEcNS1_14digit_groupingIcEEEET_SC_RKT0_RKNS0_12format_specsIT1_EENS1_11float_specsENS1_10locale_refEEUlS5_E_EESD_SD_SK_mmOT2_, symObjAddr: 0x539C, symBinAddr: 0x10564, symSize: 0xB0 }
  - { offsetInCU: 0xD4B2, offset: 0x40115, size: 0x8, addend: 0x0, symName: __ZN3fmt3v106detail6fill_nINS0_8appenderEicEET_S4_T0_RKT1_, symObjAddr: 0x544C, symBinAddr: 0x10614, symSize: 0x78 }
  - { offsetInCU: 0xD4E9, offset: 0x4014C, size: 0x8, addend: 0x0, symName: __ZN3fmt3v106detail12write_paddedILNS0_5align4typeE2ENS0_8appenderEcRZNS1_14do_write_floatIS5_NS1_9dragonbox10decimal_fpIfEEcNS1_14digit_groupingIcEEEET_SC_RKT0_RKNS0_12format_specsIT1_EENS1_11float_specsENS1_10locale_refEEUlS5_E0_EESD_SD_SK_mmOT2_, symObjAddr: 0x586C, symBinAddr: 0x10A34, symSize: 0xB0 }
  - { offsetInCU: 0xD608, offset: 0x4026B, size: 0x8, addend: 0x0, symName: __ZZN3fmt3v106detail14do_write_floatINS0_8appenderENS1_9dragonbox10decimal_fpIfEEcNS1_14digit_groupingIcEEEET_S9_RKT0_RKNS0_12format_specsIT1_EENS1_11float_specsENS1_10locale_refEENKUlS3_E0_clES3_, symObjAddr: 0x591C, symBinAddr: 0x10AE4, symSize: 0x108 }
  - { offsetInCU: 0xD63F, offset: 0x402A2, size: 0x8, addend: 0x0, symName: __ZN3fmt3v106detail12write_paddedILNS0_5align4typeE2ENS0_8appenderEcRZNS1_14do_write_floatIS5_NS1_9dragonbox10decimal_fpIfEEcNS1_14digit_groupingIcEEEET_SC_RKT0_RKNS0_12format_specsIT1_EENS1_11float_specsENS1_10locale_refEEUlS5_E2_EESD_SD_SK_mmOT2_, symObjAddr: 0x61CC, symBinAddr: 0x11394, symSize: 0xB0 }
  - { offsetInCU: 0xD75E, offset: 0x403C1, size: 0x8, addend: 0x0, symName: __ZZN3fmt3v106detail14do_write_floatINS0_8appenderENS1_9dragonbox10decimal_fpIfEEcNS1_14digit_groupingIcEEEET_S9_RKT0_RKNS0_12format_specsIT1_EENS1_11float_specsENS1_10locale_refEENKUlS3_E2_clES3_, symObjAddr: 0x627C, symBinAddr: 0x11444, symSize: 0x174 }
  - { offsetInCU: 0xD8A8, offset: 0x4050B, size: 0x8, addend: 0x0, symName: __ZN3fmt3v106detail6fill_nINS0_8appenderEicEET_S4_T0_RKT1_, symObjAddr: 0x544C, symBinAddr: 0x10614, symSize: 0x78 }
  - { offsetInCU: 0xD9A8, offset: 0x4060B, size: 0x8, addend: 0x0, symName: __ZN3fmt3v106detail14write_exponentIcNS0_8appenderEEET0_iS4_, symObjAddr: 0x54C4, symBinAddr: 0x1068C, symSize: 0x1F0 }
  - { offsetInCU: 0xDCC1, offset: 0x40924, size: 0x8, addend: 0x0, symName: __ZN3fmt3v106detail14digit_groupingIcEC2ENS1_10locale_refEb, symObjAddr: 0x56B4, symBinAddr: 0x1087C, symSize: 0x124 }
  - { offsetInCU: 0xDD51, offset: 0x409B4, size: 0x8, addend: 0x0, symName: __ZN3fmt3v106detail17write_significandIcNS0_8appenderEjNS1_14digit_groupingIcEEEET0_S6_T1_iiRKT2_, symObjAddr: 0x5A24, symBinAddr: 0x10BEC, symSize: 0x158 }
  - { offsetInCU: 0xE51B, offset: 0x4117E, size: 0x8, addend: 0x0, symName: __ZN3fmt3v106detail17write_significandINS0_8appenderEcjNS1_14digit_groupingIcEEEET_S6_T1_iiT0_RKT2_, symObjAddr: 0x5F0C, symBinAddr: 0x110D4, symSize: 0x2C0 }
  - { offsetInCU: 0xEC21, offset: 0x41884, size: 0x8, addend: 0x0, symName: __ZN3fmt3v106detail14do_write_floatINS0_8appenderENS1_9dragonbox10decimal_fpIdEEcNS1_14digit_groupingIcEEEET_S9_RKT0_RKNS0_12format_specsIT1_EENS1_11float_specsENS1_10locale_refE, symObjAddr: 0x6490, symBinAddr: 0x11658, symSize: 0x418 }
  - { offsetInCU: 0xF56C, offset: 0x421CF, size: 0x8, addend: 0x0, symName: __ZN3fmt3v106detail12write_paddedILNS0_5align4typeE2ENS0_8appenderEcRZNS1_14do_write_floatIS5_NS1_9dragonbox10decimal_fpIdEEcNS1_14digit_groupingIcEEEET_SC_RKT0_RKNS0_12format_specsIT1_EENS1_11float_specsENS1_10locale_refEEUlS5_E1_EESD_SD_SK_mmOT2_, symObjAddr: 0x6E54, symBinAddr: 0x1201C, symSize: 0x138 }
  - { offsetInCU: 0xF743, offset: 0x423A6, size: 0x8, addend: 0x0, symName: __ZN3fmt3v106detail17write_significandINS0_8appenderEcyNS1_14digit_groupingIcEEEET_S6_T1_iiT0_RKT2_, symObjAddr: 0x6F8C, symBinAddr: 0x12154, symSize: 0x2D8 }
  - { offsetInCU: 0xF77A, offset: 0x423DD, size: 0x8, addend: 0x0, symName: __ZN3fmt3v106detail12write_paddedILNS0_5align4typeE2ENS0_8appenderEcRZNS1_14do_write_floatIS5_NS1_9dragonbox10decimal_fpIdEEcNS1_14digit_groupingIcEEEET_SC_RKT0_RKNS0_12format_specsIT1_EENS1_11float_specsENS1_10locale_refEEUlS5_E_EESD_SD_SK_mmOT2_, symObjAddr: 0x6A94, symBinAddr: 0x11C5C, symSize: 0xB0 }
  - { offsetInCU: 0xF899, offset: 0x424FC, size: 0x8, addend: 0x0, symName: __ZN3fmt3v106detail12write_paddedILNS0_5align4typeE2ENS0_8appenderEcRZNS1_14do_write_floatIS5_NS1_9dragonbox10decimal_fpIdEEcNS1_14digit_groupingIcEEEET_SC_RKT0_RKNS0_12format_specsIT1_EENS1_11float_specsENS1_10locale_refEEUlS5_E0_EESD_SD_SK_mmOT2_, symObjAddr: 0x6B44, symBinAddr: 0x11D0C, symSize: 0xB0 }
  - { offsetInCU: 0xF8D0, offset: 0x42533, size: 0x8, addend: 0x0, symName: __ZN3fmt3v106detail12write_paddedILNS0_5align4typeE2ENS0_8appenderEcRZNS1_14do_write_floatIS5_NS1_9dragonbox10decimal_fpIdEEcNS1_14digit_groupingIcEEEET_SC_RKT0_RKNS0_12format_specsIT1_EENS1_11float_specsENS1_10locale_refEEUlS5_E0_EESD_SD_SK_mmOT2_, symObjAddr: 0x6B44, symBinAddr: 0x11D0C, symSize: 0xB0 }
  - { offsetInCU: 0xF9EF, offset: 0x42652, size: 0x8, addend: 0x0, symName: __ZZN3fmt3v106detail14do_write_floatINS0_8appenderENS1_9dragonbox10decimal_fpIdEEcNS1_14digit_groupingIcEEEET_S9_RKT0_RKNS0_12format_specsIT1_EENS1_11float_specsENS1_10locale_refEENKUlS3_E0_clES3_, symObjAddr: 0x6BF4, symBinAddr: 0x11DBC, symSize: 0x108 }
  - { offsetInCU: 0xFA26, offset: 0x42689, size: 0x8, addend: 0x0, symName: __ZN3fmt3v106detail12write_paddedILNS0_5align4typeE2ENS0_8appenderEcRZNS1_14do_write_floatIS5_NS1_9dragonbox10decimal_fpIdEEcNS1_14digit_groupingIcEEEET_SC_RKT0_RKNS0_12format_specsIT1_EENS1_11float_specsENS1_10locale_refEEUlS5_E2_EESD_SD_SK_mmOT2_, symObjAddr: 0x7264, symBinAddr: 0x1242C, symSize: 0xB0 }
  - { offsetInCU: 0xFB45, offset: 0x427A8, size: 0x8, addend: 0x0, symName: __ZZN3fmt3v106detail14do_write_floatINS0_8appenderENS1_9dragonbox10decimal_fpIdEEcNS1_14digit_groupingIcEEEET_S9_RKT0_RKNS0_12format_specsIT1_EENS1_11float_specsENS1_10locale_refEENKUlS3_E2_clES3_, symObjAddr: 0x7314, symBinAddr: 0x124DC, symSize: 0x174 }
  - { offsetInCU: 0xFC8F, offset: 0x428F2, size: 0x8, addend: 0x0, symName: __ZN3fmt3v106detail17write_significandIcNS0_8appenderEyNS1_14digit_groupingIcEEEET0_S6_T1_iiRKT2_, symObjAddr: 0x6CFC, symBinAddr: 0x11EC4, symSize: 0x158 }
  - { offsetInCU: 0x10239, offset: 0x42E9C, size: 0x8, addend: 0x0, symName: __ZN3fmt3v106detail17write_significandINS0_8appenderEcyNS1_14digit_groupingIcEEEET_S6_T1_iiT0_RKT2_, symObjAddr: 0x6F8C, symBinAddr: 0x12154, symSize: 0x2D8 }
  - { offsetInCU: 0x109F3, offset: 0x43656, size: 0x8, addend: 0x0, symName: __ZN3fmt3v106detail12write_paddedILNS0_5align4typeE2ENS0_8appenderEcRZNS1_9write_ptrIcS5_mEET0_S7_T1_PKNS0_12format_specsIT_EEEUlS5_E_EES7_S7_RKNS9_IS8_EEmmOT2_, symObjAddr: 0x7790, symBinAddr: 0x12958, symSize: 0xB0 }
  - { offsetInCU: 0x10B12, offset: 0x43775, size: 0x8, addend: 0x0, symName: __ZZN3fmt3v106detail10vformat_toIcEEvRNS1_6bufferIT_EENS0_17basic_string_viewIS4_EENS1_12vformat_argsIS4_E4typeENS1_10locale_refEEN14format_handler7on_textEPKcSF_, symObjAddr: 0x7840, symBinAddr: 0x12A08, symSize: 0x54 }
  - { offsetInCU: 0x10CA2, offset: 0x43905, size: 0x8, addend: 0x0, symName: __ZN3fmt3v106detail7get_argINS0_20basic_format_contextINS0_8appenderEcEEiEEDTcldtfp_3argfp0_EERT_T0_, symObjAddr: 0x866C, symBinAddr: 0x13834, symSize: 0x38 }
  - { offsetInCU: 0x10D91, offset: 0x439F4, size: 0x8, addend: 0x0, symName: __ZN3fmt3v106detail15do_parse_arg_idIcRZNS1_23parse_replacement_fieldIcRZNS1_10vformat_toIcEEvRNS1_6bufferIT_EENS0_17basic_string_viewIS6_EENS1_12vformat_argsIS6_E4typeENS1_10locale_refEE14format_handlerEEPKS6_SI_SI_OT0_E10id_adapterEESI_SI_SI_SK_, symObjAddr: 0x86A4, symBinAddr: 0x1386C, symSize: 0x144 }
  - { offsetInCU: 0x10DAE, offset: 0x43A11, size: 0x8, addend: 0x0, symName: __ZN3fmt3v106detail15do_parse_arg_idIcRZNS1_23parse_replacement_fieldIcRZNS1_10vformat_toIcEEvRNS1_6bufferIT_EENS0_17basic_string_viewIS6_EENS1_12vformat_argsIS6_E4typeENS1_10locale_refEE14format_handlerEEPKS6_SI_SI_OT0_E10id_adapterEESI_SI_SI_SK_, symObjAddr: 0x86A4, symBinAddr: 0x1386C, symSize: 0x144 }
  - { offsetInCU: 0x10F1F, offset: 0x43B82, size: 0x8, addend: 0x0, symName: __ZN3fmt3v106detail21parse_nonnegative_intIcEEiRPKT_S5_i, symObjAddr: 0x87E8, symBinAddr: 0x139B0, symSize: 0xC0 }
  - { offsetInCU: 0x116EA, offset: 0x4434D, size: 0x8, addend: 0x0, symName: __ZN3fmt3v106detail18parse_dynamic_specIcEEPKT_S5_S5_RiRNS1_7arg_refIS3_EERNS0_26basic_format_parse_contextIS3_EE, symObjAddr: 0x8B3C, symBinAddr: 0x13D04, symSize: 0x114 }
  - { offsetInCU: 0x11856, offset: 0x444B9, size: 0x8, addend: 0x0, symName: __ZN3fmt3v106detail15parse_precisionIcEEPKT_S5_S5_RiRNS1_7arg_refIS3_EERNS0_26basic_format_parse_contextIS3_EE, symObjAddr: 0x8C50, symBinAddr: 0x13E18, symSize: 0x34 }
  - { offsetInCU: 0x1186A, offset: 0x444CD, size: 0x8, addend: 0x0, symName: __ZN3fmt3v106detail15parse_precisionIcEEPKT_S5_S5_RiRNS1_7arg_refIS3_EERNS0_26basic_format_parse_contextIS3_EE, symObjAddr: 0x8C50, symBinAddr: 0x13E18, symSize: 0x34 }
  - { offsetInCU: 0x118EA, offset: 0x4454D, size: 0x8, addend: 0x0, symName: __ZN3fmt3v106detail6fill_tIcEaSENS0_17basic_string_viewIcEE, symObjAddr: 0x8C84, symBinAddr: 0x13E4C, symSize: 0x50 }
  - { offsetInCU: 0x118FE, offset: 0x44561, size: 0x8, addend: 0x0, symName: __ZN3fmt3v106detail19handle_dynamic_specINS1_13width_checkerENS0_20basic_format_contextINS0_8appenderEcEEEEvRiNS1_7arg_refINT0_9char_typeEEERS9_, symObjAddr: 0x89F4, symBinAddr: 0x13BBC, symSize: 0xA4 }
  - { offsetInCU: 0x11999, offset: 0x445FC, size: 0x8, addend: 0x0, symName: __ZN3fmt3v106detail19handle_dynamic_specINS1_17precision_checkerENS0_20basic_format_contextINS0_8appenderEcEEEEvRiNS1_7arg_refINT0_9char_typeEEERS9_, symObjAddr: 0x8A98, symBinAddr: 0x13C60, symSize: 0xA4 }
  - { offsetInCU: 0x11A34, offset: 0x44697, size: 0x8, addend: 0x0, symName: __ZN3fmt3v106detail18write_int_noinlineIcNS0_8appenderEoEET0_S4_NS1_13write_int_argIT1_EERKNS0_12format_specsIT_EENS1_10locale_refE, symObjAddr: 0x9E50, symBinAddr: 0x15018, symSize: 0x7D4 }
  - { offsetInCU: 0x126D9, offset: 0x4533C, size: 0x8, addend: 0x0, symName: __ZN3fmt3v106detail12write_paddedILNS0_5align4typeE2ENS0_8appenderEcRZNS1_9write_intIS5_cZNS1_9write_intIcS5_oEET0_S8_NS1_13write_int_argIT1_EERKNS0_12format_specsIT_EENS1_10locale_refEEUlS5_E_EESD_SD_ijRKNSC_IS8_EESA_EUlS5_E_EES8_S8_RKNSC_ISA_EEmmOT2_, symObjAddr: 0xA624, symBinAddr: 0x157EC, symSize: 0x168 }
  - { offsetInCU: 0x12706, offset: 0x45369, size: 0x8, addend: 0x0, symName: __ZN3fmt3v106detail5writeIcNS0_8appenderEfLi0EEET0_S4_T1_NS0_12format_specsIT_EENS1_10locale_refE, symObjAddr: 0xB014, symBinAddr: 0x161DC, symSize: 0xA8 }
  - { offsetInCU: 0x12832, offset: 0x45495, size: 0x8, addend: 0x0, symName: __ZN3fmt3v106detail5writeIcNS0_8appenderEdLi0EEET0_S4_T1_NS0_12format_specsIT_EENS1_10locale_refE, symObjAddr: 0xE350, symBinAddr: 0x19518, symSize: 0xA8 }
  - { offsetInCU: 0x1295E, offset: 0x455C1, size: 0x8, addend: 0x0, symName: __ZN3fmt3v106detail5writeIcNS0_8appenderEeLi0EEET0_S4_T1_NS0_12format_specsIT_EENS1_10locale_refE, symObjAddr: 0xE6C8, symBinAddr: 0x19890, symSize: 0xA8 }
  - { offsetInCU: 0x12A8A, offset: 0x456ED, size: 0x8, addend: 0x0, symName: __ZN3fmt3v106detail5writeIcNS0_8appenderEEET0_S4_PKT_RKNS0_12format_specsIS5_EENS1_10locale_refE, symObjAddr: 0xEA40, symBinAddr: 0x19C08, symSize: 0x6C }
  - { offsetInCU: 0x12BA2, offset: 0x45805, size: 0x8, addend: 0x0, symName: __ZN3fmt3v106detail5writeIcNS0_8appenderEEET0_S4_NS0_17basic_string_viewIT_EERKNS0_12format_specsIS6_EE, symObjAddr: 0xEAAC, symBinAddr: 0x19C74, symSize: 0x100 }
  - { offsetInCU: 0x12D4F, offset: 0x459B2, size: 0x8, addend: 0x0, symName: __ZN3fmt3v106detail18write_int_noinlineIcNS0_8appenderEyEET0_S4_NS1_13write_int_argIT1_EERKNS0_12format_specsIT_EENS1_10locale_refE, symObjAddr: 0x8FBC, symBinAddr: 0x14184, symSize: 0x67C }
  - { offsetInCU: 0x13A29, offset: 0x4668C, size: 0x8, addend: 0x0, symName: __ZN3fmt3v106detail12write_paddedILNS0_5align4typeE2ENS0_8appenderEcRZNS1_9write_intIS5_cZNS1_9write_intIcS5_yEET0_S8_NS1_13write_int_argIT1_EERKNS0_12format_specsIT_EENS1_10locale_refEEUlS5_E_EESD_SD_ijRKNSC_IS8_EESA_EUlS5_E_EES8_S8_RKNSC_ISA_EEmmOT2_, symObjAddr: 0x9638, symBinAddr: 0x14800, symSize: 0x164 }
  - { offsetInCU: 0x13A7D, offset: 0x466E0, size: 0x8, addend: 0x0, symName: __ZN3fmt3v106detail21parse_nonnegative_intIcEEiRPKT_S5_i, symObjAddr: 0x87E8, symBinAddr: 0x139B0, symSize: 0xC0 }
  - { offsetInCU: 0x13B1F, offset: 0x46782, size: 0x8, addend: 0x0, symName: __ZZN3fmt3v106detail23parse_replacement_fieldIcRZNS1_10vformat_toIcEEvRNS1_6bufferIT_EENS0_17basic_string_viewIS5_EENS1_12vformat_argsIS5_E4typeENS1_10locale_refEE14format_handlerEEPKS5_SH_SH_OT0_EN10id_adapter7on_nameENS8_IcEE, symObjAddr: 0x88A8, symBinAddr: 0x13A70, symSize: 0x3C }
  - { offsetInCU: 0x13B3A, offset: 0x4679D, size: 0x8, addend: 0x0, symName: __ZN3fmt3v106detail7get_argINS0_20basic_format_contextINS0_8appenderEcEENS0_17basic_string_viewIcEEEEDTcldtfp_3argfp0_EERT_T0_, symObjAddr: 0x8EB0, symBinAddr: 0x14078, symSize: 0x38 }
  - { offsetInCU: 0x13C25, offset: 0x46888, size: 0x8, addend: 0x0, symName: __ZNK3fmt3v1017basic_format_argsINS0_20basic_format_contextINS0_8appenderEcEEE3getIcEENS0_16basic_format_argIS4_EENS0_17basic_string_viewIT_EE, symObjAddr: 0x8EE8, symBinAddr: 0x140B0, symSize: 0x44 }
  - { offsetInCU: 0x13C42, offset: 0x468A5, size: 0x8, addend: 0x0, symName: __ZN3fmt3v106detail16get_dynamic_specINS1_13width_checkerENS0_16basic_format_argINS0_20basic_format_contextINS0_8appenderEcEEEENS1_13error_handlerEEEiT0_T1_, symObjAddr: 0x8E20, symBinAddr: 0x13FE8, symSize: 0x90 }
  - { offsetInCU: 0x13D33, offset: 0x46996, size: 0x8, addend: 0x0, symName: __ZN3fmt3v106detail7get_argINS0_20basic_format_contextINS0_8appenderEcEENS0_17basic_string_viewIcEEEEDTcldtfp_3argfp0_EERT_T0_, symObjAddr: 0x8EB0, symBinAddr: 0x14078, symSize: 0x38 }
  - { offsetInCU: 0x13D5A, offset: 0x469BD, size: 0x8, addend: 0x0, symName: __ZN3fmt3v106detail16get_dynamic_specINS1_17precision_checkerENS0_16basic_format_argINS0_20basic_format_contextINS0_8appenderEcEEEENS1_13error_handlerEEEiT0_T1_, symObjAddr: 0x8F2C, symBinAddr: 0x140F4, symSize: 0x90 }
  - { offsetInCU: 0x13E4B, offset: 0x46AAE, size: 0x8, addend: 0x0, symName: __ZN3fmt3v106detail18write_int_noinlineIcNS0_8appenderEyEET0_S4_NS1_13write_int_argIT1_EERKNS0_12format_specsIT_EENS1_10locale_refE, symObjAddr: 0x8FBC, symBinAddr: 0x14184, symSize: 0x67C }
  - { offsetInCU: 0x13EC6, offset: 0x46B29, size: 0x8, addend: 0x0, symName: __ZN3fmt3v106detail15do_parse_arg_idIcRNS1_23dynamic_spec_id_handlerIcEEEEPKT_S8_S8_OT0_, symObjAddr: 0x8CD4, symBinAddr: 0x13E9C, symSize: 0x14C }
  - { offsetInCU: 0x14017, offset: 0x46C7A, size: 0x8, addend: 0x0, symName: __ZN3fmt3v106detail16get_dynamic_specINS1_13width_checkerENS0_16basic_format_argINS0_20basic_format_contextINS0_8appenderEcEEEENS1_13error_handlerEEEiT0_T1_, symObjAddr: 0x8E20, symBinAddr: 0x13FE8, symSize: 0x90 }
  - { offsetInCU: 0x14B04, offset: 0x47767, size: 0x8, addend: 0x0, symName: __ZN3fmt3v106detail12write_paddedILNS0_5align4typeE2ENS0_8appenderEcRZNS1_9write_intIS5_cZNS1_9write_intIcS5_yEET0_S8_NS1_13write_int_argIT1_EERKNS0_12format_specsIT_EENS1_10locale_refEEUlS5_E_EESD_SD_ijRKNSC_IS8_EESA_EUlS5_E_EES8_S8_RKNSC_ISA_EEmmOT2_, symObjAddr: 0x9638, symBinAddr: 0x14800, symSize: 0x164 }
  - { offsetInCU: 0x14D9F, offset: 0x47A02, size: 0x8, addend: 0x0, symName: __ZN3fmt3v106detail12write_paddedILNS0_5align4typeE2ENS0_8appenderEcRZNS1_9write_intIS5_cZNS1_9write_intIcS5_yEET0_S8_NS1_13write_int_argIT1_EERKNS0_12format_specsIT_EENS1_10locale_refEEUlS5_E0_EESD_SD_ijRKNSC_IS8_EESA_EUlS5_E_EES8_S8_RKNSC_ISA_EEmmOT2_, symObjAddr: 0x979C, symBinAddr: 0x14964, symSize: 0xB0 }
  - { offsetInCU: 0x14EBE, offset: 0x47B21, size: 0x8, addend: 0x0, symName: __ZZN3fmt3v106detail9write_intINS0_8appenderEcZNS1_9write_intIcS3_yEET0_S5_NS1_13write_int_argIT1_EERKNS0_12format_specsIT_EENS1_10locale_refEEUlS3_E0_EESA_SA_ijRKNS9_IS5_EES7_ENKUlS3_E_clES3_, symObjAddr: 0x984C, symBinAddr: 0x14A14, symSize: 0x1AC }
  - { offsetInCU: 0x14EF5, offset: 0x47B58, size: 0x8, addend: 0x0, symName: __ZN3fmt3v106detail12write_paddedILNS0_5align4typeE2ENS0_8appenderEcRZNS1_9write_intIS5_cZNS1_9write_intIcS5_yEET0_S8_NS1_13write_int_argIT1_EERKNS0_12format_specsIT_EENS1_10locale_refEEUlS5_E1_EESD_SD_ijRKNSC_IS8_EESA_EUlS5_E_EES8_S8_RKNSC_ISA_EEmmOT2_, symObjAddr: 0x99F8, symBinAddr: 0x14BC0, symSize: 0xB0 }
  - { offsetInCU: 0x15014, offset: 0x47C77, size: 0x8, addend: 0x0, symName: __ZZN3fmt3v106detail9write_intINS0_8appenderEcZNS1_9write_intIcS3_yEET0_S5_NS1_13write_int_argIT1_EERKNS0_12format_specsIT_EENS1_10locale_refEEUlS3_E1_EESA_SA_ijRKNS9_IS5_EES7_ENKUlS3_E_clES3_, symObjAddr: 0x9AA8, symBinAddr: 0x14C70, symSize: 0x180 }
  - { offsetInCU: 0x1504B, offset: 0x47CAE, size: 0x8, addend: 0x0, symName: __ZN3fmt3v106detail12write_paddedILNS0_5align4typeE2ENS0_8appenderEcRZNS1_9write_intIS5_cZNS1_9write_intIcS5_yEET0_S8_NS1_13write_int_argIT1_EERKNS0_12format_specsIT_EENS1_10locale_refEEUlS5_E2_EESD_SD_ijRKNSC_IS8_EESA_EUlS5_E_EES8_S8_RKNSC_ISA_EEmmOT2_, symObjAddr: 0x9C28, symBinAddr: 0x14DF0, symSize: 0xB0 }
  - { offsetInCU: 0x1516A, offset: 0x47DCD, size: 0x8, addend: 0x0, symName: __ZZN3fmt3v106detail9write_intINS0_8appenderEcZNS1_9write_intIcS3_yEET0_S5_NS1_13write_int_argIT1_EERKNS0_12format_specsIT_EENS1_10locale_refEEUlS3_E2_EESA_SA_ijRKNS9_IS5_EES7_ENKUlS3_E_clES3_, symObjAddr: 0x9CD8, symBinAddr: 0x14EA0, symSize: 0x178 }
  - { offsetInCU: 0x15C71, offset: 0x488D4, size: 0x8, addend: 0x0, symName: __ZN3fmt3v106detail12write_paddedILNS0_5align4typeE2ENS0_8appenderEcRZNS1_9write_intIS5_cZNS1_9write_intIcS5_oEET0_S8_NS1_13write_int_argIT1_EERKNS0_12format_specsIT_EENS1_10locale_refEEUlS5_E0_EESD_SD_ijRKNSC_IS8_EESA_EUlS5_E_EES8_S8_RKNSC_ISA_EEmmOT2_, symObjAddr: 0xA78C, symBinAddr: 0x15954, symSize: 0xB0 }
  - { offsetInCU: 0x15D90, offset: 0x489F3, size: 0x8, addend: 0x0, symName: __ZZN3fmt3v106detail9write_intINS0_8appenderEcZNS1_9write_intIcS3_oEET0_S5_NS1_13write_int_argIT1_EERKNS0_12format_specsIT_EENS1_10locale_refEEUlS3_E0_EESA_SA_ijRKNS9_IS5_EES7_ENKUlS3_E_clES3_, symObjAddr: 0xA83C, symBinAddr: 0x15A04, symSize: 0x1CC }
  - { offsetInCU: 0x15DC7, offset: 0x48A2A, size: 0x8, addend: 0x0, symName: __ZN3fmt3v106detail12write_paddedILNS0_5align4typeE2ENS0_8appenderEcRZNS1_9write_intIS5_cZNS1_9write_intIcS5_oEET0_S8_NS1_13write_int_argIT1_EERKNS0_12format_specsIT_EENS1_10locale_refEEUlS5_E1_EESD_SD_ijRKNSC_IS8_EESA_EUlS5_E_EES8_S8_RKNSC_ISA_EEmmOT2_, symObjAddr: 0xAA08, symBinAddr: 0x15BD0, symSize: 0xB0 }
  - { offsetInCU: 0x15EE6, offset: 0x48B49, size: 0x8, addend: 0x0, symName: __ZZN3fmt3v106detail9write_intINS0_8appenderEcZNS1_9write_intIcS3_oEET0_S5_NS1_13write_int_argIT1_EERKNS0_12format_specsIT_EENS1_10locale_refEEUlS3_E1_EESA_SA_ijRKNS9_IS5_EES7_ENKUlS3_E_clES3_, symObjAddr: 0xAAB8, symBinAddr: 0x15C80, symSize: 0x1A4 }
  - { offsetInCU: 0x15F1D, offset: 0x48B80, size: 0x8, addend: 0x0, symName: __ZN3fmt3v106detail12write_paddedILNS0_5align4typeE2ENS0_8appenderEcRZNS1_9write_intIS5_cZNS1_9write_intIcS5_oEET0_S8_NS1_13write_int_argIT1_EERKNS0_12format_specsIT_EENS1_10locale_refEEUlS5_E2_EESD_SD_ijRKNSC_IS8_EESA_EUlS5_E_EES8_S8_RKNSC_ISA_EEmmOT2_, symObjAddr: 0xAC5C, symBinAddr: 0x15E24, symSize: 0xB0 }
  - { offsetInCU: 0x1603C, offset: 0x48C9F, size: 0x8, addend: 0x0, symName: __ZZN3fmt3v106detail9write_intINS0_8appenderEcZNS1_9write_intIcS3_oEET0_S5_NS1_13write_int_argIT1_EERKNS0_12format_specsIT_EENS1_10locale_refEEUlS3_E2_EESA_SA_ijRKNS9_IS5_EES7_ENKUlS3_E_clES3_, symObjAddr: 0xAD0C, symBinAddr: 0x15ED4, symSize: 0x198 }
  - { offsetInCU: 0x16073, offset: 0x48CD6, size: 0x8, addend: 0x0, symName: __ZN3fmt3v106detail12write_paddedILNS0_5align4typeE2ENS0_8appenderEcRZNS1_9write_intIS5_cZNS1_9write_intIcS5_oEET0_S8_NS1_13write_int_argIT1_EERKNS0_12format_specsIT_EENS1_10locale_refEEUlS5_E_EESD_SD_ijRKNSC_IS8_EESA_EUlS5_E_EES8_S8_RKNSC_ISA_EEmmOT2_, symObjAddr: 0xA624, symBinAddr: 0x157EC, symSize: 0x168 }
  - { offsetInCU: 0x1646A, offset: 0x490CD, size: 0x8, addend: 0x0, symName: __ZN3fmt3v106detail16check_char_specsIcEEbRKNS0_12format_specsIT_EE, symObjAddr: 0xAFA8, symBinAddr: 0x16170, symSize: 0x6C }
  - { offsetInCU: 0x1649C, offset: 0x490FF, size: 0x8, addend: 0x0, symName: __ZN3fmt3v106detail5writeIcNS0_8appenderEfLi0EEET0_S4_T1_NS0_12format_specsIT_EENS1_10locale_refE, symObjAddr: 0xB014, symBinAddr: 0x161DC, symSize: 0xA8 }
  - { offsetInCU: 0x164EC, offset: 0x4914F, size: 0x8, addend: 0x0, symName: __ZN3fmt3v106detail11write_floatIcNS0_8appenderEfEET0_S4_T1_NS0_12format_specsIT_EENS1_10locale_refE, symObjAddr: 0xB0BC, symBinAddr: 0x16284, symSize: 0x2D8 }
  - { offsetInCU: 0x16D47, offset: 0x499AA, size: 0x8, addend: 0x0, symName: __ZN3fmt3v106detail21parse_float_type_specINS1_13error_handlerEcEENS1_11float_specsERKNS0_12format_specsIT0_EEOT_, symObjAddr: 0xB394, symBinAddr: 0x1655C, symSize: 0xBC }
  - { offsetInCU: 0x16DB8, offset: 0x49A1B, size: 0x8, addend: 0x0, symName: __ZN3fmt3v106detail15format_hexfloatIdLi0EEEvT_iNS1_11float_specsERNS1_6bufferIcEE, symObjAddr: 0xB450, symBinAddr: 0x16618, symSize: 0x3B8 }
  - { offsetInCU: 0x16DD5, offset: 0x49A38, size: 0x8, addend: 0x0, symName: __ZN3fmt3v106detail12write_paddedILNS0_5align4typeE2ENS0_8appenderEcRZNS1_11write_bytesILS4_2EcS5_EET1_S7_NS0_17basic_string_viewIcEERKNS0_12format_specsIT0_EEEUlS5_E_EESB_SB_RKNSA_IS7_EEmmOT2_, symObjAddr: 0xBFDC, symBinAddr: 0x171A4, symSize: 0xC8 }
  - { offsetInCU: 0x16F75, offset: 0x49BD8, size: 0x8, addend: 0x0, symName: __ZN3fmt3v106detail13format_dragonENS1_8basic_fpIoEEjiRNS1_6bufferIcEERi, symObjAddr: 0xC0A4, symBinAddr: 0x1726C, symSize: 0x6F8 }
  - { offsetInCU: 0x16FAC, offset: 0x49C0F, size: 0x8, addend: 0x0, symName: __ZN3fmt3v106detail12format_floatIdEEiT_iNS1_11float_specsERNS1_6bufferIcEE, symObjAddr: 0xB808, symBinAddr: 0x169D0, symSize: 0x7D4 }
  - { offsetInCU: 0x17A7A, offset: 0x4A6DD, size: 0x8, addend: 0x0, symName: __ZN3fmt3v106detail14do_write_floatINS0_8appenderENS1_14big_decimal_fpEcNS1_14digit_groupingIcEEEET_S7_RKT0_RKNS0_12format_specsIT1_EENS1_11float_specsENS1_10locale_refE, symObjAddr: 0xD50C, symBinAddr: 0x186D4, symSize: 0x4C0 }
  - { offsetInCU: 0x18534, offset: 0x4B197, size: 0x8, addend: 0x0, symName: __ZN3fmt3v106detail13format_dragonENS1_8basic_fpIoEEjiRNS1_6bufferIcEERi, symObjAddr: 0xC0A4, symBinAddr: 0x1726C, symSize: 0x6F8 }
  - { offsetInCU: 0x19CCA, offset: 0x4C92D, size: 0x8, addend: 0x0, symName: __ZN3fmt3v106detail11add_compareERKNS1_6bigintES4_S4_, symObjAddr: 0xCA1C, symBinAddr: 0x17BE4, symSize: 0x150 }
  - { offsetInCU: 0x1A046, offset: 0x4CCA9, size: 0x8, addend: 0x0, symName: __ZN3fmt3v106detail6bigint13divmod_assignERKS2_, symObjAddr: 0xCB6C, symBinAddr: 0x17D34, symSize: 0xB4 }
  - { offsetInCU: 0x1A058, offset: 0x4CCBB, size: 0x8, addend: 0x0, symName: __ZN3fmt3v106detail7compareERKNS1_6bigintES4_, symObjAddr: 0xCC20, symBinAddr: 0x17DE8, symSize: 0xD4 }
  - { offsetInCU: 0x1A1EC, offset: 0x4CE4F, size: 0x8, addend: 0x0, symName: __ZN3fmt3v1019basic_memory_bufferIjLm32ENSt3__19allocatorIjEEE4growEm, symObjAddr: 0xCCF4, symBinAddr: 0x17EBC, symSize: 0xAC }
  - { offsetInCU: 0x1A45A, offset: 0x4D0BD, size: 0x8, addend: 0x0, symName: __ZN3fmt3v106detail12write_paddedILNS0_5align4typeE2ENS0_8appenderEcRZNS1_14do_write_floatIS5_NS1_14big_decimal_fpEcNS1_14digit_groupingIcEEEET_SA_RKT0_RKNS0_12format_specsIT1_EENS1_11float_specsENS1_10locale_refEEUlS5_E1_EESB_SB_SI_mmOT2_, symObjAddr: 0xDEDC, symBinAddr: 0x190A4, symSize: 0x138 }
  - { offsetInCU: 0x1A631, offset: 0x4D294, size: 0x8, addend: 0x0, symName: __ZN3fmt3v106detail17write_significandINS0_8appenderEcPKcNS1_14digit_groupingIcEEEET_S8_T1_iiT0_RKT2_, symObjAddr: 0xE014, symBinAddr: 0x191DC, symSize: 0x164 }
  - { offsetInCU: 0x1A668, offset: 0x4D2CB, size: 0x8, addend: 0x0, symName: __ZN3fmt3v106detail12write_paddedILNS0_5align4typeE2ENS0_8appenderEcRZNS1_14do_write_floatIS5_NS1_14big_decimal_fpEcNS1_14digit_groupingIcEEEET_SA_RKT0_RKNS0_12format_specsIT1_EENS1_11float_specsENS1_10locale_refEEUlS5_E_EESB_SB_SI_mmOT2_, symObjAddr: 0xD9CC, symBinAddr: 0x18B94, symSize: 0x174 }
  - { offsetInCU: 0x1A8CB, offset: 0x4D52E, size: 0x8, addend: 0x0, symName: __ZN3fmt3v106detail17write_significandINS0_8appenderEcEET_S4_PKciiT0_, symObjAddr: 0xDB40, symBinAddr: 0x18D08, symSize: 0xA8 }
  - { offsetInCU: 0x1A902, offset: 0x4D565, size: 0x8, addend: 0x0, symName: __ZN3fmt3v106detail17write_significandINS0_8appenderEcEET_S4_PKciiT0_, symObjAddr: 0xDB40, symBinAddr: 0x18D08, symSize: 0xA8 }
  - { offsetInCU: 0x1AA29, offset: 0x4D68C, size: 0x8, addend: 0x0, symName: __ZN3fmt3v106detail12write_paddedILNS0_5align4typeE2ENS0_8appenderEcRZNS1_14do_write_floatIS5_NS1_14big_decimal_fpEcNS1_14digit_groupingIcEEEET_SA_RKT0_RKNS0_12format_specsIT1_EENS1_11float_specsENS1_10locale_refEEUlS5_E0_EESB_SB_SI_mmOT2_, symObjAddr: 0xDBE8, symBinAddr: 0x18DB0, symSize: 0xB0 }
  - { offsetInCU: 0x1AB48, offset: 0x4D7AB, size: 0x8, addend: 0x0, symName: __ZZN3fmt3v106detail14do_write_floatINS0_8appenderENS1_14big_decimal_fpEcNS1_14digit_groupingIcEEEET_S7_RKT0_RKNS0_12format_specsIT1_EENS1_11float_specsENS1_10locale_refEENKUlS3_E0_clES3_, symObjAddr: 0xDC98, symBinAddr: 0x18E60, symSize: 0x108 }
  - { offsetInCU: 0x1AB7F, offset: 0x4D7E2, size: 0x8, addend: 0x0, symName: __ZN3fmt3v106detail12write_paddedILNS0_5align4typeE2ENS0_8appenderEcRZNS1_14do_write_floatIS5_NS1_14big_decimal_fpEcNS1_14digit_groupingIcEEEET_SA_RKT0_RKNS0_12format_specsIT1_EENS1_11float_specsENS1_10locale_refEEUlS5_E2_EESB_SB_SI_mmOT2_, symObjAddr: 0xE178, symBinAddr: 0x19340, symSize: 0xB0 }
  - { offsetInCU: 0x1AC9E, offset: 0x4D901, size: 0x8, addend: 0x0, symName: __ZZN3fmt3v106detail14do_write_floatINS0_8appenderENS1_14big_decimal_fpEcNS1_14digit_groupingIcEEEET_S7_RKT0_RKNS0_12format_specsIT1_EENS1_11float_specsENS1_10locale_refEENKUlS3_E2_clES3_, symObjAddr: 0xE228, symBinAddr: 0x193F0, symSize: 0x128 }
  - { offsetInCU: 0x1ACD5, offset: 0x4D938, size: 0x8, addend: 0x0, symName: __ZN3fmt3v106detail17write_significandIcNS0_8appenderEPKcNS1_14digit_groupingIcEEEET0_S8_T1_iiRKT2_, symObjAddr: 0xDDA0, symBinAddr: 0x18F68, symSize: 0x13C }
  - { offsetInCU: 0x1B21A, offset: 0x4DE7D, size: 0x8, addend: 0x0, symName: __ZN3fmt3v106detail17write_significandINS0_8appenderEcPKcNS1_14digit_groupingIcEEEET_S8_T1_iiT0_RKT2_, symObjAddr: 0xE014, symBinAddr: 0x191DC, symSize: 0x164 }
  - { offsetInCU: 0x1B6D2, offset: 0x4E335, size: 0x8, addend: 0x0, symName: __ZN3fmt3v106detail11write_floatIcNS0_8appenderEdEET0_S4_T1_NS0_12format_specsIT_EENS1_10locale_refE, symObjAddr: 0xE3F8, symBinAddr: 0x195C0, symSize: 0x2D0 }
  - { offsetInCU: 0x1BDC1, offset: 0x4EA24, size: 0x8, addend: 0x0, symName: __ZN3fmt3v106detail11write_floatIcNS0_8appenderEeEET0_S4_T1_NS0_12format_specsIT_EENS1_10locale_refE, symObjAddr: 0xE770, symBinAddr: 0x19938, symSize: 0x2D0 }
  - { offsetInCU: 0x1C4FA, offset: 0x4F15D, size: 0x8, addend: 0x0, symName: __ZN3fmt3v106detail20write_escaped_stringIcNS1_17counting_iteratorEEET0_S4_NS0_17basic_string_viewIT_EE, symObjAddr: 0xEBAC, symBinAddr: 0x19D74, symSize: 0xA0 }
  - { offsetInCU: 0x1C692, offset: 0x4F2F5, size: 0x8, addend: 0x0, symName: __ZN3fmt3v106detail12write_paddedILNS0_5align4typeE1ENS0_8appenderEcZNS1_5writeIcS5_EET0_S7_NS0_17basic_string_viewIT_EERKNS0_12format_specsIS9_EEEUlS5_E_EES7_S7_RKNSB_IT1_EEmmOT2_, symObjAddr: 0xEC4C, symBinAddr: 0x19E14, symSize: 0xE4 }
  - { offsetInCU: 0x1C6B6, offset: 0x4F319, size: 0x8, addend: 0x0, symName: __ZN3fmt3v106detail18for_each_codepointIZNS1_13compute_widthENS0_17basic_string_viewIcEEE17count_code_pointsEEvS4_T_, symObjAddr: 0xF168, symBinAddr: 0x1A330, symSize: 0xE4 }
  - { offsetInCU: 0x1C852, offset: 0x4F4B5, size: 0x8, addend: 0x0, symName: __ZZN3fmt3v106detail18for_each_codepointIZNS1_13compute_widthENS0_17basic_string_viewIcEEE17count_code_pointsEEvS4_T_ENKUlPKcS8_E_clES8_S8_, symObjAddr: 0xF24C, symBinAddr: 0x1A414, symSize: 0x130 }
  - { offsetInCU: 0x1C86D, offset: 0x4F4D0, size: 0x8, addend: 0x0, symName: __ZN3fmt3v106detail12write_paddedILNS0_5align4typeE1ENS0_8appenderEcZNS1_5writeIcS5_EET0_S7_NS0_17basic_string_viewIT_EERKNS0_12format_specsIS9_EEEUlS5_E_EES7_S7_RKNSB_IT1_EEmmOT2_, symObjAddr: 0xEC4C, symBinAddr: 0x19E14, symSize: 0xE4 }
  - { offsetInCU: 0x1C9FD, offset: 0x4F660, size: 0x8, addend: 0x0, symName: __ZN3fmt3v106detail16write_escaped_cpINS1_17counting_iteratorEcEET_S4_RKNS1_18find_escape_resultIT0_EE, symObjAddr: 0xED30, symBinAddr: 0x19EF8, symSize: 0x1C4 }
  - { offsetInCU: 0x1CB4F, offset: 0x4F7B2, size: 0x8, addend: 0x0, symName: __ZN3fmt3v106detail18for_each_codepointIZNS1_11find_escapeEPKcS4_EUljNS0_17basic_string_viewIcEEE_EEvS6_T_, symObjAddr: 0xEEF4, symBinAddr: 0x1A0BC, symSize: 0xE4 }
  - { offsetInCU: 0x1CCEB, offset: 0x4F94E, size: 0x8, addend: 0x0, symName: __ZZN3fmt3v106detail18for_each_codepointIZNS1_11find_escapeEPKcS4_EUljNS0_17basic_string_viewIcEEE_EEvS6_T_ENKUlS4_S4_E_clES4_S4_, symObjAddr: 0xEFD8, symBinAddr: 0x1A1A0, symSize: 0x190 }
  - { offsetInCU: 0x1CD06, offset: 0x4F969, size: 0x8, addend: 0x0, symName: __ZN3fmt3v106detail16write_escaped_cpINS1_17counting_iteratorEcEET_S4_RKNS1_18find_escape_resultIT0_EE, symObjAddr: 0xED30, symBinAddr: 0x19EF8, symSize: 0x1C4 }
  - { offsetInCU: 0x1D034, offset: 0x4FC97, size: 0x8, addend: 0x0, symName: __ZN3fmt3v106detail18for_each_codepointIZNS1_11find_escapeEPKcS4_EUljNS0_17basic_string_viewIcEEE_EEvS6_T_, symObjAddr: 0xEEF4, symBinAddr: 0x1A0BC, symSize: 0xE4 }
  - { offsetInCU: 0x1D058, offset: 0x4FCBB, size: 0x8, addend: 0x0, symName: __ZN3fmt3v106detail20write_escaped_stringIcNS0_8appenderEEET0_S4_NS0_17basic_string_viewIT_EE, symObjAddr: 0xF450, symBinAddr: 0x1A618, symSize: 0x110 }
  - { offsetInCU: 0x1D262, offset: 0x4FEC5, size: 0x8, addend: 0x0, symName: __ZN3fmt3v1010vformat_toINS0_8appenderELi0EEET_S3_NS0_17basic_string_viewIcEENS0_17basic_format_argsINS0_20basic_format_contextIS2_cEEEE, symObjAddr: 0xF560, symBinAddr: 0x1A728, symSize: 0xC0 }
  - { offsetInCU: 0x1D43E, offset: 0x500A1, size: 0x8, addend: 0x0, symName: __ZN3fmt3v106detail8copy_strIcPcNS0_8appenderEEET1_T0_S6_S5_, symObjAddr: 0xF660, symBinAddr: 0x1A828, symSize: 0x78 }
  - { offsetInCU: 0x1D511, offset: 0x50174, size: 0x8, addend: 0x0, symName: __ZN3fmt3v106detail9write_intINS0_8appenderEycEET_S4_T0_jRKNS0_12format_specsIT1_EERKNS1_14digit_groupingIS7_EE, symObjAddr: 0x10154, symBinAddr: 0x1B31C, symSize: 0x108 }
  - { offsetInCU: 0x1D6E1, offset: 0x50344, size: 0x8, addend: 0x0, symName: __ZN3fmt3v106detail9write_intINS0_8appenderEocEET_S4_T0_jRKNS0_12format_specsIT1_EERKNS1_14digit_groupingIS7_EE, symObjAddr: 0x10364, symBinAddr: 0x1B52C, symSize: 0x1C4 }
  - { offsetInCU: 0x1D8B3, offset: 0x50516, size: 0x8, addend: 0x0, symName: __ZN3fmt3v106detail12write_paddedILNS0_5align4typeE2ENS0_8appenderEcZNS1_9write_intIS5_ycEET_S7_T0_jRKNS0_12format_specsIT1_EERKNS1_14digit_groupingISA_EEEUlS5_E_EES8_S8_SD_mmOT2_, symObjAddr: 0x1025C, symBinAddr: 0x1B424, symSize: 0x108 }
  - { offsetInCU: 0x1DA9A, offset: 0x506FD, size: 0x8, addend: 0x0, symName: __ZN3fmt3v106detail9write_intINS0_8appenderEocEET_S4_T0_jRKNS0_12format_specsIT1_EERKNS1_14digit_groupingIS7_EE, symObjAddr: 0x10364, symBinAddr: 0x1B52C, symSize: 0x1C4 }
  - { offsetInCU: 0x1DAD1, offset: 0x50734, size: 0x8, addend: 0x0, symName: __ZN3fmt3v106detail12write_paddedILNS0_5align4typeE2ENS0_8appenderEcZNS1_9write_intIS5_ocEET_S7_T0_jRKNS0_12format_specsIT1_EERKNS1_14digit_groupingISA_EEEUlS5_E_EES8_S8_SD_mmOT2_, symObjAddr: 0x10528, symBinAddr: 0x1B6F0, symSize: 0x108 }
  - { offsetInCU: 0x1DCB8, offset: 0x5091B, size: 0x8, addend: 0x0, symName: __ZNSt3__112basic_stringIcNS_11char_traitsIcEENS_9allocatorIcEEEC2B7v160006EPKcm, symObjAddr: 0x10630, symBinAddr: 0x1B7F8, symSize: 0x94 }
  - { offsetInCU: 0x1DD8B, offset: 0x509EE, size: 0x8, addend: 0x0, symName: __ZN3fmt3v1012format_facetINSt3__16localeEE2idE, symObjAddr: 0x12430, symBinAddr: 0x4B148, symSize: 0x0 }
  - { offsetInCU: 0x1EEBB, offset: 0x51B1E, size: 0x8, addend: 0x0, symName: __ZN3fmt3v1010vformat_toINS0_8appenderELi0EEET_S3_NS0_17basic_string_viewIcEENS0_17basic_format_argsINS0_20basic_format_contextIS2_cEEEE, symObjAddr: 0xF560, symBinAddr: 0x1A728, symSize: 0xC0 }
  - { offsetInCU: 0x1F271, offset: 0x51ED4, size: 0x8, addend: 0x0, symName: __ZN3fmt3v1013vsystem_errorEiNS0_17basic_string_viewIcEENS0_17basic_format_argsINS0_20basic_format_contextINS0_8appenderEcEEEE, symObjAddr: 0x694, symBinAddr: 0xB90C, symSize: 0xB4 }
  - { offsetInCU: 0x1F58C, offset: 0x521EF, size: 0x8, addend: 0x0, symName: __ZN3fmt3v107vformatENS0_17basic_string_viewIcEENS0_17basic_format_argsINS0_20basic_format_contextINS0_8appenderEcEEEE, symObjAddr: 0x748, symBinAddr: 0xB9C0, symSize: 0xD0 }
  - { offsetInCU: 0x1FBD5, offset: 0x52838, size: 0x8, addend: 0x0, symName: __ZN3fmt3v1019format_system_errorERNS0_6detail6bufferIcEEiPKc, symObjAddr: 0xA9C, symBinAddr: 0xBD14, symSize: 0xAC }
  - { offsetInCU: 0x1FCFC, offset: 0x5295F, size: 0x8, addend: 0x0, symName: __ZN3fmt3v1019report_system_errorEiPKc, symObjAddr: 0xB8C, symBinAddr: 0xBE04, symSize: 0x14 }
  - { offsetInCU: 0x1FD8F, offset: 0x529F2, size: 0x8, addend: 0x0, symName: __ZN3fmt3v1012system_errorIJEEENSt3__112system_errorEiNS0_19basic_format_stringIcJDpNS0_13type_identityIT_E4typeEEEEDpOS6_, symObjAddr: 0x2564, symBinAddr: 0xD72C, symSize: 0x24 }
  - { offsetInCU: 0x1FE04, offset: 0x52A67, size: 0x8, addend: 0x0, symName: __ZN3fmt3v106vprintEP7__sFILENS0_17basic_string_viewIcEENS0_17basic_format_argsINS0_20basic_format_contextINS0_8appenderEcEEEE, symObjAddr: 0xF9C, symBinAddr: 0xC214, symSize: 0xC0 }
  - { offsetInCU: 0x20122, offset: 0x52D85, size: 0x8, addend: 0x0, symName: __ZN3fmt3v106vprintENS0_17basic_string_viewIcEENS0_17basic_format_argsINS0_20basic_format_contextINS0_8appenderEcEEEE, symObjAddr: 0x105C, symBinAddr: 0xC2D4, symSize: 0x20 }
  - { offsetInCU: 0x20540, offset: 0x531A3, size: 0x8, addend: 0x0, symName: __ZN3fmt3v106detail9dragonbox14cache_accessorIdE16get_cached_powerEi, symObjAddr: 0x81C, symBinAddr: 0xBA94, symSize: 0x130 }
  - { offsetInCU: 0x20560, offset: 0x531C3, size: 0x8, addend: 0x0, symName: __ZZN3fmt3v106detail9dragonbox14cache_accessorIdE16get_cached_powerEiE18pow10_significands, symObjAddr: 0x11558, symBinAddr: 0x3C768, symSize: 0x0 }
  - { offsetInCU: 0x20577, offset: 0x531DA, size: 0x8, addend: 0x0, symName: __ZZN3fmt3v106detail9dragonbox14cache_accessorIdE16get_cached_powerEiE14powers_of_5_64, symObjAddr: 0x116D8, symBinAddr: 0x3C8E8, symSize: 0x0 }
  - { offsetInCU: 0x20710, offset: 0x53373, size: 0x8, addend: 0x0, symName: __ZN3fmt3v106detail13utf8_to_utf16C2ENS0_17basic_string_viewIcEE, symObjAddr: 0x94C, symBinAddr: 0xBBC4, symSize: 0x14C }
  - { offsetInCU: 0x2777E, offset: 0x5A3E1, size: 0x8, addend: 0x0, symName: __ZN3fmt3v106detail6bigint8multiplyIoLi0EEEvT_, symObjAddr: 0xD1B4, symBinAddr: 0x1837C, symSize: 0xE4 }
  - { offsetInCU: 0x29752, offset: 0x5C3B5, size: 0x8, addend: 0x0, symName: __ZN3fmt3v1012format_errorCI1St13runtime_errorEPKc, symObjAddr: 0x84, symBinAddr: 0xB308, symSize: 0x24 }
  - { offsetInCU: 0x297E5, offset: 0x5C448, size: 0x8, addend: 0x0, symName: __ZN3fmt3v1012format_errorD1Ev, symObjAddr: 0xA8, symBinAddr: 0xB32C, symSize: 0x4 }
  - { offsetInCU: 0x29807, offset: 0x5C46A, size: 0x8, addend: 0x0, symName: __ZN3fmt3v1012format_errorD1Ev, symObjAddr: 0xA8, symBinAddr: 0xB32C, symSize: 0x4 }
  - { offsetInCU: 0x29D26, offset: 0x5C989, size: 0x8, addend: 0x0, symName: __ZN3fmt3v1012format_facetINSt3__16localeEEC2ERS3_, symObjAddr: 0xF718, symBinAddr: 0x1A8E0, symSize: 0x140 }
  - { offsetInCU: 0x2A527, offset: 0x5D18A, size: 0x8, addend: 0x0, symName: __ZN3fmt3v1012format_facetINSt3__16localeEED1Ev, symObjAddr: 0x410, symBinAddr: 0xB688, symSize: 0x60 }
  - { offsetInCU: 0x2A8DA, offset: 0x5D53D, size: 0x8, addend: 0x0, symName: __ZNK3fmt3v106detail10locale_ref3getINSt3__16localeEEET_v, symObjAddr: 0x3F8, symBinAddr: 0xB670, symSize: 0x18 }
  - { offsetInCU: 0x2A9A6, offset: 0x5D609, size: 0x8, addend: 0x0, symName: __ZNK3fmt3v1012format_facetINSt3__16localeEE6do_putENS0_8appenderENS0_9loc_valueERKNS0_12format_specsIcEE, symObjAddr: 0x470, symBinAddr: 0xB6E8, symSize: 0x144 }
  - { offsetInCU: 0x2B12C, offset: 0x5DD8F, size: 0x8, addend: 0x0, symName: __ZNSt3__112basic_stringIcNS_11char_traitsIcEENS_9allocatorIcEEE25__init_copy_ctor_externalEPKcm, symObjAddr: 0x20FC, symBinAddr: 0xD34C, symSize: 0x7C }
  - { offsetInCU: 0x2B450, offset: 0x5E0B3, size: 0x8, addend: 0x0, symName: __ZN3fmt3v109loc_value5visitINS0_6detail10loc_writerIcEEEEDTclfp_Li0EEEOT_, symObjAddr: 0x5B4, symBinAddr: 0xB82C, symSize: 0x90 }
  - { offsetInCU: 0x2B504, offset: 0x5E167, size: 0x8, addend: 0x0, symName: __ZN3fmt3v106detail10loc_writerIcED1Ev, symObjAddr: 0x644, symBinAddr: 0xB8BC, symSize: 0x50 }
  - { offsetInCU: 0x2B8C1, offset: 0x5E524, size: 0x8, addend: 0x0, symName: __ZN3fmt3v106detail10loc_writerIcEclIiLi0EEEbT_, symObjAddr: 0xF858, symBinAddr: 0x1AA20, symSize: 0x188 }
  - { offsetInCU: 0x2C2A2, offset: 0x5EF05, size: 0x8, addend: 0x0, symName: __ZN3fmt3v106detail10loc_writerIcEclIjLi0EEEbT_, symObjAddr: 0xF9E0, symBinAddr: 0x1ABA8, symSize: 0x170 }
  - { offsetInCU: 0x2CC87, offset: 0x5F8EA, size: 0x8, addend: 0x0, symName: __ZN3fmt3v106detail10loc_writerIcEclIxLi0EEEbT_, symObjAddr: 0xFB50, symBinAddr: 0x1AD18, symSize: 0x188 }
  - { offsetInCU: 0x2D688, offset: 0x602EB, size: 0x8, addend: 0x0, symName: __ZN3fmt3v106detail10loc_writerIcEclIyLi0EEEbT_, symObjAddr: 0xFCD8, symBinAddr: 0x1AEA0, symSize: 0x170 }
  - { offsetInCU: 0x2E07E, offset: 0x60CE1, size: 0x8, addend: 0x0, symName: __ZN3fmt3v106detail10loc_writerIcEclInLi0EEEbT_, symObjAddr: 0xFE48, symBinAddr: 0x1B010, symSize: 0x194 }
  - { offsetInCU: 0x2EA86, offset: 0x616E9, size: 0x8, addend: 0x0, symName: __ZN3fmt3v106detail10loc_writerIcEclIoLi0EEEbT_, symObjAddr: 0xFFDC, symBinAddr: 0x1B1A4, symSize: 0x178 }
  - { offsetInCU: 0x2F56D, offset: 0x621D0, size: 0x8, addend: 0x0, symName: __ZNSt3__112basic_stringIcNS_11char_traitsIcEENS_9allocatorIcEEEC2B7v160006EPKcm, symObjAddr: 0x10630, symBinAddr: 0x1B7F8, symSize: 0x94 }
  - { offsetInCU: 0x2FB26, offset: 0x62789, size: 0x8, addend: 0x0, symName: __ZN3fmt3v106detail13utf8_to_utf16C1ENS0_17basic_string_viewIcEE, symObjAddr: 0xA98, symBinAddr: 0xBD10, symSize: 0x4 }
  - { offsetInCU: 0x2FB93, offset: 0x627F6, size: 0x8, addend: 0x0, symName: __ZN3fmt3v106detail13utf8_to_utf16C1ENS0_17basic_string_viewIcEE, symObjAddr: 0xA98, symBinAddr: 0xBD10, symSize: 0x4 }
  - { offsetInCU: 0x2FC9B, offset: 0x628FE, size: 0x8, addend: 0x0, symName: __ZN3fmt3v106detail13utf8_to_utf16C2ENS0_17basic_string_viewIcEE, symObjAddr: 0x94C, symBinAddr: 0xBBC4, symSize: 0x14C }
  - { offsetInCU: 0x2FFA1, offset: 0x62C04, size: 0x8, addend: 0x0, symName: '__ZZN3fmt3v106detail18for_each_codepointIZNS1_13utf8_to_utf16C1ENS0_17basic_string_viewIcEEE3$_2EEvS5_T_ENKUlPKcS9_E_clES9_S9_', symObjAddr: 0x22AC, symBinAddr: 0xD474, symSize: 0x23C }
  - { offsetInCU: 0x30778, offset: 0x633DB, size: 0x8, addend: 0x0, symName: __ZZN3fmt3v106detail10vformat_toIcEEvRNS1_6bufferIT_EENS0_17basic_string_viewIS4_EENS1_12vformat_argsIS4_E4typeENS1_10locale_refEEN14format_handler7on_textEPKcSF_, symObjAddr: 0x7840, symBinAddr: 0x12A08, symSize: 0x54 }
  - { offsetInCU: 0x30864, offset: 0x634C7, size: 0x8, addend: 0x0, symName: __ZN3fmt3v106detail23parse_replacement_fieldIcRZNS1_10vformat_toIcEEvRNS1_6bufferIT_EENS0_17basic_string_viewIS5_EENS1_12vformat_argsIS5_E4typeENS1_10locale_refEE14format_handlerEEPKS5_SH_SH_OT0_, symObjAddr: 0x7894, symBinAddr: 0x12A5C, symSize: 0x3DC }
  - { offsetInCU: 0x30877, offset: 0x634DA, size: 0x8, addend: 0x0, symName: __ZZN3fmt3v106detail19parse_format_stringILb0EcZNS1_10vformat_toIcEEvRNS1_6bufferIT_EENS0_17basic_string_viewIS5_EENS1_12vformat_argsIS5_E4typeENS1_10locale_refEE14format_handlerEEvNS8_IT0_EEOT1_EN6writerclEPKcSL_, symObjAddr: 0x7C70, symBinAddr: 0x12E38, symSize: 0xC0 }
  - { offsetInCU: 0x309A9, offset: 0x6360C, size: 0x8, addend: 0x0, symName: __ZZN3fmt3v106detail10vformat_toIcEEvRNS1_6bufferIT_EENS0_17basic_string_viewIS4_EENS1_12vformat_argsIS4_E4typeENS1_10locale_refEEN14format_handler15on_format_specsEiPKcSF_, symObjAddr: 0x7D30, symBinAddr: 0x12EF8, symSize: 0x93C }
  - { offsetInCU: 0x309B5, offset: 0x63618, size: 0x8, addend: 0x0, symName: __ZN3fmt3v106detail21default_arg_formatterIcEclIbEENS0_8appenderET_, symObjAddr: 0x2588, symBinAddr: 0xD750, symSize: 0x48 }
  - { offsetInCU: 0x30A65, offset: 0x636C8, size: 0x8, addend: 0x0, symName: __ZN3fmt3v106detail21default_arg_formatterIcEclIPKvEENS0_8appenderET_, symObjAddr: 0x25D0, symBinAddr: 0xD798, symSize: 0x44 }
  - { offsetInCU: 0x30C21, offset: 0x63884, size: 0x8, addend: 0x0, symName: __ZN3fmt3v106detail9dragonbox14cache_accessorIfE18compute_mul_parityEjRKyi, symObjAddr: 0x15C8, symBinAddr: 0xC840, symSize: 0x80 }
  - { offsetInCU: 0x30CB1, offset: 0x63914, size: 0x8, addend: 0x0, symName: __ZN3fmt3v106detail9dragonbox10to_decimalIdEENS2_10decimal_fpIT_EES5_, symObjAddr: 0x1648, symBinAddr: 0xC8C0, symSize: 0x45C }
  - { offsetInCU: 0x30D86, offset: 0x639E9, size: 0x8, addend: 0x0, symName: __ZN3fmt3v106detail9dragonbox14cache_accessorIdE18compute_mul_parityEyRKNS1_16uint128_fallbackEi, symObjAddr: 0x1AA4, symBinAddr: 0xCD1C, symSize: 0x84 }
  - { offsetInCU: 0x30E4D, offset: 0x63AB0, size: 0x8, addend: 0x0, symName: __ZN3fmt3v106detail10locale_refC2INSt3__16localeEEERKT_, symObjAddr: 0x1B28, symBinAddr: 0xCDA0, symSize: 0x8 }
  - { offsetInCU: 0x30E60, offset: 0x63AC3, size: 0x8, addend: 0x0, symName: __ZN3fmt3v106detail10locale_refC2INSt3__16localeEEERKT_, symObjAddr: 0x1B28, symBinAddr: 0xCDA0, symSize: 0x8 }
  - { offsetInCU: 0x30EBA, offset: 0x63B1D, size: 0x8, addend: 0x0, symName: __ZN3fmt3v106detail10locale_refC1INSt3__16localeEEERKT_, symObjAddr: 0x1B30, symBinAddr: 0xCDA8, symSize: 0x8 }
  - { offsetInCU: 0x30EF3, offset: 0x63B56, size: 0x8, addend: 0x0, symName: __ZN3fmt3v106detail10locale_refC1INSt3__16localeEEERKT_, symObjAddr: 0x1B30, symBinAddr: 0xCDA8, symSize: 0x8 }
  - { offsetInCU: 0x30FF1, offset: 0x63C54, size: 0x8, addend: 0x0, symName: __ZN3fmt3v106detail6bufferIcE6appendIcEEvPKT_S7_, symObjAddr: 0x1C94, symBinAddr: 0xCF0C, symSize: 0xC0 }
  - { offsetInCU: 0x31105, offset: 0x63D68, size: 0x8, addend: 0x0, symName: __ZNK3fmt3v1017basic_format_argsINS0_20basic_format_contextINS0_8appenderEcEEE3getEi, symObjAddr: 0x1D54, symBinAddr: 0xCFCC, symSize: 0x60 }
  - { offsetInCU: 0x31170, offset: 0x63DD3, size: 0x8, addend: 0x0, symName: __ZNK3fmt3v1017basic_format_argsINS0_20basic_format_contextINS0_8appenderEcEEE3getEi, symObjAddr: 0x1D54, symBinAddr: 0xCFCC, symSize: 0x60 }
  - { offsetInCU: 0x311A2, offset: 0x63E05, size: 0x8, addend: 0x0, symName: __ZNK3fmt3v1017basic_format_argsINS0_20basic_format_contextINS0_8appenderEcEEE3getEi, symObjAddr: 0x1D54, symBinAddr: 0xCFCC, symSize: 0x60 }
  - { offsetInCU: 0x311BE, offset: 0x63E21, size: 0x8, addend: 0x0, symName: __ZNK3fmt3v1017basic_format_argsINS0_20basic_format_contextINS0_8appenderEcEEE3getEi, symObjAddr: 0x1D54, symBinAddr: 0xCFCC, symSize: 0x60 }
  - { offsetInCU: 0x312A5, offset: 0x63F08, size: 0x8, addend: 0x0, symName: __ZN3fmt3v106detail6bufferIwE6appendIwEEvPKT_S7_, symObjAddr: 0x1F10, symBinAddr: 0xD188, symSize: 0xC4 }
  - { offsetInCU: 0x313B0, offset: 0x64013, size: 0x8, addend: 0x0, symName: __ZN3fmt3v1012format_errorD0Ev, symObjAddr: 0x1FD4, symBinAddr: 0xD24C, symSize: 0x14 }
  - { offsetInCU: 0x313E9, offset: 0x6404C, size: 0x8, addend: 0x0, symName: __ZN3fmt3v1012format_errorD0Ev, symObjAddr: 0x1FD4, symBinAddr: 0xD24C, symSize: 0x14 }
  - { offsetInCU: 0x314F0, offset: 0x64153, size: 0x8, addend: 0x0, symName: __ZN3fmt3v1019basic_memory_bufferIcLm500ENSt3__19allocatorIcEEE4growEm, symObjAddr: 0x1FE8, symBinAddr: 0xD260, symSize: 0x88 }
  - { offsetInCU: 0x3176A, offset: 0x643CD, size: 0x8, addend: 0x0, symName: __ZN3fmt3v1012format_facetINSt3__16localeEED0Ev, symObjAddr: 0x2098, symBinAddr: 0xD2E8, symSize: 0x64 }
  - { offsetInCU: 0x31D8F, offset: 0x649F2, size: 0x8, addend: 0x0, symName: __ZN3fmt3v1019basic_memory_bufferIwLm500ENSt3__19allocatorIwEEE4growEm, symObjAddr: 0x2200, symBinAddr: 0xD3C8, symSize: 0xAC }
  - { offsetInCU: 0x31FE5, offset: 0x64C48, size: 0x8, addend: 0x0, symName: '__ZZN3fmt3v106detail18for_each_codepointIZNS1_13utf8_to_utf16C1ENS0_17basic_string_viewIcEEE3$_2EEvS5_T_ENKUlPKcS9_E_clES9_S9_', symObjAddr: 0x22AC, symBinAddr: 0xD474, symSize: 0x23C }
  - { offsetInCU: 0x32305, offset: 0x64F68, size: 0x8, addend: 0x0, symName: __ZN3fmt3v106detail14write_int_dataIcEC2EijRKNS0_12format_specsIcEE, symObjAddr: 0x38F4, symBinAddr: 0xEABC, symSize: 0x8C }
  - { offsetInCU: 0x323E1, offset: 0x65044, size: 0x8, addend: 0x0, symName: __ZN3fmt3v106detail12write_paddedILNS0_5align4typeE2ENS0_8appenderEcRZNS1_9write_intIS5_cZNS1_9write_intIcS5_jEET0_S8_NS1_13write_int_argIT1_EERKNS0_12format_specsIT_EENS1_10locale_refEEUlS5_E_EESD_SD_ijRKNSC_IS8_EESA_EUlS5_E_EES8_S8_RKNSC_ISA_EEmmOT2_, symObjAddr: 0x3980, symBinAddr: 0xEB48, symSize: 0x160 }
  - { offsetInCU: 0x3245C, offset: 0x650BF, size: 0x8, addend: 0x0, symName: __ZZN3fmt3v106detail9write_intINS0_8appenderEcZNS1_9write_intIcS3_jEET0_S5_NS1_13write_int_argIT1_EERKNS0_12format_specsIT_EENS1_10locale_refEEUlS3_E0_EESA_SA_ijRKNS9_IS5_EES7_ENKUlS3_E_clES3_, symObjAddr: 0x3C7C, symBinAddr: 0xEE44, symSize: 0x1AC }
  - { offsetInCU: 0x326DE, offset: 0x65341, size: 0x8, addend: 0x0, symName: __ZZN3fmt3v106detail9write_intINS0_8appenderEcZNS1_9write_intIcS3_jEET0_S5_NS1_13write_int_argIT1_EERKNS0_12format_specsIT_EENS1_10locale_refEEUlS3_E1_EESA_SA_ijRKNS9_IS5_EES7_ENKUlS3_E_clES3_, symObjAddr: 0x3ED8, symBinAddr: 0xF0A0, symSize: 0x17C }
  - { offsetInCU: 0x32969, offset: 0x655CC, size: 0x8, addend: 0x0, symName: __ZZN3fmt3v106detail9write_intINS0_8appenderEcZNS1_9write_intIcS3_jEET0_S5_NS1_13write_int_argIT1_EERKNS0_12format_specsIT_EENS1_10locale_refEEUlS3_E2_EESA_SA_ijRKNS9_IS5_EES7_ENKUlS3_E_clES3_, symObjAddr: 0x4104, symBinAddr: 0xF2CC, symSize: 0x178 }
  - { offsetInCU: 0x32DCA, offset: 0x65A2D, size: 0x8, addend: 0x0, symName: __ZN3fmt3v106detail14digit_groupingIcEC2ENS1_10locale_refEb, symObjAddr: 0x56B4, symBinAddr: 0x1087C, symSize: 0x124 }
  - { offsetInCU: 0x33534, offset: 0x66197, size: 0x8, addend: 0x0, symName: __ZNK3fmt3v106detail14digit_groupingIcE16count_separatorsEi, symObjAddr: 0x52F8, symBinAddr: 0x104C0, symSize: 0x64 }
  - { offsetInCU: 0x33640, offset: 0x662A3, size: 0x8, addend: 0x0, symName: __ZZN3fmt3v106detail14do_write_floatINS0_8appenderENS1_9dragonbox10decimal_fpIfEEcNS1_14digit_groupingIcEEEET_S9_RKT0_RKNS0_12format_specsIT1_EENS1_11float_specsENS1_10locale_refEENKUlS3_E_clES3_, symObjAddr: 0x5118, symBinAddr: 0x102E0, symSize: 0x1E0 }
  - { offsetInCU: 0x33871, offset: 0x664D4, size: 0x8, addend: 0x0, symName: __ZN3fmt3v106detail14digit_groupingIcED1Ev, symObjAddr: 0x535C, symBinAddr: 0x10524, symSize: 0x40 }
  - { offsetInCU: 0x33B33, offset: 0x66796, size: 0x8, addend: 0x0, symName: __ZNK3fmt3v106detail14digit_groupingIcE4nextERNS3_10next_stateE, symObjAddr: 0x57D8, symBinAddr: 0x109A0, symSize: 0x94 }
  - { offsetInCU: 0x33B96, offset: 0x667F9, size: 0x8, addend: 0x0, symName: __ZNK3fmt3v106detail14digit_groupingIcE4nextERNS3_10next_stateE, symObjAddr: 0x57D8, symBinAddr: 0x109A0, symSize: 0x94 }
  - { offsetInCU: 0x33E58, offset: 0x66ABB, size: 0x8, addend: 0x0, symName: __ZZN3fmt3v106detail14do_write_floatINS0_8appenderENS1_9dragonbox10decimal_fpIfEEcNS1_14digit_groupingIcEEEET_S9_RKT0_RKNS0_12format_specsIT1_EENS1_11float_specsENS1_10locale_refEENKUlS3_E0_clES3_, symObjAddr: 0x591C, symBinAddr: 0x10AE4, symSize: 0x108 }
  - { offsetInCU: 0x33FC7, offset: 0x66C2A, size: 0x8, addend: 0x0, symName: __ZNK3fmt3v106detail14digit_groupingIcE5applyINS0_8appenderEcEET_S6_NS0_17basic_string_viewIT0_EE, symObjAddr: 0x5B7C, symBinAddr: 0x10D44, symSize: 0x1AC }
  - { offsetInCU: 0x347E3, offset: 0x67446, size: 0x8, addend: 0x0, symName: __ZN3fmt3v1019basic_memory_bufferIiLm500ENSt3__19allocatorIiEEE4growEm, symObjAddr: 0x5D28, symBinAddr: 0x10EF0, symSize: 0xAC }
  - { offsetInCU: 0x34A39, offset: 0x6769C, size: 0x8, addend: 0x0, symName: __ZN3fmt3v106detail12write_paddedILNS0_5align4typeE2ENS0_8appenderEcRZNS1_14do_write_floatIS5_NS1_9dragonbox10decimal_fpIfEEcNS1_14digit_groupingIcEEEET_SC_RKT0_RKNS0_12format_specsIT1_EENS1_11float_specsENS1_10locale_refEEUlS5_E1_EESD_SD_SK_mmOT2_, symObjAddr: 0x5DD4, symBinAddr: 0x10F9C, symSize: 0x138 }
  - { offsetInCU: 0x34A9A, offset: 0x676FD, size: 0x8, addend: 0x0, symName: __ZZN3fmt3v106detail14do_write_floatINS0_8appenderENS1_9dragonbox10decimal_fpIfEEcNS1_14digit_groupingIcEEEET_S9_RKT0_RKNS0_12format_specsIT1_EENS1_11float_specsENS1_10locale_refEENKUlS3_E2_clES3_, symObjAddr: 0x627C, symBinAddr: 0x11444, symSize: 0x174 }
  - { offsetInCU: 0x34D85, offset: 0x679E8, size: 0x8, addend: 0x0, symName: __ZZN3fmt3v106detail14do_write_floatINS0_8appenderENS1_9dragonbox10decimal_fpIdEEcNS1_14digit_groupingIcEEEET_S9_RKT0_RKNS0_12format_specsIT1_EENS1_11float_specsENS1_10locale_refEENKUlS3_E_clES3_, symObjAddr: 0x68A8, symBinAddr: 0x11A70, symSize: 0x1EC }
  - { offsetInCU: 0x34FCE, offset: 0x67C31, size: 0x8, addend: 0x0, symName: __ZZN3fmt3v106detail14do_write_floatINS0_8appenderENS1_9dragonbox10decimal_fpIdEEcNS1_14digit_groupingIcEEEET_S9_RKT0_RKNS0_12format_specsIT1_EENS1_11float_specsENS1_10locale_refEENKUlS3_E0_clES3_, symObjAddr: 0x6BF4, symBinAddr: 0x11DBC, symSize: 0x108 }
  - { offsetInCU: 0x35166, offset: 0x67DC9, size: 0x8, addend: 0x0, symName: __ZZN3fmt3v106detail14do_write_floatINS0_8appenderENS1_9dragonbox10decimal_fpIdEEcNS1_14digit_groupingIcEEEET_S9_RKT0_RKNS0_12format_specsIT1_EENS1_11float_specsENS1_10locale_refEENKUlS3_E2_clES3_, symObjAddr: 0x7314, symBinAddr: 0x124DC, symSize: 0x174 }
  - { offsetInCU: 0x35439, offset: 0x6809C, size: 0x8, addend: 0x0, symName: __ZZN3fmt3v106detail9write_ptrIcNS0_8appenderEmEET0_S4_T1_PKNS0_12format_specsIT_EEENKUlS3_E_clES3_, symObjAddr: 0x7608, symBinAddr: 0x127D0, symSize: 0x188 }
  - { offsetInCU: 0x3586B, offset: 0x684CE, size: 0x8, addend: 0x0, symName: __ZZN3fmt3v106detail10vformat_toIcEEvRNS1_6bufferIT_EENS0_17basic_string_viewIS4_EENS1_12vformat_argsIS4_E4typeENS1_10locale_refEEN14format_handler15on_format_specsEiPKcSF_, symObjAddr: 0x7D30, symBinAddr: 0x12EF8, symSize: 0x93C }
  - { offsetInCU: 0x36D55, offset: 0x699B8, size: 0x8, addend: 0x0, symName: __ZN3fmt3v106detail7get_argINS0_20basic_format_contextINS0_8appenderEcEEiEEDTcldtfp_3argfp0_EERT_T0_, symObjAddr: 0x866C, symBinAddr: 0x13834, symSize: 0x38 }
  - { offsetInCU: 0x37447, offset: 0x6A0AA, size: 0x8, addend: 0x0, symName: __ZN3fmt3v106detail6fill_tIcEaSENS0_17basic_string_viewIcEE, symObjAddr: 0x8C84, symBinAddr: 0x13E4C, symSize: 0x50 }
  - { offsetInCU: 0x374AF, offset: 0x6A112, size: 0x8, addend: 0x0, symName: __ZN3fmt3v106detail15do_parse_arg_idIcRNS1_23dynamic_spec_id_handlerIcEEEEPKT_S8_S8_OT0_, symObjAddr: 0x8CD4, symBinAddr: 0x13E9C, symSize: 0x14C }
  - { offsetInCU: 0x3758F, offset: 0x6A1F2, size: 0x8, addend: 0x0, symName: __ZZN3fmt3v106detail23parse_replacement_fieldIcRZNS1_10vformat_toIcEEvRNS1_6bufferIT_EENS0_17basic_string_viewIS5_EENS1_12vformat_argsIS5_E4typeENS1_10locale_refEE14format_handlerEEPKS5_SH_SH_OT0_EN10id_adapter7on_nameENS8_IcEE, symObjAddr: 0x88A8, symBinAddr: 0x13A70, symSize: 0x3C }
  - { offsetInCU: 0x37642, offset: 0x6A2A5, size: 0x8, addend: 0x0, symName: __ZNK3fmt3v1017basic_format_argsINS0_20basic_format_contextINS0_8appenderEcEEE6get_idIcEEiNS0_17basic_string_viewIT_EE, symObjAddr: 0x88E4, symBinAddr: 0x13AAC, symSize: 0xC8 }
  - { offsetInCU: 0x376A2, offset: 0x6A305, size: 0x8, addend: 0x0, symName: __ZNK3fmt3v1017basic_format_argsINS0_20basic_format_contextINS0_8appenderEcEEE6get_idIcEEiNS0_17basic_string_viewIT_EE, symObjAddr: 0x88E4, symBinAddr: 0x13AAC, symSize: 0xC8 }
  - { offsetInCU: 0x377AF, offset: 0x6A412, size: 0x8, addend: 0x0, symName: __ZNK3fmt3v1017basic_string_viewIcE7compareES2_, symObjAddr: 0x89AC, symBinAddr: 0x13B74, symSize: 0x48 }
  - { offsetInCU: 0x379A3, offset: 0x6A606, size: 0x8, addend: 0x0, symName: __ZNK3fmt3v1017basic_format_argsINS0_20basic_format_contextINS0_8appenderEcEEE3getIcEENS0_16basic_format_argIS4_EENS0_17basic_string_viewIT_EE, symObjAddr: 0x8EE8, symBinAddr: 0x140B0, symSize: 0x44 }
  - { offsetInCU: 0x37D1D, offset: 0x6A980, size: 0x8, addend: 0x0, symName: __ZZN3fmt3v106detail9write_intINS0_8appenderEcZNS1_9write_intIcS3_yEET0_S5_NS1_13write_int_argIT1_EERKNS0_12format_specsIT_EENS1_10locale_refEEUlS3_E0_EESA_SA_ijRKNS9_IS5_EES7_ENKUlS3_E_clES3_, symObjAddr: 0x984C, symBinAddr: 0x14A14, symSize: 0x1AC }
  - { offsetInCU: 0x37F9F, offset: 0x6AC02, size: 0x8, addend: 0x0, symName: __ZZN3fmt3v106detail9write_intINS0_8appenderEcZNS1_9write_intIcS3_yEET0_S5_NS1_13write_int_argIT1_EERKNS0_12format_specsIT_EENS1_10locale_refEEUlS3_E1_EESA_SA_ijRKNS9_IS5_EES7_ENKUlS3_E_clES3_, symObjAddr: 0x9AA8, symBinAddr: 0x14C70, symSize: 0x180 }
  - { offsetInCU: 0x3822A, offset: 0x6AE8D, size: 0x8, addend: 0x0, symName: __ZZN3fmt3v106detail9write_intINS0_8appenderEcZNS1_9write_intIcS3_yEET0_S5_NS1_13write_int_argIT1_EERKNS0_12format_specsIT_EENS1_10locale_refEEUlS3_E2_EESA_SA_ijRKNS9_IS5_EES7_ENKUlS3_E_clES3_, symObjAddr: 0x9CD8, symBinAddr: 0x14EA0, symSize: 0x178 }
  - { offsetInCU: 0x386C3, offset: 0x6B326, size: 0x8, addend: 0x0, symName: __ZZN3fmt3v106detail9write_intINS0_8appenderEcZNS1_9write_intIcS3_oEET0_S5_NS1_13write_int_argIT1_EERKNS0_12format_specsIT_EENS1_10locale_refEEUlS3_E0_EESA_SA_ijRKNS9_IS5_EES7_ENKUlS3_E_clES3_, symObjAddr: 0xA83C, symBinAddr: 0x15A04, symSize: 0x1CC }
  - { offsetInCU: 0x38945, offset: 0x6B5A8, size: 0x8, addend: 0x0, symName: __ZZN3fmt3v106detail9write_intINS0_8appenderEcZNS1_9write_intIcS3_oEET0_S5_NS1_13write_int_argIT1_EERKNS0_12format_specsIT_EENS1_10locale_refEEUlS3_E1_EESA_SA_ijRKNS9_IS5_EES7_ENKUlS3_E_clES3_, symObjAddr: 0xAAB8, symBinAddr: 0x15C80, symSize: 0x1A4 }
  - { offsetInCU: 0x38BC8, offset: 0x6B82B, size: 0x8, addend: 0x0, symName: __ZZN3fmt3v106detail9write_intINS0_8appenderEcZNS1_9write_intIcS3_oEET0_S5_NS1_13write_int_argIT1_EERKNS0_12format_specsIT_EENS1_10locale_refEEUlS3_E2_EESA_SA_ijRKNS9_IS5_EES7_ENKUlS3_E_clES3_, symObjAddr: 0xAD0C, symBinAddr: 0x15ED4, symSize: 0x198 }
  - { offsetInCU: 0x3947D, offset: 0x6C0E0, size: 0x8, addend: 0x0, symName: __ZN3fmt3v106detail6bigintaSIoEEvT_, symObjAddr: 0xC79C, symBinAddr: 0x17964, symSize: 0x2C }
  - { offsetInCU: 0x394C4, offset: 0x6C127, size: 0x8, addend: 0x0, symName: __ZN3fmt3v106detail6bigintlSEi, symObjAddr: 0xC7C8, symBinAddr: 0x17990, symSize: 0xC4 }
  - { offsetInCU: 0x394E0, offset: 0x6C143, size: 0x8, addend: 0x0, symName: __ZN3fmt3v106detail6bigintlSEi, symObjAddr: 0xC7C8, symBinAddr: 0x17990, symSize: 0xC4 }
  - { offsetInCU: 0x395E8, offset: 0x6C24B, size: 0x8, addend: 0x0, symName: __ZN3fmt3v106detail6bigint12assign_pow10Ei, symObjAddr: 0xC88C, symBinAddr: 0x17A54, symSize: 0xC0 }
  - { offsetInCU: 0x395FB, offset: 0x6C25E, size: 0x8, addend: 0x0, symName: __ZN3fmt3v106detail6bigint6assignIyLi0EEEvT_, symObjAddr: 0xCE14, symBinAddr: 0x17FDC, symSize: 0x6C }
  - { offsetInCU: 0x396D6, offset: 0x6C339, size: 0x8, addend: 0x0, symName: __ZN3fmt3v106detail6bigint12assign_pow10Ei, symObjAddr: 0xC88C, symBinAddr: 0x17A54, symSize: 0xC0 }
  - { offsetInCU: 0x39808, offset: 0x6C46B, size: 0x8, addend: 0x0, symName: __ZN3fmt3v106detail6bigint6assignERKS2_, symObjAddr: 0xC94C, symBinAddr: 0x17B14, symSize: 0x8C }
  - { offsetInCU: 0x3981B, offset: 0x6C47E, size: 0x8, addend: 0x0, symName: __ZN3fmt3v106detail6bigint8multiplyEj, symObjAddr: 0xD298, symBinAddr: 0x18460, symSize: 0x88 }
  - { offsetInCU: 0x39931, offset: 0x6C594, size: 0x8, addend: 0x0, symName: __ZN3fmt3v106detail6bigint13divmod_assignERKS2_, symObjAddr: 0xCB6C, symBinAddr: 0x17D34, symSize: 0xB4 }
  - { offsetInCU: 0x39A25, offset: 0x6C688, size: 0x8, addend: 0x0, symName: __ZN3fmt3v106detail7compareERKNS1_6bigintES4_, symObjAddr: 0xCC20, symBinAddr: 0x17DE8, symSize: 0xD4 }
  - { offsetInCU: 0x39A38, offset: 0x6C69B, size: 0x8, addend: 0x0, symName: __ZN3fmt3v106detail6bigint6assignERKS2_, symObjAddr: 0xC94C, symBinAddr: 0x17B14, symSize: 0x8C }
  - { offsetInCU: 0x39B8D, offset: 0x6C7F0, size: 0x8, addend: 0x0, symName: __ZN3fmt3v106detail6bigintmLIoEERS2_T_, symObjAddr: 0xC9D8, symBinAddr: 0x17BA0, symSize: 0x44 }
  - { offsetInCU: 0x39BD4, offset: 0x6C837, size: 0x8, addend: 0x0, symName: __ZN3fmt3v106detail11add_compareERKNS1_6bigintES4_S4_, symObjAddr: 0xCA1C, symBinAddr: 0x17BE4, symSize: 0x150 }
  - { offsetInCU: 0x39BF0, offset: 0x6C853, size: 0x8, addend: 0x0, symName: __ZN3fmt3v106detail6bigint6assignIoLi0EEEvT_, symObjAddr: 0xCDA0, symBinAddr: 0x17F68, symSize: 0x74 }
  - { offsetInCU: 0x39D2A, offset: 0x6C98D, size: 0x8, addend: 0x0, symName: __ZN3fmt3v106detail6bigint6squareEv, symObjAddr: 0xCE80, symBinAddr: 0x18048, symSize: 0x1C8 }
  - { offsetInCU: 0x3A2AF, offset: 0x6CF12, size: 0x8, addend: 0x0, symName: __ZN3fmt3v106detail6bigint5alignERKS2_, symObjAddr: 0xD320, symBinAddr: 0x184E8, symSize: 0xF0 }
  - { offsetInCU: 0x3A454, offset: 0x6D0B7, size: 0x8, addend: 0x0, symName: __ZN3fmt3v106detail6bigint16subtract_alignedERKS2_, symObjAddr: 0xD410, symBinAddr: 0x185D8, symSize: 0xFC }
  - { offsetInCU: 0x3A467, offset: 0x6D0CA, size: 0x8, addend: 0x0, symName: __ZN3fmt3v106detail6bigint16subtract_alignedERKS2_, symObjAddr: 0xD410, symBinAddr: 0x185D8, symSize: 0xFC }
  - { offsetInCU: 0x3A626, offset: 0x6D289, size: 0x8, addend: 0x0, symName: __ZN3fmt3v106detail14do_write_floatINS0_8appenderENS1_14big_decimal_fpEcNS1_14digit_groupingIcEEEET_S7_RKT0_RKNS0_12format_specsIT1_EENS1_11float_specsENS1_10locale_refE, symObjAddr: 0xD50C, symBinAddr: 0x186D4, symSize: 0x4C0 }
  - { offsetInCU: 0x3A6E0, offset: 0x6D343, size: 0x8, addend: 0x0, symName: __ZN3fmt3v1019basic_memory_bufferIjLm32ENSt3__19allocatorIjEEE4growEm, symObjAddr: 0xCCF4, symBinAddr: 0x17EBC, symSize: 0xAC }
  - { offsetInCU: 0x3A936, offset: 0x6D599, size: 0x8, addend: 0x0, symName: __ZN3fmt3v106detail6bigint6assignIoLi0EEEvT_, symObjAddr: 0xCDA0, symBinAddr: 0x17F68, symSize: 0x74 }
  - { offsetInCU: 0x3A968, offset: 0x6D5CB, size: 0x8, addend: 0x0, symName: __ZN3fmt3v1019basic_memory_bufferIjLm32ENSt3__19allocatorIjEEEC2EOS5_, symObjAddr: 0xD0D8, symBinAddr: 0x182A0, symSize: 0x3C }
  - { offsetInCU: 0x3A9E6, offset: 0x6D649, size: 0x8, addend: 0x0, symName: __ZN3fmt3v106detail6bigint20remove_leading_zerosEv, symObjAddr: 0xD048, symBinAddr: 0x18210, symSize: 0x90 }
  - { offsetInCU: 0x3AB3F, offset: 0x6D7A2, size: 0x8, addend: 0x0, symName: __ZN3fmt3v1019basic_memory_bufferIjLm32ENSt3__19allocatorIjEEEC2EOS5_, symObjAddr: 0xD0D8, symBinAddr: 0x182A0, symSize: 0x3C }
  - { offsetInCU: 0x3AB9F, offset: 0x6D802, size: 0x8, addend: 0x0, symName: __ZN3fmt3v1019basic_memory_bufferIjLm32ENSt3__19allocatorIjEEE4moveERS5_, symObjAddr: 0xD114, symBinAddr: 0x182DC, symSize: 0xA0 }
  - { offsetInCU: 0x3AE86, offset: 0x6DAE9, size: 0x8, addend: 0x0, symName: __ZZN3fmt3v106detail14do_write_floatINS0_8appenderENS1_14big_decimal_fpEcNS1_14digit_groupingIcEEEET_S7_RKT0_RKNS0_12format_specsIT1_EENS1_11float_specsENS1_10locale_refEENKUlS3_E0_clES3_, symObjAddr: 0xDC98, symBinAddr: 0x18E60, symSize: 0x108 }
  - { offsetInCU: 0x3B01E, offset: 0x6DC81, size: 0x8, addend: 0x0, symName: __ZZN3fmt3v106detail14do_write_floatINS0_8appenderENS1_14big_decimal_fpEcNS1_14digit_groupingIcEEEET_S7_RKT0_RKNS0_12format_specsIT1_EENS1_11float_specsENS1_10locale_refEENKUlS3_E2_clES3_, symObjAddr: 0xE228, symBinAddr: 0x193F0, symSize: 0x128 }
  - { offsetInCU: 0x3B425, offset: 0x6E088, size: 0x8, addend: 0x0, symName: __ZZN3fmt3v106detail18for_each_codepointIZNS1_11find_escapeEPKcS4_EUljNS0_17basic_string_viewIcEEE_EEvS6_T_ENKUlS4_S4_E_clES4_S4_, symObjAddr: 0xEFD8, symBinAddr: 0x1A1A0, symSize: 0x190 }
  - { offsetInCU: 0x3B558, offset: 0x6E1BB, size: 0x8, addend: 0x0, symName: __ZN3fmt3v106detail18for_each_codepointIZNS1_13compute_widthENS0_17basic_string_viewIcEEE17count_code_pointsEEvS4_T_, symObjAddr: 0xF168, symBinAddr: 0x1A330, symSize: 0xE4 }
  - { offsetInCU: 0x3B5B6, offset: 0x6E219, size: 0x8, addend: 0x0, symName: __ZZN3fmt3v106detail18for_each_codepointIZNS1_13compute_widthENS0_17basic_string_viewIcEEE17count_code_pointsEEvS4_T_ENKUlPKcS8_E_clES8_S8_, symObjAddr: 0xF24C, symBinAddr: 0x1A414, symSize: 0x130 }
  - { offsetInCU: 0x3B688, offset: 0x6E2EB, size: 0x8, addend: 0x0, symName: __ZZN3fmt3v106detail13compute_widthENS0_17basic_string_viewIcEEENK17count_code_pointsclEjS3_, symObjAddr: 0xF37C, symBinAddr: 0x1A544, symSize: 0xD4 }
  - { offsetInCU: 0x3B69B, offset: 0x6E2FE, size: 0x8, addend: 0x0, symName: __ZZN3fmt3v106detail13compute_widthENS0_17basic_string_viewIcEEENK17count_code_pointsclEjS3_, symObjAddr: 0xF37C, symBinAddr: 0x1A544, symSize: 0xD4 }
  - { offsetInCU: 0x3B7B4, offset: 0x6E417, size: 0x8, addend: 0x0, symName: __ZN3fmt3v106detail15iterator_bufferINS0_8appenderEcNS1_13buffer_traitsEED2Ev, symObjAddr: 0xF6D8, symBinAddr: 0x1A8A0, symSize: 0x40 }
  - { offsetInCU: 0x3B84D, offset: 0x6E4B0, size: 0x8, addend: 0x0, symName: __ZN3fmt3v106detail15iterator_bufferINS0_8appenderEcNS1_13buffer_traitsEE4growEm, symObjAddr: 0xF620, symBinAddr: 0x1A7E8, symSize: 0x40 }
  - { offsetInCU: 0x26, offset: 0x6EA46, size: 0x8, addend: 0x0, symName: __ZN5agora3rtc9extension9TimeUtils17CurrentTimeMillisEv, symObjAddr: 0x0, symBinAddr: 0x1B88C, symSize: 0x58 }
  - { offsetInCU: 0x10F0, offset: 0x6FB10, size: 0x8, addend: 0x0, symName: __ZN5agora3rtc9extension9TimeUtils17CurrentTimeMillisEv, symObjAddr: 0x0, symBinAddr: 0x1B88C, symSize: 0x58 }
  - { offsetInCU: 0x1185, offset: 0x6FBA5, size: 0x8, addend: 0x0, symName: __ZN5agora3rtc9extension9TimeUtils8NanoTimeEv, symObjAddr: 0x58, symBinAddr: 0x1B8E4, symSize: 0x38 }
  - { offsetInCU: 0xDF8C, offset: 0x7DB92, size: 0x8, addend: 0x0, symName: __ZNSt3__124__put_character_sequenceB7v160006IcNS_11char_traitsIcEEEERNS_13basic_ostreamIT_T0_EES7_PKS4_m, symObjAddr: 0x1428, symBinAddr: 0x1CCC4, symSize: 0x164 }
  - { offsetInCU: 0x104AE, offset: 0x800B4, size: 0x8, addend: 0x0, symName: __ZNSt3__116__throw_bad_castB7v160006Ev, symObjAddr: 0x1114, symBinAddr: 0x1C9B0, symSize: 0x28 }
  - { offsetInCU: 0x109B5, offset: 0x805BB, size: 0x8, addend: 0x0, symName: __ZNSt3__116__pad_and_outputB7v160006IcNS_11char_traitsIcEEEENS_19ostreambuf_iteratorIT_T0_EES6_PKS4_S8_S8_RNS_8ios_baseES4_, symObjAddr: 0x158C, symBinAddr: 0x1CE28, symSize: 0x13C }
  - { offsetInCU: 0x13C61, offset: 0x83867, size: 0x8, addend: 0x0, symName: __ZN5agora3rtc9extension10ReadBinaryERKNSt3__112basic_stringIcNS2_11char_traitsIcEENS2_9allocatorIcEEEERNS2_6vectorIcS7_EE, symObjAddr: 0x0, symBinAddr: 0x1B91C, symSize: 0x1AC }
  - { offsetInCU: 0x13FB9, offset: 0x83BBF, size: 0x8, addend: 0x0, symName: __ZNSt3__114basic_ifstreamIcNS_11char_traitsIcEEEC1ERKNS_12basic_stringIcS2_NS_9allocatorIcEEEEj, symObjAddr: 0x1AC, symBinAddr: 0x1BAC8, symSize: 0x108 }
  - { offsetInCU: 0x141A4, offset: 0x83DAA, size: 0x8, addend: 0x0, symName: __ZNSt3__16vectorIcNS_9allocatorIcEEE8__appendEm, symObjAddr: 0x314, symBinAddr: 0x1BC30, symSize: 0x128 }
  - { offsetInCU: 0x146BE, offset: 0x842C4, size: 0x8, addend: 0x0, symName: __ZNKSt3__16vectorIcNS_9allocatorIcEEE20__throw_length_errorB7v160006Ev, symObjAddr: 0x43C, symBinAddr: 0x1BD58, symSize: 0x14 }
  - { offsetInCU: 0x146D0, offset: 0x842D6, size: 0x8, addend: 0x0, symName: __ZNSt3__113basic_filebufIcNS_11char_traitsIcEEE5closeEv, symObjAddr: 0x668, symBinAddr: 0x1BF04, symSize: 0x84 }
  - { offsetInCU: 0x147C0, offset: 0x843C6, size: 0x8, addend: 0x0, symName: __ZNSt3__113basic_filebufIcNS_11char_traitsIcEEED2Ev, symObjAddr: 0x5FC, symBinAddr: 0x1BE98, symSize: 0x6C }
  - { offsetInCU: 0x14802, offset: 0x84408, size: 0x8, addend: 0x0, symName: __ZNSt3__114basic_ifstreamIcNS_11char_traitsIcEEED1Ev, symObjAddr: 0x2B4, symBinAddr: 0x1BBD0, symSize: 0x60 }
  - { offsetInCU: 0x1492B, offset: 0x84531, size: 0x8, addend: 0x0, symName: __ZNSt3__113basic_filebufIcNS_11char_traitsIcEEEC2Ev, symObjAddr: 0x11A4, symBinAddr: 0x1CA40, symSize: 0x12C }
  - { offsetInCU: 0x14A08, offset: 0x8460E, size: 0x8, addend: 0x0, symName: __ZNSt3__113basic_filebufIcNS_11char_traitsIcEEE4openEPKcj, symObjAddr: 0x12D0, symBinAddr: 0x1CB6C, symSize: 0x158 }
  - { offsetInCU: 0x14ED2, offset: 0x84AD8, size: 0x8, addend: 0x0, symName: __ZNKSt3__16vectorIcNS_9allocatorIcEEE20__throw_length_errorB7v160006Ev, symObjAddr: 0x43C, symBinAddr: 0x1BD58, symSize: 0x14 }
  - { offsetInCU: 0x14F6B, offset: 0x84B71, size: 0x8, addend: 0x0, symName: __ZTv0_n24_NSt3__114basic_ifstreamIcNS_11char_traitsIcEEED1Ev, symObjAddr: 0x4D0, symBinAddr: 0x1BD6C, symSize: 0x60 }
  - { offsetInCU: 0x14FF5, offset: 0x84BFB, size: 0x8, addend: 0x0, symName: __ZNSt3__114basic_ifstreamIcNS_11char_traitsIcEEED0Ev, symObjAddr: 0x530, symBinAddr: 0x1BDCC, symSize: 0x60 }
  - { offsetInCU: 0x1509E, offset: 0x84CA4, size: 0x8, addend: 0x0, symName: __ZTv0_n24_NSt3__114basic_ifstreamIcNS_11char_traitsIcEEED0Ev, symObjAddr: 0x590, symBinAddr: 0x1BE2C, symSize: 0x68 }
  - { offsetInCU: 0x15144, offset: 0x84D4A, size: 0x8, addend: 0x0, symName: __ZNSt3__113basic_filebufIcNS_11char_traitsIcEEED1Ev, symObjAddr: 0x5F8, symBinAddr: 0x1BE94, symSize: 0x4 }
  - { offsetInCU: 0x15167, offset: 0x84D6D, size: 0x8, addend: 0x0, symName: __ZNSt3__113basic_filebufIcNS_11char_traitsIcEEED1Ev, symObjAddr: 0x5F8, symBinAddr: 0x1BE94, symSize: 0x4 }
  - { offsetInCU: 0x1529F, offset: 0x84EA5, size: 0x8, addend: 0x0, symName: __ZNSt3__113basic_filebufIcNS_11char_traitsIcEEED0Ev, symObjAddr: 0x6EC, symBinAddr: 0x1BF88, symSize: 0x14 }
  - { offsetInCU: 0x1534F, offset: 0x84F55, size: 0x8, addend: 0x0, symName: __ZNSt3__113basic_filebufIcNS_11char_traitsIcEEE5imbueERKNS_6localeE, symObjAddr: 0x700, symBinAddr: 0x1BF9C, symSize: 0xEC }
  - { offsetInCU: 0x1541D, offset: 0x85023, size: 0x8, addend: 0x0, symName: __ZNSt3__113basic_filebufIcNS_11char_traitsIcEEE6setbufEPcl, symObjAddr: 0x7EC, symBinAddr: 0x1C088, symSize: 0xF8 }
  - { offsetInCU: 0x154FA, offset: 0x85100, size: 0x8, addend: 0x0, symName: __ZNSt3__113basic_filebufIcNS_11char_traitsIcEEE7seekoffExNS_8ios_base7seekdirEj, symObjAddr: 0x8E4, symBinAddr: 0x1C180, symSize: 0x100 }
  - { offsetInCU: 0x15628, offset: 0x8522E, size: 0x8, addend: 0x0, symName: __ZNSt3__113basic_filebufIcNS_11char_traitsIcEEE7seekposENS_4fposI11__mbstate_tEEj, symObjAddr: 0x9E4, symBinAddr: 0x1C280, symSize: 0xB0 }
  - { offsetInCU: 0x1566E, offset: 0x85274, size: 0x8, addend: 0x0, symName: __ZNSt3__113basic_filebufIcNS_11char_traitsIcEEE7seekposENS_4fposI11__mbstate_tEEj, symObjAddr: 0x9E4, symBinAddr: 0x1C280, symSize: 0xB0 }
  - { offsetInCU: 0x157D9, offset: 0x853DF, size: 0x8, addend: 0x0, symName: __ZNSt3__113basic_filebufIcNS_11char_traitsIcEEE4syncEv, symObjAddr: 0xA94, symBinAddr: 0x1C330, symSize: 0x240 }
  - { offsetInCU: 0x15A88, offset: 0x8568E, size: 0x8, addend: 0x0, symName: __ZNSt3__113basic_filebufIcNS_11char_traitsIcEEE9underflowEv, symObjAddr: 0xCD4, symBinAddr: 0x1C570, symSize: 0x264 }
  - { offsetInCU: 0x15B55, offset: 0x8575B, size: 0x8, addend: 0x0, symName: __ZNSt3__113basic_filebufIcNS_11char_traitsIcEEE9underflowEv, symObjAddr: 0xCD4, symBinAddr: 0x1C570, symSize: 0x264 }
  - { offsetInCU: 0x15E64, offset: 0x85A6A, size: 0x8, addend: 0x0, symName: __ZNSt3__113basic_filebufIcNS_11char_traitsIcEEE9pbackfailEi, symObjAddr: 0xF38, symBinAddr: 0x1C7D4, symSize: 0x5C }
  - { offsetInCU: 0x15E90, offset: 0x85A96, size: 0x8, addend: 0x0, symName: __ZNSt3__113basic_filebufIcNS_11char_traitsIcEEE9pbackfailEi, symObjAddr: 0xF38, symBinAddr: 0x1C7D4, symSize: 0x5C }
  - { offsetInCU: 0x15FF9, offset: 0x85BFF, size: 0x8, addend: 0x0, symName: __ZNSt3__113basic_filebufIcNS_11char_traitsIcEEE8overflowEi, symObjAddr: 0xF94, symBinAddr: 0x1C830, symSize: 0x180 }
  - { offsetInCU: 0x162DE, offset: 0x85EE4, size: 0x8, addend: 0x0, symName: __ZNSt3__113basic_filebufIcNS_11char_traitsIcEEE12__write_modeEv, symObjAddr: 0x113C, symBinAddr: 0x1C9D8, symSize: 0x68 }
  - { offsetInCU: 0x16695, offset: 0x8629B, size: 0x8, addend: 0x0, symName: __ZNSt3__112basic_stringIcNS_11char_traitsIcEENS_9allocatorIcEEEC2B7v160006Emc, symObjAddr: 0x16C8, symBinAddr: 0x1CF64, symSize: 0x98 }
  - { offsetInCU: 0x26, offset: 0x86629, size: 0x8, addend: 0x0, symName: __ZN5agora3rtc9extension20ExtensionAudioFilterC2EPKc, symObjAddr: 0x0, symBinAddr: 0x1CFFC, symSize: 0x4C }
  - { offsetInCU: 0x5426, offset: 0x8BA29, size: 0x8, addend: 0x0, symName: __ZN5agora3rtc9extension20ExtensionAudioFilterC2EPKc, symObjAddr: 0x0, symBinAddr: 0x1CFFC, symSize: 0x4C }
  - { offsetInCU: 0x5719, offset: 0x8BD1C, size: 0x8, addend: 0x0, symName: __ZN5agora3rtc9extension20ExtensionAudioFilterD2Ev, symObjAddr: 0x4C, symBinAddr: 0x1D048, symSize: 0x4 }
  - { offsetInCU: 0x5747, offset: 0x8BD4A, size: 0x8, addend: 0x0, symName: __ZN5agora3rtc9extension20ExtensionAudioFilterD2Ev, symObjAddr: 0x4C, symBinAddr: 0x1D048, symSize: 0x4 }
  - { offsetInCU: 0x575A, offset: 0x8BD5D, size: 0x8, addend: 0x0, symName: __ZN5agora3rtc9extension10IExtensionINS_5media4base13AudioPcmFrameEED2Ev, symObjAddr: 0x50, symBinAddr: 0x1D04C, symSize: 0x44 }
  - { offsetInCU: 0x59B7, offset: 0x8BFBA, size: 0x8, addend: 0x0, symName: __ZNSt3__110shared_ptrIN5agora3rtc9extension17ExtensionDelegateINS1_5media4base13AudioPcmFrameEEEED2B7v160006Ev, symObjAddr: 0x490, symBinAddr: 0x1D474, symSize: 0x58 }
  - { offsetInCU: 0x5A41, offset: 0x8C044, size: 0x8, addend: 0x0, symName: __ZN5agora3rtc9extension20ExtensionAudioFilterD1Ev, symObjAddr: 0x94, symBinAddr: 0x1D090, symSize: 0x4 }
  - { offsetInCU: 0x5A81, offset: 0x8C084, size: 0x8, addend: 0x0, symName: __ZThn48_N5agora3rtc9extension20ExtensionAudioFilterD1Ev, symObjAddr: 0x98, symBinAddr: 0x1D094, symSize: 0x4 }
  - { offsetInCU: 0x5A9B, offset: 0x8C09E, size: 0x8, addend: 0x0, symName: __ZThn48_N5agora3rtc9extension20ExtensionAudioFilterD1Ev, symObjAddr: 0x98, symBinAddr: 0x1D094, symSize: 0x4 }
  - { offsetInCU: 0x5AAC, offset: 0x8C0AF, size: 0x8, addend: 0x0, symName: __ZN5agora3rtc9extension20ExtensionAudioFilterD0Ev, symObjAddr: 0x9C, symBinAddr: 0x1D098, symSize: 0x4 }
  - { offsetInCU: 0x5AE7, offset: 0x8C0EA, size: 0x8, addend: 0x0, symName: __ZThn48_N5agora3rtc9extension20ExtensionAudioFilterD0Ev, symObjAddr: 0xA0, symBinAddr: 0x1D09C, symSize: 0x4 }
  - { offsetInCU: 0x5B01, offset: 0x8C104, size: 0x8, addend: 0x0, symName: __ZThn48_N5agora3rtc9extension20ExtensionAudioFilterD0Ev, symObjAddr: 0xA0, symBinAddr: 0x1D09C, symSize: 0x4 }
  - { offsetInCU: 0x5B12, offset: 0x8C115, size: 0x8, addend: 0x0, symName: __ZN5agora3rtc9extension20ExtensionAudioFilter15adaptAudioFrameERKNS_5media4base13AudioPcmFrameERS5_, symObjAddr: 0xA4, symBinAddr: 0x1D0A0, symSize: 0x44 }
  - { offsetInCU: 0x5B88, offset: 0x8C18B, size: 0x8, addend: 0x0, symName: __ZN5agora5media4base13AudioPcmFrameaSERKS2_, symObjAddr: 0xE8, symBinAddr: 0x1D0E4, symSize: 0x70 }
  - { offsetInCU: 0x5BFD, offset: 0x8C200, size: 0x8, addend: 0x0, symName: __ZThn48_N5agora3rtc9extension20ExtensionAudioFilter15adaptAudioFrameERKNS_5media4base13AudioPcmFrameERS5_, symObjAddr: 0x158, symBinAddr: 0x1D154, symSize: 0x44 }
  - { offsetInCU: 0x5C86, offset: 0x8C289, size: 0x8, addend: 0x0, symName: __ZN5agora3rtc9extension20ExtensionAudioFilter10setEnabledEb, symObjAddr: 0x19C, symBinAddr: 0x1D198, symSize: 0x34 }
  - { offsetInCU: 0x5CFB, offset: 0x8C2FE, size: 0x8, addend: 0x0, symName: __ZThn48_N5agora3rtc9extension20ExtensionAudioFilter10setEnabledEb, symObjAddr: 0x1D0, symBinAddr: 0x1D1CC, symSize: 0x34 }
  - { offsetInCU: 0x5D4F, offset: 0x8C352, size: 0x8, addend: 0x0, symName: __ZNK5agora3rtc9extension20ExtensionAudioFilter9isEnabledEv, symObjAddr: 0x204, symBinAddr: 0x1D200, symSize: 0x24 }
  - { offsetInCU: 0x5DAE, offset: 0x8C3B1, size: 0x8, addend: 0x0, symName: __ZThn48_NK5agora3rtc9extension20ExtensionAudioFilter9isEnabledEv, symObjAddr: 0x228, symBinAddr: 0x1D224, symSize: 0x24 }
  - { offsetInCU: 0x5DFB, offset: 0x8C3FE, size: 0x8, addend: 0x0, symName: __ZN5agora3rtc9extension20ExtensionAudioFilter11setPropertyEPKcPKvi, symObjAddr: 0x24C, symBinAddr: 0x1D248, symSize: 0x4C }
  - { offsetInCU: 0x5E9E, offset: 0x8C4A1, size: 0x8, addend: 0x0, symName: __ZThn48_N5agora3rtc9extension20ExtensionAudioFilter11setPropertyEPKcPKvi, symObjAddr: 0x298, symBinAddr: 0x1D294, symSize: 0x4C }
  - { offsetInCU: 0x5F13, offset: 0x8C516, size: 0x8, addend: 0x0, symName: __ZNK5agora3rtc9extension20ExtensionAudioFilter11getPropertyEPKcPvi, symObjAddr: 0x2E4, symBinAddr: 0x1D2E0, symSize: 0x4C }
  - { offsetInCU: 0x5FB6, offset: 0x8C5B9, size: 0x8, addend: 0x0, symName: __ZThn48_NK5agora3rtc9extension20ExtensionAudioFilter11getPropertyEPKcPvi, symObjAddr: 0x330, symBinAddr: 0x1D32C, symSize: 0x4C }
  - { offsetInCU: 0x609E, offset: 0x8C6A1, size: 0x8, addend: 0x0, symName: __ZNK5agora3rtc9extension20ExtensionAudioFilter7getNameEv, symObjAddr: 0x37C, symBinAddr: 0x1D378, symSize: 0x1C }
  - { offsetInCU: 0x6154, offset: 0x8C757, size: 0x8, addend: 0x0, symName: __ZNK5agora3rtc9extension10IExtensionINS_5media4base13AudioPcmFrameEE7getNameEv, symObjAddr: 0x398, symBinAddr: 0x1D394, symSize: 0x1C }
  - { offsetInCU: 0x620C, offset: 0x8C80F, size: 0x8, addend: 0x0, symName: __ZThn48_NK5agora3rtc9extension20ExtensionAudioFilter7getNameEv, symObjAddr: 0x3B4, symBinAddr: 0x1D3B0, symSize: 0x1C }
  - { offsetInCU: 0x62CD, offset: 0x8C8D0, size: 0x8, addend: 0x0, symName: __ZN5agora3rtc9extension20ExtensionAudioFilter22getPreferredSampleRateEv, symObjAddr: 0x3D0, symBinAddr: 0x1D3CC, symSize: 0x48 }
  - { offsetInCU: 0x6342, offset: 0x8C945, size: 0x8, addend: 0x0, symName: __ZThn48_N5agora3rtc9extension20ExtensionAudioFilter22getPreferredSampleRateEv, symObjAddr: 0x418, symBinAddr: 0x1D414, symSize: 0x48 }
  - { offsetInCU: 0x639F, offset: 0x8C9A2, size: 0x8, addend: 0x0, symName: __ZN5agora3rtc9extension10IExtensionINS_5media4base13AudioPcmFrameEED1Ev, symObjAddr: 0x478, symBinAddr: 0x1D45C, symSize: 0x4 }
  - { offsetInCU: 0x63C2, offset: 0x8C9C5, size: 0x8, addend: 0x0, symName: __ZN5agora3rtc9extension10IExtensionINS_5media4base13AudioPcmFrameEED1Ev, symObjAddr: 0x478, symBinAddr: 0x1D45C, symSize: 0x4 }
  - { offsetInCU: 0x63EF, offset: 0x8C9F2, size: 0x8, addend: 0x0, symName: __ZN5agora3rtc9extension10IExtensionINS_5media4base13AudioPcmFrameEED0Ev, symObjAddr: 0x47C, symBinAddr: 0x1D460, symSize: 0x14 }
  - { offsetInCU: 0x27, offset: 0x8CCF8, size: 0x8, addend: 0x0, symName: __ZN5agora3rtc9extension9EGLHelperC2Ev, symObjAddr: 0x0, symBinAddr: 0x1D4CC, symSize: 0x48 }
  - { offsetInCU: 0x44A, offset: 0x8D11B, size: 0x8, addend: 0x0, symName: __ZN5agora3rtc9extension9EGLHelperC2Ev, symObjAddr: 0x0, symBinAddr: 0x1D4CC, symSize: 0x48 }
  - { offsetInCU: 0x4C5, offset: 0x8D196, size: 0x8, addend: 0x0, symName: __ZN5agora3rtc9extension9EGLHelperC1Ev, symObjAddr: 0x48, symBinAddr: 0x1D514, symSize: 0x48 }
  - { offsetInCU: 0x546, offset: 0x8D217, size: 0x8, addend: 0x0, symName: __ZN5agora3rtc9extension9EGLHelperD2Ev, symObjAddr: 0x90, symBinAddr: 0x1D55C, symSize: 0x40 }
  - { offsetInCU: 0x590, offset: 0x8D261, size: 0x8, addend: 0x0, symName: __ZN5agora3rtc9extension9EGLHelperD1Ev, symObjAddr: 0xD0, symBinAddr: 0x1D59C, symSize: 0x40 }
  - { offsetInCU: 0x5F6, offset: 0x8D2C7, size: 0x8, addend: 0x0, symName: __ZN5agora3rtc9extension9EGLHelperD0Ev, symObjAddr: 0x110, symBinAddr: 0x1D5DC, symSize: 0x40 }
  - { offsetInCU: 0x667, offset: 0x8D338, size: 0x8, addend: 0x0, symName: __ZN5agora3rtc9extension9EGLHelper4InitEPv, symObjAddr: 0x150, symBinAddr: 0x1D61C, symSize: 0x8 }
  - { offsetInCU: 0x6AC, offset: 0x8D37D, size: 0x8, addend: 0x0, symName: __ZN5agora3rtc9extension9EGLHelper4Impl4InitEv, symObjAddr: 0x158, symBinAddr: 0x1D624, symSize: 0x84 }
  - { offsetInCU: 0x6D3, offset: 0x8D3A4, size: 0x8, addend: 0x0, symName: __ZN5agora3rtc9extension9EGLHelper7ReleaseEv, symObjAddr: 0x1DC, symBinAddr: 0x1D6A8, symSize: 0x8 }
  - { offsetInCU: 0x70A, offset: 0x8D3DB, size: 0x8, addend: 0x0, symName: __ZN5agora3rtc9extension9EGLHelper4Impl7ReleaseEv, symObjAddr: 0x1E4, symBinAddr: 0x1D6B0, symSize: 0x88 }
  - { offsetInCU: 0x750, offset: 0x8D421, size: 0x8, addend: 0x0, symName: __ZN5agora3rtc9extension9EGLHelper11MakeCurrentEv, symObjAddr: 0x26C, symBinAddr: 0x1D738, symSize: 0x8 }
  - { offsetInCU: 0x787, offset: 0x8D458, size: 0x8, addend: 0x0, symName: __ZN5agora3rtc9extension9EGLHelper4Impl11MakeCurrentEv, symObjAddr: 0x274, symBinAddr: 0x1D740, symSize: 0x78 }
  - { offsetInCU: 0x7CD, offset: 0x8D49E, size: 0x8, addend: 0x0, symName: __ZN5agora3rtc9extension9EGLHelper4ImplD1Ev, symObjAddr: 0x2EC, symBinAddr: 0x1D7B8, symSize: 0x4 }
  - { offsetInCU: 0x7F0, offset: 0x8D4C1, size: 0x8, addend: 0x0, symName: __ZN5agora3rtc9extension9EGLHelper4ImplD1Ev, symObjAddr: 0x2EC, symBinAddr: 0x1D7B8, symSize: 0x4 }
  - { offsetInCU: 0x803, offset: 0x8D4D4, size: 0x8, addend: 0x0, symName: __ZN5agora3rtc9extension9EGLHelper4ImplD2Ev, symObjAddr: 0x304, symBinAddr: 0x1D7D0, symSize: 0x40 }
  - { offsetInCU: 0x85D, offset: 0x8D52E, size: 0x8, addend: 0x0, symName: __ZN5agora3rtc9extension9EGLHelper4ImplD0Ev, symObjAddr: 0x2F0, symBinAddr: 0x1D7BC, symSize: 0x14 }
  - { offsetInCU: 0x56, offset: 0x8D5DE, size: 0x8, addend: 0x0, symName: __ZN5agora3rtc9extensionL25_FaceUnity_provider_entryEv, symObjAddr: 0x0, symBinAddr: 0x1D810, symSize: 0x14 }
  - { offsetInCU: 0x551, offset: 0x8DAD9, size: 0x8, addend: 0x0, symName: __ZN5agora3rtc9extensionL27register_FaceUnity_to_agoraEv, symObjAddr: 0x14, symBinAddr: 0x1D824, symSize: 0xEC }
  - { offsetInCU: 0x6661, offset: 0x93BE9, size: 0x8, addend: 0x0, symName: __ZNSt3__119__allocate_at_leastB7v160006INS_9allocatorIN5agora3rtc18IExtensionProvider17ExtensionMetaInfoEEEEENS_19__allocation_resultINS_16allocator_traitsIT_E7pointerEEERS9_m, symObjAddr: 0x3BC, symBinAddr: 0x1DB4C, symSize: 0x34 }
  - { offsetInCU: 0xECF1, offset: 0x9C279, size: 0x8, addend: 0x0, symName: __ZN5agora3rtc9extension19FUExtensionProviderC2Ev, symObjAddr: 0x100, symBinAddr: 0x1D910, symSize: 0x20 }
  - { offsetInCU: 0xED11, offset: 0x9C299, size: 0x8, addend: 0x0, symName: __ZN5agora3rtc9extension19FUExtensionProviderD2Ev, symObjAddr: 0x120, symBinAddr: 0x1D930, symSize: 0x4 }
  - { offsetInCU: 0xED31, offset: 0x9C2B9, size: 0x8, addend: 0x0, symName: __ZN5agora3rtc9extension19FUExtensionProviderD1Ev, symObjAddr: 0x124, symBinAddr: 0x1D934, symSize: 0x4 }
  - { offsetInCU: 0xED5A, offset: 0x9C2E2, size: 0x8, addend: 0x0, symName: __ZN5agora3rtc9extension19FUExtensionProviderD0Ev, symObjAddr: 0x128, symBinAddr: 0x1D938, symSize: 0x4 }
  - { offsetInCU: 0xF12F, offset: 0x9C6B7, size: 0x8, addend: 0x0, symName: __ZN5agora3rtc9extension19FUExtensionProvider23OnPreRegisterExtensionsERNSt3__16vectorINS0_18IExtensionProvider17ExtensionMetaInfoENS3_9allocatorIS6_EEEE, symObjAddr: 0x12C, symBinAddr: 0x1D93C, symSize: 0x104 }
  - { offsetInCU: 0xF58B, offset: 0x9CB13, size: 0x8, addend: 0x0, symName: __ZN5agora3rtc9extension19FUExtensionProvider15GetProviderNameEv, symObjAddr: 0x230, symBinAddr: 0x1DA40, symSize: 0x10 }
  - { offsetInCU: 0xF59D, offset: 0x9CB25, size: 0x8, addend: 0x0, symName: __ZNKSt3__16vectorIN5agora3rtc18IExtensionProvider17ExtensionMetaInfoENS_9allocatorIS4_EEE20__throw_length_errorB7v160006Ev, symObjAddr: 0x334, symBinAddr: 0x1DB38, symSize: 0x14 }
  - { offsetInCU: 0xF607, offset: 0x9CB8F, size: 0x8, addend: 0x0, symName: __ZN5agora3rtc9extension19FUExtensionProvider15GetProviderNameEv, symObjAddr: 0x230, symBinAddr: 0x1DA40, symSize: 0x10 }
  - { offsetInCU: 0xF884, offset: 0x9CE0C, size: 0x8, addend: 0x0, symName: __ZN5agora3rtc9extension19FUExtensionProvider19OnRegisterExtensionEPNS1_20ExtensionAudioFilterE, symObjAddr: 0x240, symBinAddr: 0x1DA50, symSize: 0x4 }
  - { offsetInCU: 0xF8B4, offset: 0x9CE3C, size: 0x8, addend: 0x0, symName: __ZN5agora3rtc9extension19FUExtensionProvider19OnRegisterExtensionEPNS1_20ExtensionVideoFilterE, symObjAddr: 0x244, symBinAddr: 0x1DA54, symSize: 0x50 }
  - { offsetInCU: 0xF911, offset: 0x9CE99, size: 0x8, addend: 0x0, symName: __ZN5agora3rtc9extension19FUExtensionProvider19OnRegisterExtensionEPNS1_18ExtensionVideoSinkE, symObjAddr: 0x294, symBinAddr: 0x1DAA4, symSize: 0x4 }
  - { offsetInCU: 0xF941, offset: 0x9CEC9, size: 0x8, addend: 0x0, symName: __ZNK5agora16RefCountedObjectINS_3rtc9extension19FUExtensionProviderEE6AddRefEv, symObjAddr: 0x298, symBinAddr: 0x1DAA8, symSize: 0x18 }
  - { offsetInCU: 0xF9C2, offset: 0x9CF4A, size: 0x8, addend: 0x0, symName: __ZNK5agora16RefCountedObjectINS_3rtc9extension19FUExtensionProviderEE7ReleaseEv, symObjAddr: 0x2B0, symBinAddr: 0x1DAC0, symSize: 0x4C }
  - { offsetInCU: 0xFA65, offset: 0x9CFED, size: 0x8, addend: 0x0, symName: __ZNK5agora16RefCountedObjectINS_3rtc9extension19FUExtensionProviderEE9HasOneRefEv, symObjAddr: 0x2FC, symBinAddr: 0x1DB0C, symSize: 0x14 }
  - { offsetInCU: 0xFAFC, offset: 0x9D084, size: 0x8, addend: 0x0, symName: __ZN5agora16RefCountedObjectINS_3rtc9extension19FUExtensionProviderEED1Ev, symObjAddr: 0x310, symBinAddr: 0x1DB20, symSize: 0x4 }
  - { offsetInCU: 0xFB1E, offset: 0x9D0A6, size: 0x8, addend: 0x0, symName: __ZN5agora16RefCountedObjectINS_3rtc9extension19FUExtensionProviderEED1Ev, symObjAddr: 0x310, symBinAddr: 0x1DB20, symSize: 0x4 }
  - { offsetInCU: 0xFB39, offset: 0x9D0C1, size: 0x8, addend: 0x0, symName: __ZN5agora16RefCountedObjectINS_3rtc9extension19FUExtensionProviderEED1Ev, symObjAddr: 0x310, symBinAddr: 0x1DB20, symSize: 0x4 }
  - { offsetInCU: 0xFB6E, offset: 0x9D0F6, size: 0x8, addend: 0x0, symName: __ZN5agora16RefCountedObjectINS_3rtc9extension19FUExtensionProviderEED0Ev, symObjAddr: 0x314, symBinAddr: 0x1DB24, symSize: 0x14 }
  - { offsetInCU: 0x64, offset: 0x9E3F7, size: 0x8, addend: 0x0, symName: __ZN5agora3rtc9extension13mCameraFacingE, symObjAddr: 0x27AB8, symBinAddr: 0x4B158, symSize: 0x0 }
  - { offsetInCU: 0x7F, offset: 0x9E412, size: 0x8, addend: 0x0, symName: __ZN5agora3rtc9extension18mCameraOrientationE, symObjAddr: 0x27ABC, symBinAddr: 0x4B15C, symSize: 0x0 }
  - { offsetInCU: 0x9A, offset: 0x9E42D, size: 0x8, addend: 0x0, symName: __ZN5agora3rtc9extension18mDeviceOrientationE, symObjAddr: 0x27AC0, symBinAddr: 0x4B160, symSize: 0x0 }
  - { offsetInCU: 0xB5, offset: 0x9E448, size: 0x8, addend: 0x0, symName: __ZN5agora3rtc9extension8mRotModeE, symObjAddr: 0x27AC4, symBinAddr: 0x4B164, symSize: 0x0 }
  - { offsetInCU: 0xC3, offset: 0x9E456, size: 0x8, addend: 0x0, symName: __ZN5agora3rtc9extension29FUExtensionDelegateAPIBindingEPNS1_19FUExtensionDelegateE, symObjAddr: 0x128, symBinAddr: 0x1DCA8, symSize: 0x1838 }
  - { offsetInCU: 0xA13C, offset: 0xA84CF, size: 0x8, addend: 0x0, symName: __ZN5agora3rtc9extension18updateRotationModeEv, symObjAddr: 0x4560, symBinAddr: 0x220D4, symSize: 0xB0 }
  - { offsetInCU: 0xA1C5, offset: 0xA8558, size: 0x8, addend: 0x0, symName: __ZNSt3__1L19piecewise_constructE, symObjAddr: 0x1F2A1, symBinAddr: 0x3D589, symSize: 0x0 }
  - { offsetInCU: 0x2A6C4, offset: 0xC8A57, size: 0x8, addend: 0x0, symName: __ZNSt3__114__copy_alignedB7v160006INS_6vectorIbNS_9allocatorIbEEEELb0EEENS_14__bit_iteratorIT_Lb0EXLi0EEEENS5_IS6_XT0_EXLi0EEEES8_S7_, symObjAddr: 0xA3F0, symBinAddr: 0x27BF4, symSize: 0x154 }
  - { offsetInCU: 0x2AA23, offset: 0xC8DB6, size: 0x8, addend: 0x0, symName: __ZNSt3__116__copy_unalignedB7v160006INS_6vectorIbNS_9allocatorIbEEEELb0EEENS_14__bit_iteratorIT_Lb0EXLi0EEEENS5_IS6_XT0_EXLi0EEEES8_S7_, symObjAddr: 0xA544, symBinAddr: 0x27D48, symSize: 0x234 }
  - { offsetInCU: 0x2AA9E, offset: 0xC8E31, size: 0x8, addend: 0x0, symName: __ZNSt3__116__copy_unalignedB7v160006INS_6vectorIbNS_9allocatorIbEEEELb0EEENS_14__bit_iteratorIT_Lb0EXLi0EEEENS5_IS6_XT0_EXLi0EEEES8_S7_, symObjAddr: 0xA544, symBinAddr: 0x27D48, symSize: 0x234 }
  - { offsetInCU: 0x4AB72, offset: 0xE8F05, size: 0x8, addend: 0x0, symName: __ZNSt3__125__throw_bad_function_callB7v160006Ev, symObjAddr: 0xB498, symBinAddr: 0x28C9C, symSize: 0x34 }
  - { offsetInCU: 0x4AF8E, offset: 0xE9321, size: 0x8, addend: 0x0, symName: __ZNSt3__119__allocate_at_leastB7v160006INS_9allocatorIdEEEENS_19__allocation_resultINS_16allocator_traitsIT_E7pointerEEERS5_m, symObjAddr: 0x151B0, symBinAddr: 0x324C4, symSize: 0x34 }
  - { offsetInCU: 0x4BE98, offset: 0xEA22B, size: 0x8, addend: 0x0, symName: __ZNSt3__112__destroy_atB7v160006INS_4pairIKNS_12basic_stringIcNS_11char_traitsIcEENS_9allocatorIcEEEENS_8functionIFiRS8_EEEEELi0EEEvPT_, symObjAddr: 0x5ADC, symBinAddr: 0x233E4, symSize: 0x64 }
  - { offsetInCU: 0x4CF4E, offset: 0xEB2E1, size: 0x8, addend: 0x0, symName: __ZNSt3__1plB7v160006IcNS_11char_traitsIcEENS_9allocatorIcEEEENS_12basic_stringIT_T0_T1_EEPKS6_OS9_, symObjAddr: 0xB168, symBinAddr: 0x2896C, symSize: 0x5C }
  - { offsetInCU: 0x4DE45, offset: 0xEC1D8, size: 0x8, addend: 0x0, symName: __ZNSt3__1plB7v160006IcNS_11char_traitsIcEENS_9allocatorIcEEEENS_12basic_stringIT_T0_T1_EEOS9_PKS6_, symObjAddr: 0x6DF0, symBinAddr: 0x245F4, symSize: 0x5C }
  - { offsetInCU: 0x4E224, offset: 0xEC5B7, size: 0x8, addend: 0x0, symName: __ZNSt3__119__allocate_at_leastB7v160006INS_9allocatorImEEEENS_19__allocation_resultINS_16allocator_traitsIT_E7pointerEEERS5_m, symObjAddr: 0xA3BC, symBinAddr: 0x27BC0, symSize: 0x34 }
  - { offsetInCU: 0x4E2C2, offset: 0xEC655, size: 0x8, addend: 0x0, symName: __ZNSt3__114__copy_alignedB7v160006INS_6vectorIbNS_9allocatorIbEEEELb0EEENS_14__bit_iteratorIT_Lb0EXLi0EEEENS5_IS6_XT0_EXLi0EEEES8_S7_, symObjAddr: 0xA3F0, symBinAddr: 0x27BF4, symSize: 0x154 }
  - { offsetInCU: 0x4E9DF, offset: 0xECD72, size: 0x8, addend: 0x0, symName: __ZNSt3__119__allocate_at_leastB7v160006INS_9allocatorIPN8nlohmann10basic_jsonINS_3mapENS_6vectorENS_12basic_stringIcNS_11char_traitsIcEENS1_IcEEEEbxydS1_NS2_14adl_serializerENS5_IhNS1_IhEEEEEEEEEENS_19__allocation_resultINS_16allocator_traitsIT_E7pointerEEERSJ_m, symObjAddr: 0xB7F8, symBinAddr: 0x28FFC, symSize: 0x34 }
  - { offsetInCU: 0x4EA7D, offset: 0xECE10, size: 0x8, addend: 0x0, symName: __ZNK8nlohmann6detail9iter_implINS_10basic_jsonINSt3__13mapENS3_6vectorENS3_12basic_stringIcNS3_11char_traitsIcEENS3_9allocatorIcEEEEbxydS9_NS_14adl_serializerENS5_IhNS9_IhEEEEEEEptEv, symObjAddr: 0xB82C, symBinAddr: 0x29030, symSize: 0x11C }
  - { offsetInCU: 0x4EB98, offset: 0xECF2B, size: 0x8, addend: 0x0, symName: __ZNSt3__119__allocate_at_leastB7v160006INS_9allocatorIN8nlohmann10basic_jsonINS_3mapENS_6vectorENS_12basic_stringIcNS_11char_traitsIcEENS1_IcEEEEbxydS1_NS2_14adl_serializerENS5_IhNS1_IhEEEEEEEEEENS_19__allocation_resultINS_16allocator_traitsIT_E7pointerEEERSI_m, symObjAddr: 0xB6C4, symBinAddr: 0x28EC8, symSize: 0x34 }
  - { offsetInCU: 0x4EC36, offset: 0xECFC9, size: 0x8, addend: 0x0, symName: __ZNSt3__142__uninitialized_allocator_move_if_noexceptB7v160006INS_9allocatorIN8nlohmann10basic_jsonINS_3mapENS_6vectorENS_12basic_stringIcNS_11char_traitsIcEENS1_IcEEEEbxydS1_NS2_14adl_serializerENS5_IhNS1_IhEEEEEEEENS_16reverse_iteratorIPSE_EESI_SI_EET2_RT_T0_T1_SJ_, symObjAddr: 0xB6F8, symBinAddr: 0x28EFC, symSize: 0xA0 }
  - { offsetInCU: 0x4EC90, offset: 0xED023, size: 0x8, addend: 0x0, symName: __ZNSt3__142__uninitialized_allocator_move_if_noexceptB7v160006INS_9allocatorIN8nlohmann10basic_jsonINS_3mapENS_6vectorENS_12basic_stringIcNS_11char_traitsIcEENS1_IcEEEEbxydS1_NS2_14adl_serializerENS5_IhNS1_IhEEEEEEEENS_16reverse_iteratorIPSE_EESI_SI_EET2_RT_T0_T1_SJ_, symObjAddr: 0xB6F8, symBinAddr: 0x28EFC, symSize: 0xA0 }
  - { offsetInCU: 0x4F1E0, offset: 0xED573, size: 0x8, addend: 0x0, symName: __ZNSt3__110destroy_atB7v160006INS_4pairIKNS_12basic_stringIcNS_11char_traitsIcEENS_9allocatorIcEEEEN8nlohmann10basic_jsonINS_3mapENS_6vectorES7_bxydS5_NS9_14adl_serializerENSC_IhNS5_IhEEEEEEEELi0EEEvPT_, symObjAddr: 0xC2A0, symBinAddr: 0x29AA4, symSize: 0x3C }
  - { offsetInCU: 0x4FC56, offset: 0xEDFE9, size: 0x8, addend: 0x0, symName: __ZNSt3__130__uninitialized_allocator_copyB7v160006INS_9allocatorIN8nlohmann10basic_jsonINS_3mapENS_6vectorENS_12basic_stringIcNS_11char_traitsIcEENS1_IcEEEEbxydS1_NS2_14adl_serializerENS5_IhNS1_IhEEEEEEEEPSE_SG_SG_EET2_RT_T0_T1_SH_, symObjAddr: 0xC45C, symBinAddr: 0x29C60, symSize: 0x80 }
  - { offsetInCU: 0x50F22, offset: 0xEF2B5, size: 0x8, addend: 0x0, symName: __ZNSt3__1ssB7v160006IcNS_11char_traitsIcEENS_9allocatorIcEEEEDaRKNS_12basic_stringIT_T0_T1_EEPKS7_, symObjAddr: 0xFE58, symBinAddr: 0x2D2D8, symSize: 0x70 }
  - { offsetInCU: 0x51B95, offset: 0xEFF28, size: 0x8, addend: 0x0, symName: __ZNSt3__112__destroy_atB7v160006INS_4pairIKNS_12basic_stringIcNS_11char_traitsIcEENS_9allocatorIcEEEENS_8functionIFvvEEEEELi0EEEvPT_, symObjAddr: 0x154FC, symBinAddr: 0x326F4, symSize: 0x64 }
  - { offsetInCU: 0x52BF4, offset: 0xF0F87, size: 0x8, addend: 0x0, symName: __ZNSt3__130__uninitialized_allocator_copyB7v160006INS_9allocatorIN8nlohmann10basic_jsonINS_3mapENS_6vectorENS_12basic_stringIcNS_11char_traitsIcEENS1_IcEEEEbxydS1_NS2_14adl_serializerENS5_IhNS1_IhEEEEEEEEPKNS2_6detail8json_refISE_EESK_PSE_EET2_RT_T0_T1_SM_, symObjAddr: 0x18A50, symBinAddr: 0x35910, symSize: 0x80 }
  - { offsetInCU: 0x5319C, offset: 0xF152F, size: 0x8, addend: 0x0, symName: __ZNSt3__1lsB7v160006INS_11char_traitsIcEEEERNS_13basic_ostreamIcT_EES6_RKNS_8__iom_t4IcEE, symObjAddr: 0x1A450, symBinAddr: 0x37310, symSize: 0xA0 }
  - { offsetInCU: 0x5EB6A, offset: 0xFCEFD, size: 0x8, addend: 0x0, symName: __ZN8nlohmann6detail9dtoa_impl36get_cached_power_for_binary_exponentEi, symObjAddr: 0x1B374, symBinAddr: 0x38234, symSize: 0xB4 }
  - { offsetInCU: 0x5EB95, offset: 0xFCF28, size: 0x8, addend: 0x0, symName: __ZZN8nlohmann6detail9dtoa_impl36get_cached_power_for_binary_exponentEiE13kCachedPowers, symObjAddr: 0x23210, symBinAddr: 0x414F8, symSize: 0x0 }
  - { offsetInCU: 0x5EC83, offset: 0xFD016, size: 0x8, addend: 0x0, symName: __ZN8nlohmann6detail9dtoa_impl5diyfp3mulERKS2_S4_, symObjAddr: 0x1B428, symBinAddr: 0x382E8, symSize: 0x60 }
  - { offsetInCU: 0x5ECEE, offset: 0xFD081, size: 0x8, addend: 0x0, symName: __ZN8nlohmann6detail9dtoa_impl6grisu2IdEEvPcRiS4_T_, symObjAddr: 0x1ADF4, symBinAddr: 0x37CB4, symSize: 0x84 }
  - { offsetInCU: 0x5EDBD, offset: 0xFD150, size: 0x8, addend: 0x0, symName: __ZN8nlohmann6detail9dtoa_impl13format_bufferEPciiii, symObjAddr: 0x1AE78, symBinAddr: 0x37D38, symSize: 0x22C }
  - { offsetInCU: 0x5EDD1, offset: 0xFD164, size: 0x8, addend: 0x0, symName: __ZN8nlohmann6detail9dtoa_impl13format_bufferEPciiii, symObjAddr: 0x1AE78, symBinAddr: 0x37D38, symSize: 0x22C }
  - { offsetInCU: 0x5EEC4, offset: 0xFD257, size: 0x8, addend: 0x0, symName: __ZN8nlohmann6detail9dtoa_impl18compute_boundariesIdEENS1_10boundariesET_, symObjAddr: 0x1B0A4, symBinAddr: 0x37F64, symSize: 0x128 }
  - { offsetInCU: 0x5EECF, offset: 0xFD262, size: 0x8, addend: 0x0, symName: __ZN8nlohmann6detail9dtoa_impl18compute_boundariesIdEENS1_10boundariesET_, symObjAddr: 0x1B0A4, symBinAddr: 0x37F64, symSize: 0x128 }
  - { offsetInCU: 0x5F092, offset: 0xFD425, size: 0x8, addend: 0x0, symName: __ZN8nlohmann6detail9dtoa_impl6grisu2EPcRiS3_NS1_5diyfpES4_S4_, symObjAddr: 0x1B1CC, symBinAddr: 0x3808C, symSize: 0xE8 }
  - { offsetInCU: 0x5F0A6, offset: 0xFD439, size: 0x8, addend: 0x0, symName: __ZN8nlohmann6detail9dtoa_impl6grisu2EPcRiS3_NS1_5diyfpES4_S4_, symObjAddr: 0x1B1CC, symBinAddr: 0x3808C, symSize: 0xE8 }
  - { offsetInCU: 0x5F305, offset: 0xFD698, size: 0x8, addend: 0x0, symName: __ZN8nlohmann6detail9dtoa_impl5diyfp9normalizeES2_, symObjAddr: 0x1B2B4, symBinAddr: 0x38174, symSize: 0x54 }
  - { offsetInCU: 0x5F429, offset: 0xFD7BC, size: 0x8, addend: 0x0, symName: __ZN8nlohmann6detail9dtoa_impl16grisu2_digit_genEPcRiS3_NS1_5diyfpES4_S4_, symObjAddr: 0x1B488, symBinAddr: 0x38348, symSize: 0x298 }
  - { offsetInCU: 0x5F66F, offset: 0xFDA02, size: 0x8, addend: 0x0, symName: __ZN8nlohmann6detail9dtoa_impl5diyfp3subERKS2_S4_, symObjAddr: 0x1B720, symBinAddr: 0x385E0, symSize: 0x6C }
  - { offsetInCU: 0x5F6A4, offset: 0xFDA37, size: 0x8, addend: 0x0, symName: __ZN8nlohmann6detail9dtoa_impl12grisu2_roundEPciyyyy, symObjAddr: 0x1B78C, symBinAddr: 0x3864C, symSize: 0xAC }
  - { offsetInCU: 0x5F75B, offset: 0xFDAEE, size: 0x8, addend: 0x0, symName: __ZN8nlohmann6detail10serializerINS_10basic_jsonINSt3__13mapENS3_6vectorENS3_12basic_stringIcNS3_11char_traitsIcEENS3_9allocatorIcEEEEbxydS9_NS_14adl_serializerENS5_IhNS9_IhEEEEEEED2Ev, symObjAddr: 0x1B838, symBinAddr: 0x386F8, symSize: 0x30 }
  - { offsetInCU: 0x5FD5C, offset: 0xFE0EF, size: 0x8, addend: 0x0, symName: __ZN8nlohmann6detail9from_jsonINS_10basic_jsonINSt3__13mapENS3_6vectorENS3_12basic_stringIcNS3_11char_traitsIcEENS3_9allocatorIcEEEEbxydS9_NS_14adl_serializerENS5_IhNS9_IhEEEEEEiLi0EEEvRKT_RT0_, symObjAddr: 0x10058, symBinAddr: 0x2D4D8, symSize: 0x13C }
  - { offsetInCU: 0x60F36, offset: 0xFF2C9, size: 0x8, addend: 0x0, symName: __ZN8nlohmann6detail9from_jsonINS_10basic_jsonINSt3__13mapENS3_6vectorENS3_12basic_stringIcNS3_11char_traitsIcEENS3_9allocatorIcEEEEbxydS9_NS_14adl_serializerENS5_IhNS9_IhEEEEEEEEvRKT_RNSG_8string_tE, symObjAddr: 0x104F4, symBinAddr: 0x2D92C, symSize: 0x110 }
  - { offsetInCU: 0x61269, offset: 0xFF5FC, size: 0x8, addend: 0x0, symName: __ZN8nlohmann6detail9from_jsonINS_10basic_jsonINSt3__13mapENS3_6vectorENS3_12basic_stringIcNS3_11char_traitsIcEENS3_9allocatorIcEEEEbxydS9_NS_14adl_serializerENS5_IhNS9_IhEEEEEEEEvRKT_RNSG_9boolean_tE, symObjAddr: 0x10E30, symBinAddr: 0x2E268, symSize: 0x10C }
  - { offsetInCU: 0x6155E, offset: 0xFF8F1, size: 0x8, addend: 0x0, symName: __ZN8nlohmann6detail9from_jsonINS_10basic_jsonINSt3__13mapENS3_6vectorENS3_12basic_stringIcNS3_11char_traitsIcEENS3_9allocatorIcEEEEbxydS9_NS_14adl_serializerENS5_IhNS9_IhEEEEEEfLi0EEEvRKT_RT0_, symObjAddr: 0x11E5C, symBinAddr: 0x2F294, symSize: 0x15C }
  - { offsetInCU: 0x618A7, offset: 0xFFC3A, size: 0x8, addend: 0x0, symName: __ZN8nlohmann6detail8to_charsIdEEPcS2_PKcT_, symObjAddr: 0x1AD20, symBinAddr: 0x37BE0, symSize: 0xD4 }
  - { offsetInCU: 0x619E6, offset: 0xFFD79, size: 0x8, addend: 0x0, symName: __ZN8nlohmann6detail9dtoa_impl6grisu2IdEEvPcRiS4_T_, symObjAddr: 0x1ADF4, symBinAddr: 0x37CB4, symSize: 0x84 }
  - { offsetInCU: 0x63D5C, offset: 0x1020EF, size: 0x8, addend: 0x0, symName: __ZN17FUBindItemsTracer11getInstanceEv, symObjAddr: 0x1B90, symBinAddr: 0x1F704, symSize: 0xB8 }
  - { offsetInCU: 0x63D7C, offset: 0x10210F, size: 0x8, addend: 0x0, symName: __ZZN17FUBindItemsTracer11getInstanceEvE8instance, symObjAddr: 0x27AC8, symBinAddr: 0x4B168, symSize: 0x0 }
  - { offsetInCU: 0x6510F, offset: 0x1034A2, size: 0x8, addend: 0x0, symName: __ZN9rapidjson16GenericStringRefIcE11emptyStringE, symObjAddr: 0x2222F, symBinAddr: 0x40517, symSize: 0x0 }
  - { offsetInCU: 0x67A1D, offset: 0x105DB0, size: 0x8, addend: 0x0, symName: __ZN9rapidjson13GenericReaderINS_4UTF8IcEES2_NS_12CrtAllocatorEE19ParseStringToStreamILj0ES2_S2_NS_19GenericStringStreamIS2_EENS4_11StackStreamIcEEEEvRT2_RT3_, symObjAddr: 0x16B5C, symBinAddr: 0x33D54, symSize: 0x214 }
  - { offsetInCU: 0x67A42, offset: 0x105DD5, size: 0x8, addend: 0x0, symName: __ZZN9rapidjson13GenericReaderINS_4UTF8IcEES2_NS_12CrtAllocatorEE19ParseStringToStreamILj0ES2_S2_NS_19GenericStringStreamIS2_EENS4_11StackStreamIcEEEEvRT2_RT3_E6escape, symObjAddr: 0x2212F, symBinAddr: 0x40417, symSize: 0x0 }
  - { offsetInCU: 0x67ECA, offset: 0x10625D, size: 0x8, addend: 0x0, symName: __ZN9rapidjson13GenericReaderINS_4UTF8IcEES2_NS_12CrtAllocatorEE11StackStreamIcE3PopEv, symObjAddr: 0x16D70, symBinAddr: 0x33F68, symSize: 0x34 }
  - { offsetInCU: 0x68122, offset: 0x1064B5, size: 0x8, addend: 0x0, symName: __ZN9rapidjson12GenericValueINS_4UTF8IcEENS_19MemoryPoolAllocatorINS_12CrtAllocatorEEEEixIS5_EERS6_RKNS0_IS2_T_EE, symObjAddr: 0x17820, symBinAddr: 0x34A18, symSize: 0x60 }
  - { offsetInCU: 0x692F5, offset: 0x107688, size: 0x8, addend: 0x0, symName: __ZN8nlohmann6detail10serializerINS_10basic_jsonINSt3__13mapENS3_6vectorENS3_12basic_stringIcNS3_11char_traitsIcEENS3_9allocatorIcEEEEbxydS9_NS_14adl_serializerENS5_IhNS9_IhEEEEEEE6decodeERhRjh, symObjAddr: 0x1A2DC, symBinAddr: 0x3719C, symSize: 0x8C }
  - { offsetInCU: 0x69316, offset: 0x1076A9, size: 0x8, addend: 0x0, symName: __ZZN8nlohmann6detail10serializerINS_10basic_jsonINSt3__13mapENS3_6vectorENS3_12basic_stringIcNS3_11char_traitsIcEENS3_9allocatorIcEEEEbxydS9_NS_14adl_serializerENS5_IhNS9_IhEEEEEEE6decodeERhRjhE5utf8d, symObjAddr: 0x22D9E, symBinAddr: 0x41086, symSize: 0x0 }
  - { offsetInCU: 0x693D6, offset: 0x107769, size: 0x8, addend: 0x0, symName: __ZN8nlohmann6detail10serializerINS_10basic_jsonINSt3__13mapENS3_6vectorENS3_12basic_stringIcNS3_11char_traitsIcEENS3_9allocatorIcEEEEbxydS9_NS_14adl_serializerENS5_IhNS9_IhEEEEEEE12dump_integerIhLi0EEEvT_, symObjAddr: 0x19EA8, symBinAddr: 0x36D68, symSize: 0xAC }
  - { offsetInCU: 0x693FB, offset: 0x10778E, size: 0x8, addend: 0x0, symName: __ZZN8nlohmann6detail10serializerINS_10basic_jsonINSt3__13mapENS3_6vectorENS3_12basic_stringIcNS3_11char_traitsIcEENS3_9allocatorIcEEEEbxydS9_NS_14adl_serializerENS5_IhNS9_IhEEEEEEE12dump_integerIhLi0EEEvT_E12digits_to_99, symObjAddr: 0x22FB5, symBinAddr: 0x4129D, symSize: 0x0 }
  - { offsetInCU: 0x695D0, offset: 0x107963, size: 0x8, addend: 0x0, symName: __ZN8nlohmann6detail10serializerINS_10basic_jsonINSt3__13mapENS3_6vectorENS3_12basic_stringIcNS3_11char_traitsIcEENS3_9allocatorIcEEEEbxydS9_NS_14adl_serializerENS5_IhNS9_IhEEEEEEE12dump_integerIyLi0EEEvT_, symObjAddr: 0x19F54, symBinAddr: 0x36E14, symSize: 0x13C }
  - { offsetInCU: 0x695F5, offset: 0x107988, size: 0x8, addend: 0x0, symName: __ZZN8nlohmann6detail10serializerINS_10basic_jsonINSt3__13mapENS3_6vectorENS3_12basic_stringIcNS3_11char_traitsIcEENS3_9allocatorIcEEEEbxydS9_NS_14adl_serializerENS5_IhNS9_IhEEEEEEE12dump_integerIyLi0EEEvT_E12digits_to_99, symObjAddr: 0x2307D, symBinAddr: 0x41365, symSize: 0x0 }
  - { offsetInCU: 0x69710, offset: 0x107AA3, size: 0x8, addend: 0x0, symName: __ZN8nlohmann6detail10serializerINS_10basic_jsonINSt3__13mapENS3_6vectorENS3_12basic_stringIcNS3_11char_traitsIcEENS3_9allocatorIcEEEEbxydS9_NS_14adl_serializerENS5_IhNS9_IhEEEEEEE12dump_integerIxLi0EEEvT_, symObjAddr: 0x1A090, symBinAddr: 0x36F50, symSize: 0x1D4 }
  - { offsetInCU: 0x6972A, offset: 0x107ABD, size: 0x8, addend: 0x0, symName: __ZN8nlohmann6detail10serializerINS_10basic_jsonINSt3__13mapENS3_6vectorENS3_12basic_stringIcNS3_11char_traitsIcEENS3_9allocatorIcEEEEbxydS9_NS_14adl_serializerENS5_IhNS9_IhEEEEEEE12dump_integerIxLi0EEEvT_, symObjAddr: 0x1A090, symBinAddr: 0x36F50, symSize: 0x1D4 }
  - { offsetInCU: 0x6974F, offset: 0x107AE2, size: 0x8, addend: 0x0, symName: __ZZN8nlohmann6detail10serializerINS_10basic_jsonINSt3__13mapENS3_6vectorENS3_12basic_stringIcNS3_11char_traitsIcEENS3_9allocatorIcEEEEbxydS9_NS_14adl_serializerENS5_IhNS9_IhEEEEEEE12dump_integerIxLi0EEEvT_E12digits_to_99, symObjAddr: 0x23145, symBinAddr: 0x4142D, symSize: 0x0 }
  - { offsetInCU: 0x698B7, offset: 0x107C4A, size: 0x8, addend: 0x0, symName: __ZN8nlohmann6detail10serializerINS_10basic_jsonINSt3__13mapENS3_6vectorENS3_12basic_stringIcNS3_11char_traitsIcEENS3_9allocatorIcEEEEbxydS9_NS_14adl_serializerENS5_IhNS9_IhEEEEEEE10dump_floatEd, symObjAddr: 0x1A264, symBinAddr: 0x37124, symSize: 0x78 }
  - { offsetInCU: 0x698D1, offset: 0x107C64, size: 0x8, addend: 0x0, symName: __ZN8nlohmann6detail10serializerINS_10basic_jsonINSt3__13mapENS3_6vectorENS3_12basic_stringIcNS3_11char_traitsIcEENS3_9allocatorIcEEEEbxydS9_NS_14adl_serializerENS5_IhNS9_IhEEEEEEE10dump_floatEd, symObjAddr: 0x1A264, symBinAddr: 0x37124, symSize: 0x78 }
  - { offsetInCU: 0x6C36F, offset: 0x10A702, size: 0x8, addend: 0x0, symName: __ZNSt3__16vectorIN8nlohmann10basic_jsonINS_3mapES0_NS_12basic_stringIcNS_11char_traitsIcEENS_9allocatorIcEEEEbxydS7_NS1_14adl_serializerENS0_IhNS7_IhEEEEEENS7_ISD_EEE26__swap_out_circular_bufferERNS_14__split_bufferISD_RSE_EE, symObjAddr: 0xB63C, symBinAddr: 0x28E40, symSize: 0x74 }
  - { offsetInCU: 0x70BF2, offset: 0x10EF85, size: 0x8, addend: 0x0, symName: __ZN5agora3rtc9extension19FUExtensionDelegate14fuIsTracking_cEb, symObjAddr: 0x4BAC, symBinAddr: 0x22720, symSize: 0x1E0 }
  - { offsetInCU: 0x715C1, offset: 0x10F954, size: 0x8, addend: 0x0, symName: __ZN5agora3rtc9extension19FUExtensionDelegate31fuHumanProcessorGetNumResults_cEb, symObjAddr: 0x4FD8, symBinAddr: 0x22B4C, symSize: 0x1E0 }
  - { offsetInCU: 0x71EBB, offset: 0x11024E, size: 0x8, addend: 0x0, symName: __ZN5agora3rtc9extension19FUExtensionDelegate33fuHandDetectorGetResultNumHands_cEb, symObjAddr: 0x529C, symBinAddr: 0x22E10, symSize: 0x1E0 }
  - { offsetInCU: 0x74F03, offset: 0x113296, size: 0x8, addend: 0x0, symName: __ZN5agora3rtc9extension19FUExtensionDelegateC2Ev, symObjAddr: 0x0, symBinAddr: 0x1DB80, symSize: 0x128 }
  - { offsetInCU: 0x755D2, offset: 0x113965, size: 0x8, addend: 0x0, symName: __ZNSt3__16__treeINS_12__value_typeINS_12basic_stringIcNS_11char_traitsIcEENS_9allocatorIcEEEENS_8functionIFvvEEEEENS_19__map_value_compareIS7_SB_NS_4lessIS7_EELb1EEENS5_ISB_EEE7destroyEPNS_11__tree_nodeISB_PvEE, symObjAddr: 0x154B4, symBinAddr: 0x326AC, symSize: 0x48 }
  - { offsetInCU: 0x75758, offset: 0x113AEB, size: 0x8, addend: 0x0, symName: __ZNSt3__16__treeINS_12__value_typeINS_12basic_stringIcNS_11char_traitsIcEENS_9allocatorIcEEEEiEENS_19__map_value_compareIS7_S8_NS_4lessIS7_EELb1EEENS5_IS8_EEE7destroyEPNS_11__tree_nodeIS8_PvEE, symObjAddr: 0x15464, symBinAddr: 0x3265C, symSize: 0x50 }
  - { offsetInCU: 0x75A49, offset: 0x113DDC, size: 0x8, addend: 0x0, symName: __ZNSt3__16__treeINS_12__value_typeINS_12basic_stringIcNS_11char_traitsIcEENS_9allocatorIcEEEENS_8functionIFiRKS7_EEEEENS_19__map_value_compareIS7_SD_NS_4lessIS7_EELb1EEENS5_ISD_EEE7destroyEPNS_11__tree_nodeISD_PvEE, symObjAddr: 0x14F04, symBinAddr: 0x3233C, symSize: 0x48 }
  - { offsetInCU: 0x7BCB8, offset: 0x11A04B, size: 0x8, addend: 0x0, symName: __ZN5agora3rtc9extension24ExtensionPropertyBinding16BindPropertyFuncENSt3__112basic_stringIcNS3_11char_traitsIcEENS3_9allocatorIcEEEENS3_8functionIFiRKS9_EEE, symObjAddr: 0x5500, symBinAddr: 0x23074, symSize: 0xC0 }
  - { offsetInCU: 0x7C006, offset: 0x11A399, size: 0x8, addend: 0x0, symName: __ZN5agora3rtc9extension19FUExtensionDelegateC1Ev, symObjAddr: 0x1960, symBinAddr: 0x1F4E0, symSize: 0x4 }
  - { offsetInCU: 0x7C034, offset: 0x11A3C7, size: 0x8, addend: 0x0, symName: __ZN5agora3rtc9extension19FUExtensionDelegateC1Ev, symObjAddr: 0x1960, symBinAddr: 0x1F4E0, symSize: 0x4 }
  - { offsetInCU: 0x7C0B9, offset: 0x11A44C, size: 0x8, addend: 0x0, symName: __ZN5agora3rtc9extension19FUExtensionDelegateD2Ev, symObjAddr: 0x1964, symBinAddr: 0x1F4E4, symSize: 0xC4 }
  - { offsetInCU: 0x7C437, offset: 0x11A7CA, size: 0x8, addend: 0x0, symName: __ZN5agora3rtc9extension19FUExtensionDelegateD1Ev, symObjAddr: 0x1A34, symBinAddr: 0x1F5A8, symSize: 0x4 }
  - { offsetInCU: 0x7C45A, offset: 0x11A7ED, size: 0x8, addend: 0x0, symName: __ZN5agora3rtc9extension19FUExtensionDelegateD1Ev, symObjAddr: 0x1A34, symBinAddr: 0x1F5A8, symSize: 0x4 }
  - { offsetInCU: 0x7C489, offset: 0x11A81C, size: 0x8, addend: 0x0, symName: __ZN5agora3rtc9extension19FUExtensionDelegateD0Ev, symObjAddr: 0x1A38, symBinAddr: 0x1F5AC, symSize: 0x14 }
  - { offsetInCU: 0x7C506, offset: 0x11A899, size: 0x8, addend: 0x0, symName: __ZN5agora3rtc9extension19FUExtensionDelegate8OnCreateEPNS1_16ExtensionContextE, symObjAddr: 0x1A4C, symBinAddr: 0x1F5C0, symSize: 0x8 }
  - { offsetInCU: 0x7C53D, offset: 0x11A8D0, size: 0x8, addend: 0x0, symName: __ZN5agora3rtc9extension19FUExtensionDelegate8OnCreateEPNS1_16ExtensionContextE, symObjAddr: 0x1A4C, symBinAddr: 0x1F5C0, symSize: 0x8 }
  - { offsetInCU: 0x7C55E, offset: 0x11A8F1, size: 0x8, addend: 0x0, symName: __ZN5agora3rtc9extension19FUExtensionDelegate9OnDestroyEv, symObjAddr: 0x1A54, symBinAddr: 0x1F5C8, symSize: 0x4 }
  - { offsetInCU: 0x7C5D5, offset: 0x11A968, size: 0x8, addend: 0x0, symName: __ZN5agora3rtc9extension19FUExtensionDelegate7OnStartEv, symObjAddr: 0x1A58, symBinAddr: 0x1F5CC, symSize: 0x80 }
  - { offsetInCU: 0x7C78B, offset: 0x11AB1E, size: 0x8, addend: 0x0, symName: __ZN5agora3rtc9extension19FUExtensionDelegate6OnStopEv, symObjAddr: 0x1AD8, symBinAddr: 0x1F64C, symSize: 0xB8 }
  - { offsetInCU: 0x7CBE9, offset: 0x11AF7C, size: 0x8, addend: 0x0, symName: __ZNSt3__110unique_ptrI17FUBindItemsTracerNS_14default_deleteIS1_EEE5resetB7v160006EPS1_, symObjAddr: 0x14F74, symBinAddr: 0x323AC, symSize: 0x40 }
  - { offsetInCU: 0x7CD7B, offset: 0x11B10E, size: 0x8, addend: 0x0, symName: __ZN5agora3rtc9extension19FUExtensionDelegate10SetEnabledEb, symObjAddr: 0x1C48, symBinAddr: 0x1F7BC, symSize: 0xC }
  - { offsetInCU: 0x7CE65, offset: 0x11B1F8, size: 0x8, addend: 0x0, symName: __ZNK5agora3rtc9extension19FUExtensionDelegate9IsEnabledEv, symObjAddr: 0x1C54, symBinAddr: 0x1F7C8, symSize: 0x10 }
  - { offsetInCU: 0x7E089, offset: 0x11C41C, size: 0x8, addend: 0x0, symName: __ZN5agora3rtc9extension19FUExtensionDelegate11SetPropertyEPKcPKvm, symObjAddr: 0x1C64, symBinAddr: 0x1F7D8, symSize: 0x1BE8 }
  - { offsetInCU: 0x84D16, offset: 0x1230A9, size: 0x8, addend: 0x0, symName: __ZN5agora3rtc9extension24ExtensionPropertyBinding19ProcessPropertyFuncERKNSt3__112basic_stringIcNS3_11char_traitsIcEENS3_9allocatorIcEEEESB_, symObjAddr: 0x384C, symBinAddr: 0x213C0, symSize: 0x58 }
  - { offsetInCU: 0x84E43, offset: 0x1231D6, size: 0x8, addend: 0x0, symName: __ZNK9rapidjson12GenericValueINS_4UTF8IcEENS_19MemoryPoolAllocatorINS_12CrtAllocatorEEEE9HasMemberEPKc, symObjAddr: 0x38A4, symBinAddr: 0x21418, symSize: 0x58 }
  - { offsetInCU: 0x84E4E, offset: 0x1231E1, size: 0x8, addend: 0x0, symName: __ZN9rapidjson15GenericDocumentINS_4UTF8IcEENS_19MemoryPoolAllocatorINS_12CrtAllocatorEEES4_EC2EPS5_mPS4_, symObjAddr: 0x15560, symBinAddr: 0x32758, symSize: 0x94 }
  - { offsetInCU: 0x84FF1, offset: 0x123384, size: 0x8, addend: 0x0, symName: __ZN9rapidjson15GenericDocumentINS_4UTF8IcEENS_19MemoryPoolAllocatorINS_12CrtAllocatorEEES4_E11ParseStreamILj0ES2_NS_19GenericStringStreamIS2_EEEERS6_RT1_, symObjAddr: 0x157DC, symBinAddr: 0x329D4, symSize: 0x118 }
  - { offsetInCU: 0x853F9, offset: 0x12378C, size: 0x8, addend: 0x0, symName: __ZN9rapidjson15GenericDocumentINS_4UTF8IcEENS_19MemoryPoolAllocatorINS_12CrtAllocatorEEES4_ED2Ev, symObjAddr: 0x156A0, symBinAddr: 0x32898, symSize: 0x40 }
  - { offsetInCU: 0x854DC, offset: 0x12386F, size: 0x8, addend: 0x0, symName: __ZNK9rapidjson12GenericValueINS_4UTF8IcEENS_19MemoryPoolAllocatorINS_12CrtAllocatorEEEE9HasMemberEPKc, symObjAddr: 0x38A4, symBinAddr: 0x21418, symSize: 0x58 }
  - { offsetInCU: 0x855C2, offset: 0x123955, size: 0x8, addend: 0x0, symName: __ZN9rapidjson12GenericValueINS_4UTF8IcEENS_19MemoryPoolAllocatorINS_12CrtAllocatorEEEEixIKcEENS_8internal9DisableIfINS9_15RemoveSfinaeTagIPFRNS9_9SfinaeTagENS9_7NotExprINS9_6IsSameINS9_11RemoveConstIT_E4TypeEcEEEEEE4TypeERS6_E4TypeEPSH_, symObjAddr: 0x38FC, symBinAddr: 0x21470, symSize: 0x84 }
  - { offsetInCU: 0x855CD, offset: 0x123960, size: 0x8, addend: 0x0, symName: __ZN9rapidjson12GenericValueINS_4UTF8IcEENS_19MemoryPoolAllocatorINS_12CrtAllocatorEEEEixIKcEENS_8internal9DisableIfINS9_15RemoveSfinaeTagIPFRNS9_9SfinaeTagENS9_7NotExprINS9_6IsSameINS9_11RemoveConstIT_E4TypeEcEEEEEE4TypeERS6_E4TypeEPSH_, symObjAddr: 0x38FC, symBinAddr: 0x21470, symSize: 0x84 }
  - { offsetInCU: 0x85760, offset: 0x123AF3, size: 0x8, addend: 0x0, symName: __ZNK9rapidjson12GenericArrayILb0ENS_12GenericValueINS_4UTF8IcEENS_19MemoryPoolAllocatorINS_12CrtAllocatorEEEEEE3endEv, symObjAddr: 0x3980, symBinAddr: 0x214F4, symSize: 0x34 }
  - { offsetInCU: 0x857DB, offset: 0x123B6E, size: 0x8, addend: 0x0, symName: __ZN5agora3rtc9extension17ExtensionDelegateINS0_14VideoFrameDataEE3LogENS_7commons9LOG_LEVELERKNSt3__112basic_stringIcNS7_11char_traitsIcEENS7_9allocatorIcEEEE, symObjAddr: 0x39B4, symBinAddr: 0x21528, symSize: 0xF4 }
  - { offsetInCU: 0x8580D, offset: 0x123BA0, size: 0x8, addend: 0x0, symName: __ZN5agora3rtc9extension17ExtensionDelegateINS0_14VideoFrameDataEE3LogENS_7commons9LOG_LEVELERKNSt3__112basic_stringIcNS7_11char_traitsIcEENS7_9allocatorIcEEEE, symObjAddr: 0x39B4, symBinAddr: 0x21528, symSize: 0xF4 }
  - { offsetInCU: 0x85A1D, offset: 0x123DB0, size: 0x8, addend: 0x0, symName: __ZNK9rapidjson12GenericValueINS_4UTF8IcEENS_19MemoryPoolAllocatorINS_12CrtAllocatorEEEE9GetStringEv, symObjAddr: 0x3AA8, symBinAddr: 0x2161C, symSize: 0x28 }
  - { offsetInCU: 0x85A81, offset: 0x123E14, size: 0x8, addend: 0x0, symName: __ZNK9rapidjson12GenericValueINS_4UTF8IcEENS_19MemoryPoolAllocatorINS_12CrtAllocatorEEEEeqEPKc, symObjAddr: 0x3AD0, symBinAddr: 0x21644, symSize: 0x84 }
  - { offsetInCU: 0x85AC9, offset: 0x123E5C, size: 0x8, addend: 0x0, symName: __ZNSt3__16__treeINS_12__value_typeINS_12basic_stringIcNS_11char_traitsIcEENS_9allocatorIcEEEEiEENS_19__map_value_compareIS7_S8_NS_4lessIS7_EELb1EEENS5_IS8_EEE25__emplace_unique_key_argsIS7_JRKNS_21piecewise_construct_tENS_5tupleIJOS7_EEENSJ_IJEEEEEENS_4pairINS_15__tree_iteratorIS8_PNS_11__tree_nodeIS8_PvEElEEbEERKT_DpOT0_, symObjAddr: 0x17BB8, symBinAddr: 0x34A78, symSize: 0x98 }
  - { offsetInCU: 0x85DDF, offset: 0x124172, size: 0x8, addend: 0x0, symName: __ZNK9rapidjson12GenericValueINS_4UTF8IcEENS_19MemoryPoolAllocatorINS_12CrtAllocatorEEEEeqEPKc, symObjAddr: 0x3AD0, symBinAddr: 0x21644, symSize: 0x84 }
  - { offsetInCU: 0x85F63, offset: 0x1242F6, size: 0x8, addend: 0x0, symName: __ZNSt3__16vectorIiNS_9allocatorIiEEE9push_backB7v160006ERKi, symObjAddr: 0x3CA4, symBinAddr: 0x21818, symSize: 0xE4 }
  - { offsetInCU: 0x86332, offset: 0x1246C5, size: 0x8, addend: 0x0, symName: __ZN5agora3rtc9extension19FUExtensionDelegate18fuUnbindAllItems_cERKNSt3__112basic_stringIcNS3_11char_traitsIcEENS3_9allocatorIcEEEE, symObjAddr: 0x3D88, symBinAddr: 0x218FC, symSize: 0x8 }
  - { offsetInCU: 0x8656D, offset: 0x124900, size: 0x8, addend: 0x0, symName: __ZNK9rapidjson12GenericValueINS_4UTF8IcEENS_19MemoryPoolAllocatorINS_12CrtAllocatorEEEE15GetStringLengthEv, symObjAddr: 0x3D90, symBinAddr: 0x21904, symSize: 0x34 }
  - { offsetInCU: 0x865D1, offset: 0x124964, size: 0x8, addend: 0x0, symName: __ZL13base64_decodeRKNSt3__112basic_stringIcNS_11char_traitsIcEENS_9allocatorIcEEEE, symObjAddr: 0x3DC4, symBinAddr: 0x21938, symSize: 0x12C }
  - { offsetInCU: 0x867D4, offset: 0x124B67, size: 0x8, addend: 0x0, symName: __ZNSt3__16vectorIiNS_9allocatorIiEEEC2EmRKi, symObjAddr: 0x152C0, symBinAddr: 0x324F8, symSize: 0x80 }
  - { offsetInCU: 0x867E5, offset: 0x124B78, size: 0x8, addend: 0x0, symName: __ZL13base64_decodeRKNSt3__112basic_stringIcNS_11char_traitsIcEENS_9allocatorIcEEEE, symObjAddr: 0x3DC4, symBinAddr: 0x21938, symSize: 0x12C }
  - { offsetInCU: 0x86DA3, offset: 0x125136, size: 0x8, addend: 0x0, symName: __ZNSt3__16vectorIhNS_9allocatorIhEEEC2INS_11__wrap_iterIPcEELi0EEET_S8_, symObjAddr: 0x15380, symBinAddr: 0x32578, symSize: 0x80 }
  - { offsetInCU: 0x870C7, offset: 0x12545A, size: 0x8, addend: 0x0, symName: __ZN5agora3rtc9extension19FUExtensionDelegate20fuCreateTexForItem_cERKNSt3__112basic_stringIcNS3_11char_traitsIcEENS3_9allocatorIcEEEESB_RKNS3_6vectorIhNS7_IhEEEEii, symObjAddr: 0x3EF0, symBinAddr: 0x21A64, symSize: 0xF0 }
  - { offsetInCU: 0x8759D, offset: 0x125930, size: 0x8, addend: 0x0, symName: __ZN5agora3rtc9extension19FUExtensionDelegate20fuDeleteTexForItem_cERKNSt3__112basic_stringIcNS3_11char_traitsIcEENS3_9allocatorIcEEEESB_, symObjAddr: 0x3FE0, symBinAddr: 0x21B54, symSize: 0xC8 }
  - { offsetInCU: 0x87A37, offset: 0x125DCA, size: 0x8, addend: 0x0, symName: __ZNK9rapidjson12GenericValueINS_4UTF8IcEENS_19MemoryPoolAllocatorINS_12CrtAllocatorEEEE9GetDoubleEv, symObjAddr: 0x3B54, symBinAddr: 0x216C8, symSize: 0x64 }
  - { offsetInCU: 0x87A8C, offset: 0x125E1F, size: 0x8, addend: 0x0, symName: __ZNSt3__16vectorIdNS_9allocatorIdEEE9push_backB7v160006EOd, symObjAddr: 0x3BB8, symBinAddr: 0x2172C, symSize: 0xEC }
  - { offsetInCU: 0x87A97, offset: 0x125E2A, size: 0x8, addend: 0x0, symName: __ZNSt3__16vectorIdNS_9allocatorIdEEE9push_backB7v160006EOd, symObjAddr: 0x3BB8, symBinAddr: 0x2172C, symSize: 0xEC }
  - { offsetInCU: 0x87E89, offset: 0x12621C, size: 0x8, addend: 0x0, symName: __ZNSt3__16vectorIiNS_9allocatorIiEEE9push_backB7v160006ERKi, symObjAddr: 0x3CA4, symBinAddr: 0x21818, symSize: 0xE4 }
  - { offsetInCU: 0x87F0F, offset: 0x1262A2, size: 0x8, addend: 0x0, symName: __ZNKSt3__16vectorIdNS_9allocatorIdEEE20__throw_length_errorB7v160006Ev, symObjAddr: 0x1519C, symBinAddr: 0x324B0, symSize: 0x14 }
  - { offsetInCU: 0x87FCE, offset: 0x126361, size: 0x8, addend: 0x0, symName: __ZNSt3__16__treeINS_12__value_typeINS_12basic_stringIcNS_11char_traitsIcEENS_9allocatorIcEEEENS_8functionIFiRKS7_EEEEENS_19__map_value_compareIS7_SD_NS_4lessIS7_EELb1EEENS5_ISD_EEE4findIS7_EENS_15__tree_iteratorISD_PNS_11__tree_nodeISD_PvEElEERKT_, symObjAddr: 0x15070, symBinAddr: 0x32434, symSize: 0x7C }
  - { offsetInCU: 0x881C5, offset: 0x126558, size: 0x8, addend: 0x0, symName: __ZN9rapidjson12GenericValueINS_4UTF8IcEENS_19MemoryPoolAllocatorINS_12CrtAllocatorEEEE10FindMemberEPKc, symObjAddr: 0x17620, symBinAddr: 0x34818, symSize: 0x8C }
  - { offsetInCU: 0x88342, offset: 0x1266D5, size: 0x8, addend: 0x0, symName: __ZNK9rapidjson12GenericValueINS_4UTF8IcEENS_19MemoryPoolAllocatorINS_12CrtAllocatorEEEE9HasMemberEPKc.cold.1, symObjAddr: 0x1BF7C, symBinAddr: 0x392E4, symSize: 0x24 }
  - { offsetInCU: 0x8847B, offset: 0x12680E, size: 0x8, addend: 0x0, symName: __ZN9rapidjson16GenericStringRefIcE13NotNullStrLenEPKc, symObjAddr: 0x176D8, symBinAddr: 0x348D0, symSize: 0x20 }
  - { offsetInCU: 0x884D2, offset: 0x126865, size: 0x8, addend: 0x0, symName: __ZN9rapidjson12GenericValueINS_4UTF8IcEENS_19MemoryPoolAllocatorINS_12CrtAllocatorEEEE12DoFindMemberIS5_EENS_21GenericMemberIteratorILb0ES2_S5_EERKNS0_IS2_T_EE, symObjAddr: 0x176F8, symBinAddr: 0x348F0, symSize: 0x8C }
  - { offsetInCU: 0x884F3, offset: 0x126886, size: 0x8, addend: 0x0, symName: __ZNK9rapidjson12GenericArrayILb0ENS_12GenericValueINS_4UTF8IcEENS_19MemoryPoolAllocatorINS_12CrtAllocatorEEEEEE3endEv.cold.1, symObjAddr: 0x1BFA0, symBinAddr: 0x39308, symSize: 0x28 }
  - { offsetInCU: 0x88613, offset: 0x1269A6, size: 0x8, addend: 0x0, symName: __ZNK9rapidjson12GenericValueINS_4UTF8IcEENS_19MemoryPoolAllocatorINS_12CrtAllocatorEEEE9GetStringEv.cold.1, symObjAddr: 0x1BFC8, symBinAddr: 0x39330, symSize: 0x28 }
  - { offsetInCU: 0x8862B, offset: 0x1269BE, size: 0x8, addend: 0x0, symName: __ZNK9rapidjson12GenericValueINS_4UTF8IcEENS_19MemoryPoolAllocatorINS_12CrtAllocatorEEEEeqIS5_EEbRKNS0_IS2_T_EE, symObjAddr: 0x17D34, symBinAddr: 0x34BF4, symSize: 0x1E0 }
  - { offsetInCU: 0x889B4, offset: 0x126D47, size: 0x8, addend: 0x0, symName: __ZN9rapidjson12GenericValueINS_4UTF8IcEENS_19MemoryPoolAllocatorINS_12CrtAllocatorEEEEixEj, symObjAddr: 0x17F14, symBinAddr: 0x34DD4, symSize: 0x3C }
  - { offsetInCU: 0x889DE, offset: 0x126D71, size: 0x8, addend: 0x0, symName: __ZNK9rapidjson12GenericValueINS_4UTF8IcEENS_19MemoryPoolAllocatorINS_12CrtAllocatorEEEE9GetDoubleEv.cold.1, symObjAddr: 0x1BFF0, symBinAddr: 0x39358, symSize: 0x28 }
  - { offsetInCU: 0x889F6, offset: 0x126D89, size: 0x8, addend: 0x0, symName: __ZNK9rapidjson12GenericValueINS_4UTF8IcEENS_19MemoryPoolAllocatorINS_12CrtAllocatorEEEE9GetDoubleEv.cold.2, symObjAddr: 0x1C018, symBinAddr: 0x39380, symSize: 0x28 }
  - { offsetInCU: 0x88CD3, offset: 0x127066, size: 0x8, addend: 0x0, symName: __ZNKSt3__16vectorIdNS_9allocatorIdEEE20__throw_length_errorB7v160006Ev, symObjAddr: 0x1519C, symBinAddr: 0x324B0, symSize: 0x14 }
  - { offsetInCU: 0x88CFD, offset: 0x127090, size: 0x8, addend: 0x0, symName: __ZNSt3__119__allocate_at_leastB7v160006INS_9allocatorIdEEEENS_19__allocation_resultINS_16allocator_traitsIT_E7pointerEEERS5_m, symObjAddr: 0x151B0, symBinAddr: 0x324C4, symSize: 0x34 }
  - { offsetInCU: 0x89031, offset: 0x1273C4, size: 0x8, addend: 0x0, symName: __ZN5agora3rtc9extension19FUExtensionDelegate18fuUnbindAllItems_cERKNSt3__112basic_stringIcNS3_11char_traitsIcEENS3_9allocatorIcEEEE, symObjAddr: 0x3D88, symBinAddr: 0x218FC, symSize: 0x8 }
  - { offsetInCU: 0x89077, offset: 0x12740A, size: 0x8, addend: 0x0, symName: __ZNK9rapidjson12GenericValueINS_4UTF8IcEENS_19MemoryPoolAllocatorINS_12CrtAllocatorEEEE15GetStringLengthEv.cold.1, symObjAddr: 0x1C040, symBinAddr: 0x393A8, symSize: 0x28 }
  - { offsetInCU: 0x891FB, offset: 0x12758E, size: 0x8, addend: 0x0, symName: __ZNSt3__16vectorIiNS_9allocatorIiEEEC2EmRKi, symObjAddr: 0x152C0, symBinAddr: 0x324F8, symSize: 0x80 }
  - { offsetInCU: 0x8956C, offset: 0x1278FF, size: 0x8, addend: 0x0, symName: __ZNSt3__16__treeINS_12__value_typeINS_12basic_stringIcNS_11char_traitsIcEENS_9allocatorIcEEEEiEENS_19__map_value_compareIS7_S8_NS_4lessIS7_EELb1EEENS5_IS8_EEE4findIS7_EENS_15__tree_iteratorIS8_PNS_11__tree_nodeIS8_PvEElEERKT_, symObjAddr: 0x17F50, symBinAddr: 0x34E10, symSize: 0x7C }
  - { offsetInCU: 0x8971D, offset: 0x127AB0, size: 0x8, addend: 0x0, symName: __ZN5agora3rtc9extension19FUExtensionDelegate15fuSetLogLevel_cEi, symObjAddr: 0x40A8, symBinAddr: 0x21C1C, symSize: 0x20 }
  - { offsetInCU: 0x89763, offset: 0x127AF6, size: 0x8, addend: 0x0, symName: __ZN5agora3rtc9extension19FUExtensionDelegate11GetPropertyEPKcPvm, symObjAddr: 0x40C8, symBinAddr: 0x21C3C, symSize: 0x30 }
  - { offsetInCU: 0x89825, offset: 0x127BB8, size: 0x8, addend: 0x0, symName: __ZN5agora3rtc9extension19FUExtensionDelegate18GetExtensionConfigERNS1_15ExtensionConfigE, symObjAddr: 0x40F8, symBinAddr: 0x21C6C, symSize: 0x1C }
  - { offsetInCU: 0x89859, offset: 0x127BEC, size: 0x8, addend: 0x0, symName: __ZN5agora3rtc9extension19FUExtensionDelegate28ProcessEffectByCVPixelBufferERNS0_14VideoFrameDataERKNSt3__16vectorIiNS5_9allocatorIiEEEE, symObjAddr: 0x4114, symBinAddr: 0x21C88, symSize: 0x158 }
  - { offsetInCU: 0x89DF7, offset: 0x12818A, size: 0x8, addend: 0x0, symName: __ZN5agora3rtc9extension19FUExtensionDelegate12ProcessFrameERNS0_14VideoFrameDataE, symObjAddr: 0x426C, symBinAddr: 0x21DE0, symSize: 0x78 }
  - { offsetInCU: 0x89EFD, offset: 0x128290, size: 0x8, addend: 0x0, symName: __ZN5agora3rtc9extension19FUExtensionDelegate13ProcessEffectERNS0_14VideoFrameDataE, symObjAddr: 0x42E4, symBinAddr: 0x21E58, symSize: 0x27C }
  - { offsetInCU: 0x8AC7F, offset: 0x129012, size: 0x8, addend: 0x0, symName: __ZN5agora3rtc9extension19FUExtensionDelegate18ProcessEffectByYUVERNS0_14VideoFrameDataERKNSt3__16vectorIiNS5_9allocatorIiEEEE, symObjAddr: 0x46C0, symBinAddr: 0x22234, symSize: 0xC4 }
  - { offsetInCU: 0x8ADFD, offset: 0x129190, size: 0x8, addend: 0x0, symName: __ZN5agora3rtc9extension19FUExtensionDelegate10ProcessOpsEv, symObjAddr: 0x4610, symBinAddr: 0x22184, symSize: 0xB0 }
  - { offsetInCU: 0x8B153, offset: 0x1294E6, size: 0x8, addend: 0x0, symName: __ZN5agora3rtc9extension19FUExtensionDelegate18fuReleaseAIModel_cEi, symObjAddr: 0x4784, symBinAddr: 0x222F8, symSize: 0x94 }
  - { offsetInCU: 0x8B46F, offset: 0x129802, size: 0x8, addend: 0x0, symName: __ZThn40_N5agora3rtc9extension19FUExtensionDelegate18fuReleaseAIModel_cEi, symObjAddr: 0x4818, symBinAddr: 0x2238C, symSize: 0x8 }
  - { offsetInCU: 0x8B60F, offset: 0x1299A2, size: 0x8, addend: 0x0, symName: __ZN5agora3rtc9extension19FUExtensionDelegate15fuDestroyItem_cENSt3__112basic_stringIcNS3_11char_traitsIcEENS3_9allocatorIcEEEE, symObjAddr: 0x4820, symBinAddr: 0x22394, symSize: 0xF4 }
  - { offsetInCU: 0x8BB71, offset: 0x129F04, size: 0x8, addend: 0x0, symName: __ZNSt3__16__treeINS_12__value_typeINS_12basic_stringIcNS_11char_traitsIcEENS_9allocatorIcEEEEiEENS_19__map_value_compareIS7_S8_NS_4lessIS7_EELb1EEENS5_IS8_EEE5eraseENS_21__tree_const_iteratorIS8_PNS_11__tree_nodeIS8_PvEElEE, symObjAddr: 0x17FCC, symBinAddr: 0x34E8C, symSize: 0x40 }
  - { offsetInCU: 0x8BE2F, offset: 0x12A1C2, size: 0x8, addend: 0x0, symName: __ZThn40_N5agora3rtc9extension19FUExtensionDelegate15fuDestroyItem_cENSt3__112basic_stringIcNS3_11char_traitsIcEENS3_9allocatorIcEEEE, symObjAddr: 0x4914, symBinAddr: 0x22488, symSize: 0x8 }
  - { offsetInCU: 0x8BE8B, offset: 0x12A21E, size: 0x8, addend: 0x0, symName: __ZN5agora3rtc9extension19FUExtensionDelegate19fuDestroyAllItems_cEv, symObjAddr: 0x491C, symBinAddr: 0x22490, symSize: 0x104 }
  - { offsetInCU: 0x8C368, offset: 0x12A6FB, size: 0x8, addend: 0x0, symName: __ZThn40_N5agora3rtc9extension19FUExtensionDelegate19fuDestroyAllItems_cEv, symObjAddr: 0x4A20, symBinAddr: 0x22594, symSize: 0x1C }
  - { offsetInCU: 0x8C38E, offset: 0x12A721, size: 0x8, addend: 0x0, symName: __ZN5agora3rtc9extension19FUExtensionDelegate16fuOnDeviceLost_cEv, symObjAddr: 0x4A3C, symBinAddr: 0x225B0, symSize: 0x18 }
  - { offsetInCU: 0x8C3D4, offset: 0x12A767, size: 0x8, addend: 0x0, symName: __ZThn40_N5agora3rtc9extension19FUExtensionDelegate16fuOnDeviceLost_cEv, symObjAddr: 0x4A54, symBinAddr: 0x225C8, symSize: 0x18 }
  - { offsetInCU: 0x8C40E, offset: 0x12A7A1, size: 0x8, addend: 0x0, symName: __ZN5agora3rtc9extension19FUExtensionDelegate18fuDestroyLibData_cEv, symObjAddr: 0x4A6C, symBinAddr: 0x225E0, symSize: 0x124 }
  - { offsetInCU: 0x8C7DD, offset: 0x12AB70, size: 0x8, addend: 0x0, symName: __ZThn40_N5agora3rtc9extension19FUExtensionDelegate18fuDestroyLibData_cEv, symObjAddr: 0x4B90, symBinAddr: 0x22704, symSize: 0x1C }
  - { offsetInCU: 0x8CC76, offset: 0x12B009, size: 0x8, addend: 0x0, symName: __ZNSt3__110__function12__value_funcIFvvEEC2B7v160006EOS3_, symObjAddr: 0x15400, symBinAddr: 0x325F8, symSize: 0x64 }
  - { offsetInCU: 0x8CCC4, offset: 0x12B057, size: 0x8, addend: 0x0, symName: __ZNSt3__16__treeINS_12__value_typeINS_12basic_stringIcNS_11char_traitsIcEENS_9allocatorIcEEEENS_8functionIFvvEEEEENS_19__map_value_compareIS7_SB_NS_4lessIS7_EELb1EEENS5_ISB_EEE21__emplace_unique_implIJNS_4pairIPKcSA_EEEEENSJ_INS_15__tree_iteratorISB_PNS_11__tree_nodeISB_PvEElEEbEEDpOT_, symObjAddr: 0x1B868, symBinAddr: 0x38728, symSize: 0x98 }
  - { offsetInCU: 0x8CE9D, offset: 0x12B230, size: 0x8, addend: 0x0, symName: __ZNSt3__16__treeINS_12__value_typeINS_12basic_stringIcNS_11char_traitsIcEENS_9allocatorIcEEEENS_8functionIFvvEEEEENS_19__map_value_compareIS7_SB_NS_4lessIS7_EELb1EEENS5_ISB_EEE14__erase_uniqueIS7_EEmRKT_, symObjAddr: 0x1BAA0, symBinAddr: 0x38960, symSize: 0x58 }
  - { offsetInCU: 0x8D073, offset: 0x12B406, size: 0x8, addend: 0x0, symName: __ZThn40_N5agora3rtc9extension19FUExtensionDelegate14fuIsTracking_cEb, symObjAddr: 0x4D8C, symBinAddr: 0x22900, symSize: 0x1C }
  - { offsetInCU: 0x8D0A0, offset: 0x12B433, size: 0x8, addend: 0x0, symName: __ZN5agora3rtc9extension19FUExtensionDelegate15fuSetMaxFaces_cEi, symObjAddr: 0x4DA8, symBinAddr: 0x2291C, symSize: 0x94 }
  - { offsetInCU: 0x8D429, offset: 0x12B7BC, size: 0x8, addend: 0x0, symName: __ZThn40_N5agora3rtc9extension19FUExtensionDelegate15fuSetMaxFaces_cEi, symObjAddr: 0x4E3C, symBinAddr: 0x229B0, symSize: 0x8 }
  - { offsetInCU: 0x8D457, offset: 0x12B7EA, size: 0x8, addend: 0x0, symName: __ZN5agora3rtc9extension19FUExtensionDelegate15fuGetFaceInfo_cEiNSt3__112basic_stringIcNS3_11char_traitsIcEENS3_9allocatorIcEEEEi, symObjAddr: 0x4E44, symBinAddr: 0x229B8, symSize: 0x8 }
  - { offsetInCU: 0x8D4A1, offset: 0x12B834, size: 0x8, addend: 0x0, symName: __ZThn40_N5agora3rtc9extension19FUExtensionDelegate15fuGetFaceInfo_cEiNSt3__112basic_stringIcNS3_11char_traitsIcEENS3_9allocatorIcEEEEi, symObjAddr: 0x4E4C, symBinAddr: 0x229C0, symSize: 0x8 }
  - { offsetInCU: 0x8D4B8, offset: 0x12B84B, size: 0x8, addend: 0x0, symName: __ZN5agora3rtc9extension19FUExtensionDelegate21fuGetFaceIdentifier_cEi, symObjAddr: 0x4E54, symBinAddr: 0x229C8, symSize: 0x94 }
  - { offsetInCU: 0x8D841, offset: 0x12BBD4, size: 0x8, addend: 0x0, symName: __ZThn40_N5agora3rtc9extension19FUExtensionDelegate21fuGetFaceIdentifier_cEi, symObjAddr: 0x4EE8, symBinAddr: 0x22A5C, symSize: 0x8 }
  - { offsetInCU: 0x8D86F, offset: 0x12BC02, size: 0x8, addend: 0x0, symName: __ZN5agora3rtc9extension19FUExtensionDelegate26fuSetDefaultRotationMode_cEi, symObjAddr: 0x4EF0, symBinAddr: 0x22A64, symSize: 0x8 }
  - { offsetInCU: 0x8D8E0, offset: 0x12BC73, size: 0x8, addend: 0x0, symName: __ZThn40_N5agora3rtc9extension19FUExtensionDelegate26fuSetDefaultRotationMode_cEi, symObjAddr: 0x4EF8, symBinAddr: 0x22A6C, symSize: 0x8 }
  - { offsetInCU: 0x8D92A, offset: 0x12BCBD, size: 0x8, addend: 0x0, symName: __ZN5agora3rtc9extension19FUExtensionDelegate32fuFaceProcessorSetMinFaceRatio_cEf, symObjAddr: 0x4F00, symBinAddr: 0x22A74, symSize: 0x4 }
  - { offsetInCU: 0x8D954, offset: 0x12BCE7, size: 0x8, addend: 0x0, symName: __ZN5agora3rtc9extension19FUExtensionDelegate32fuFaceProcessorSetMinFaceRatio_cEf, symObjAddr: 0x4F00, symBinAddr: 0x22A74, symSize: 0x4 }
  - { offsetInCU: 0x8D99C, offset: 0x12BD2F, size: 0x8, addend: 0x0, symName: __ZThn40_N5agora3rtc9extension19FUExtensionDelegate32fuFaceProcessorSetMinFaceRatio_cEf, symObjAddr: 0x4F04, symBinAddr: 0x22A78, symSize: 0x4 }
  - { offsetInCU: 0x8D9B7, offset: 0x12BD4A, size: 0x8, addend: 0x0, symName: __ZThn40_N5agora3rtc9extension19FUExtensionDelegate32fuFaceProcessorSetMinFaceRatio_cEf, symObjAddr: 0x4F04, symBinAddr: 0x22A78, symSize: 0x4 }
  - { offsetInCU: 0x8D9D4, offset: 0x12BD67, size: 0x8, addend: 0x0, symName: __ZThn40_N5agora3rtc9extension19FUExtensionDelegate32fuFaceProcessorSetMinFaceRatio_cEf, symObjAddr: 0x4F04, symBinAddr: 0x22A78, symSize: 0x4 }
  - { offsetInCU: 0x8D9E9, offset: 0x12BD7C, size: 0x8, addend: 0x0, symName: __ZN5agora3rtc9extension19FUExtensionDelegate22fuSetTrackFaceAIType_cEi, symObjAddr: 0x4F08, symBinAddr: 0x22A7C, symSize: 0x8 }
  - { offsetInCU: 0x8DA50, offset: 0x12BDE3, size: 0x8, addend: 0x0, symName: __ZThn40_N5agora3rtc9extension19FUExtensionDelegate22fuSetTrackFaceAIType_cEi, symObjAddr: 0x4F10, symBinAddr: 0x22A84, symSize: 0x8 }
  - { offsetInCU: 0x8DA6B, offset: 0x12BDFE, size: 0x8, addend: 0x0, symName: __ZThn40_N5agora3rtc9extension19FUExtensionDelegate22fuSetTrackFaceAIType_cEi, symObjAddr: 0x4F10, symBinAddr: 0x22A84, symSize: 0x8 }
  - { offsetInCU: 0x8DA92, offset: 0x12BE25, size: 0x8, addend: 0x0, symName: __ZN5agora3rtc9extension19FUExtensionDelegate23fuSetFaceProcessorFov_cEf, symObjAddr: 0x4F18, symBinAddr: 0x22A8C, symSize: 0x90 }
  - { offsetInCU: 0x8DDB0, offset: 0x12C143, size: 0x8, addend: 0x0, symName: __ZThn40_N5agora3rtc9extension19FUExtensionDelegate23fuSetFaceProcessorFov_cEf, symObjAddr: 0x4FA8, symBinAddr: 0x22B1C, symSize: 0x8 }
  - { offsetInCU: 0x8DDE0, offset: 0x12C173, size: 0x8, addend: 0x0, symName: __ZN5agora3rtc9extension19FUExtensionDelegate23fuGetFaceProcessorFov_cEv, symObjAddr: 0x4FB0, symBinAddr: 0x22B24, symSize: 0x8 }
  - { offsetInCU: 0x8DE06, offset: 0x12C199, size: 0x8, addend: 0x0, symName: __ZThn40_N5agora3rtc9extension19FUExtensionDelegate23fuGetFaceProcessorFov_cEv, symObjAddr: 0x4FB8, symBinAddr: 0x22B2C, symSize: 0x8 }
  - { offsetInCU: 0x8DE1D, offset: 0x12C1B0, size: 0x8, addend: 0x0, symName: __ZN5agora3rtc9extension19FUExtensionDelegate23fuHumanProcessorReset_cEv, symObjAddr: 0x4FC0, symBinAddr: 0x22B34, symSize: 0x4 }
  - { offsetInCU: 0x8DE3F, offset: 0x12C1D2, size: 0x8, addend: 0x0, symName: __ZN5agora3rtc9extension19FUExtensionDelegate23fuHumanProcessorReset_cEv, symObjAddr: 0x4FC0, symBinAddr: 0x22B34, symSize: 0x4 }
  - { offsetInCU: 0x8DE6C, offset: 0x12C1FF, size: 0x8, addend: 0x0, symName: __ZThn40_N5agora3rtc9extension19FUExtensionDelegate23fuHumanProcessorReset_cEv, symObjAddr: 0x4FC4, symBinAddr: 0x22B38, symSize: 0x4 }
  - { offsetInCU: 0x8DE87, offset: 0x12C21A, size: 0x8, addend: 0x0, symName: __ZThn40_N5agora3rtc9extension19FUExtensionDelegate23fuHumanProcessorReset_cEv, symObjAddr: 0x4FC4, symBinAddr: 0x22B38, symSize: 0x4 }
  - { offsetInCU: 0x8DE9B, offset: 0x12C22E, size: 0x8, addend: 0x0, symName: __ZThn40_N5agora3rtc9extension19FUExtensionDelegate23fuHumanProcessorReset_cEv, symObjAddr: 0x4FC4, symBinAddr: 0x22B38, symSize: 0x4 }
  - { offsetInCU: 0x8DEA6, offset: 0x12C239, size: 0x8, addend: 0x0, symName: __ZN5agora3rtc9extension19FUExtensionDelegate30fuHumanProcessorSetMaxHumans_cEi, symObjAddr: 0x4FC8, symBinAddr: 0x22B3C, symSize: 0x8 }
  - { offsetInCU: 0x8DF17, offset: 0x12C2AA, size: 0x8, addend: 0x0, symName: __ZThn40_N5agora3rtc9extension19FUExtensionDelegate30fuHumanProcessorSetMaxHumans_cEi, symObjAddr: 0x4FD0, symBinAddr: 0x22B44, symSize: 0x8 }
  - { offsetInCU: 0x8E1B6, offset: 0x12C549, size: 0x8, addend: 0x0, symName: __ZThn40_N5agora3rtc9extension19FUExtensionDelegate31fuHumanProcessorGetNumResults_cEb, symObjAddr: 0x51B8, symBinAddr: 0x22D2C, symSize: 0x1C }
  - { offsetInCU: 0x8E1E3, offset: 0x12C576, size: 0x8, addend: 0x0, symName: __ZN5agora3rtc9extension19FUExtensionDelegate34fuHumanProcessorGetResultTrackId_cEi, symObjAddr: 0x51D4, symBinAddr: 0x22D48, symSize: 0x8 }
  - { offsetInCU: 0x8E215, offset: 0x12C5A8, size: 0x8, addend: 0x0, symName: __ZThn40_N5agora3rtc9extension19FUExtensionDelegate34fuHumanProcessorGetResultTrackId_cEi, symObjAddr: 0x51DC, symBinAddr: 0x22D50, symSize: 0x8 }
  - { offsetInCU: 0x8E22C, offset: 0x12C5BF, size: 0x8, addend: 0x0, symName: __ZN5agora3rtc9extension19FUExtensionDelegate31fuHumanProcessorGetResultRect_cEi, symObjAddr: 0x51E4, symBinAddr: 0x22D58, symSize: 0x8 }
  - { offsetInCU: 0x8E25E, offset: 0x12C5F1, size: 0x8, addend: 0x0, symName: __ZThn40_N5agora3rtc9extension19FUExtensionDelegate31fuHumanProcessorGetResultRect_cEi, symObjAddr: 0x51EC, symBinAddr: 0x22D60, symSize: 0x8 }
  - { offsetInCU: 0x8E275, offset: 0x12C608, size: 0x8, addend: 0x0, symName: __ZN5agora3rtc9extension19FUExtensionDelegate35fuHumanProcessorGetResultJoint2ds_cEi, symObjAddr: 0x51F4, symBinAddr: 0x22D68, symSize: 0x8 }
  - { offsetInCU: 0x8E2A7, offset: 0x12C63A, size: 0x8, addend: 0x0, symName: __ZThn40_N5agora3rtc9extension19FUExtensionDelegate35fuHumanProcessorGetResultJoint2ds_cEi, symObjAddr: 0x51FC, symBinAddr: 0x22D70, symSize: 0x8 }
  - { offsetInCU: 0x8E2BE, offset: 0x12C651, size: 0x8, addend: 0x0, symName: __ZN5agora3rtc9extension19FUExtensionDelegate24fuHumanProcessorGetFov_cEv, symObjAddr: 0x5204, symBinAddr: 0x22D78, symSize: 0x8 }
  - { offsetInCU: 0x8E2E4, offset: 0x12C677, size: 0x8, addend: 0x0, symName: __ZThn40_N5agora3rtc9extension19FUExtensionDelegate24fuHumanProcessorGetFov_cEv, symObjAddr: 0x520C, symBinAddr: 0x22D80, symSize: 0x8 }
  - { offsetInCU: 0x8E2FB, offset: 0x12C68E, size: 0x8, addend: 0x0, symName: __ZN5agora3rtc9extension19FUExtensionDelegate24fuHumanProcessorSetFov_cEf, symObjAddr: 0x5214, symBinAddr: 0x22D88, symSize: 0x4 }
  - { offsetInCU: 0x8E325, offset: 0x12C6B8, size: 0x8, addend: 0x0, symName: __ZN5agora3rtc9extension19FUExtensionDelegate24fuHumanProcessorSetFov_cEf, symObjAddr: 0x5214, symBinAddr: 0x22D88, symSize: 0x4 }
  - { offsetInCU: 0x8E36D, offset: 0x12C700, size: 0x8, addend: 0x0, symName: __ZThn40_N5agora3rtc9extension19FUExtensionDelegate24fuHumanProcessorSetFov_cEf, symObjAddr: 0x5218, symBinAddr: 0x22D8C, symSize: 0x4 }
  - { offsetInCU: 0x8E388, offset: 0x12C71B, size: 0x8, addend: 0x0, symName: __ZThn40_N5agora3rtc9extension19FUExtensionDelegate24fuHumanProcessorSetFov_cEf, symObjAddr: 0x5218, symBinAddr: 0x22D8C, symSize: 0x4 }
  - { offsetInCU: 0x8E3A5, offset: 0x12C738, size: 0x8, addend: 0x0, symName: __ZThn40_N5agora3rtc9extension19FUExtensionDelegate24fuHumanProcessorSetFov_cEf, symObjAddr: 0x5218, symBinAddr: 0x22D8C, symSize: 0x4 }
  - { offsetInCU: 0x8E3BA, offset: 0x12C74D, size: 0x8, addend: 0x0, symName: __ZN5agora3rtc9extension19FUExtensionDelegate35fuHumanProcessorGetResultJoint3ds_cEi, symObjAddr: 0x521C, symBinAddr: 0x22D90, symSize: 0x8 }
  - { offsetInCU: 0x8E3EC, offset: 0x12C77F, size: 0x8, addend: 0x0, symName: __ZThn40_N5agora3rtc9extension19FUExtensionDelegate35fuHumanProcessorGetResultJoint3ds_cEi, symObjAddr: 0x5224, symBinAddr: 0x22D98, symSize: 0x8 }
  - { offsetInCU: 0x8E403, offset: 0x12C796, size: 0x8, addend: 0x0, symName: __ZN5agora3rtc9extension19FUExtensionDelegate41fuHumanProcessorGetResultTransformArray_cEi, symObjAddr: 0x522C, symBinAddr: 0x22DA0, symSize: 0x8 }
  - { offsetInCU: 0x8E435, offset: 0x12C7C8, size: 0x8, addend: 0x0, symName: __ZThn40_N5agora3rtc9extension19FUExtensionDelegate41fuHumanProcessorGetResultTransformArray_cEi, symObjAddr: 0x5234, symBinAddr: 0x22DA8, symSize: 0x8 }
  - { offsetInCU: 0x8E44C, offset: 0x12C7DF, size: 0x8, addend: 0x0, symName: __ZN5agora3rtc9extension19FUExtensionDelegate38fuHumanProcessorGetResultModelMatrix_cEi, symObjAddr: 0x523C, symBinAddr: 0x22DB0, symSize: 0x8 }
  - { offsetInCU: 0x8E47E, offset: 0x12C811, size: 0x8, addend: 0x0, symName: __ZThn40_N5agora3rtc9extension19FUExtensionDelegate38fuHumanProcessorGetResultModelMatrix_cEi, symObjAddr: 0x5244, symBinAddr: 0x22DB8, symSize: 0x8 }
  - { offsetInCU: 0x8E495, offset: 0x12C828, size: 0x8, addend: 0x0, symName: __ZN5agora3rtc9extension19FUExtensionDelegate36fuHumanProcessorGetResultHumanMask_cEi, symObjAddr: 0x524C, symBinAddr: 0x22DC0, symSize: 0x8 }
  - { offsetInCU: 0x8E4C7, offset: 0x12C85A, size: 0x8, addend: 0x0, symName: __ZThn40_N5agora3rtc9extension19FUExtensionDelegate36fuHumanProcessorGetResultHumanMask_cEi, symObjAddr: 0x5254, symBinAddr: 0x22DC8, symSize: 0x8 }
  - { offsetInCU: 0x8E4DE, offset: 0x12C871, size: 0x8, addend: 0x0, symName: __ZN5agora3rtc9extension19FUExtensionDelegate34fuFaceProcessorGetResultHairMask_cEi, symObjAddr: 0x525C, symBinAddr: 0x22DD0, symSize: 0x8 }
  - { offsetInCU: 0x8E510, offset: 0x12C8A3, size: 0x8, addend: 0x0, symName: __ZThn40_N5agora3rtc9extension19FUExtensionDelegate34fuFaceProcessorGetResultHairMask_cEi, symObjAddr: 0x5264, symBinAddr: 0x22DD8, symSize: 0x8 }
  - { offsetInCU: 0x8E527, offset: 0x12C8BA, size: 0x8, addend: 0x0, symName: __ZN5agora3rtc9extension19FUExtensionDelegate34fuFaceProcessorGetResultHeadMask_cEi, symObjAddr: 0x526C, symBinAddr: 0x22DE0, symSize: 0x8 }
  - { offsetInCU: 0x8E559, offset: 0x12C8EC, size: 0x8, addend: 0x0, symName: __ZThn40_N5agora3rtc9extension19FUExtensionDelegate34fuFaceProcessorGetResultHeadMask_cEi, symObjAddr: 0x5274, symBinAddr: 0x22DE8, symSize: 0x8 }
  - { offsetInCU: 0x8E570, offset: 0x12C903, size: 0x8, addend: 0x0, symName: __ZN5agora3rtc9extension19FUExtensionDelegate37fuHumanProcessorGetResultActionType_cEi, symObjAddr: 0x527C, symBinAddr: 0x22DF0, symSize: 0x8 }
  - { offsetInCU: 0x8E5A2, offset: 0x12C935, size: 0x8, addend: 0x0, symName: __ZThn40_N5agora3rtc9extension19FUExtensionDelegate37fuHumanProcessorGetResultActionType_cEi, symObjAddr: 0x5284, symBinAddr: 0x22DF8, symSize: 0x8 }
  - { offsetInCU: 0x8E5B9, offset: 0x12C94C, size: 0x8, addend: 0x0, symName: __ZN5agora3rtc9extension19FUExtensionDelegate38fuHumanProcessorGetResultActionScore_cEi, symObjAddr: 0x528C, symBinAddr: 0x22E00, symSize: 0x8 }
  - { offsetInCU: 0x8E5EB, offset: 0x12C97E, size: 0x8, addend: 0x0, symName: __ZThn40_N5agora3rtc9extension19FUExtensionDelegate38fuHumanProcessorGetResultActionScore_cEi, symObjAddr: 0x5294, symBinAddr: 0x22E08, symSize: 0x8 }
  - { offsetInCU: 0x8E857, offset: 0x12CBEA, size: 0x8, addend: 0x0, symName: __ZThn40_N5agora3rtc9extension19FUExtensionDelegate33fuHandDetectorGetResultNumHands_cEb, symObjAddr: 0x547C, symBinAddr: 0x22FF0, symSize: 0x1C }
  - { offsetInCU: 0x8E884, offset: 0x12CC17, size: 0x8, addend: 0x0, symName: __ZN5agora3rtc9extension19FUExtensionDelegate33fuHandDetectorGetResultHandRect_cEi, symObjAddr: 0x5498, symBinAddr: 0x2300C, symSize: 0x8 }
  - { offsetInCU: 0x8E8B6, offset: 0x12CC49, size: 0x8, addend: 0x0, symName: __ZThn40_N5agora3rtc9extension19FUExtensionDelegate33fuHandDetectorGetResultHandRect_cEi, symObjAddr: 0x54A0, symBinAddr: 0x23014, symSize: 0x8 }
  - { offsetInCU: 0x8E8CD, offset: 0x12CC60, size: 0x8, addend: 0x0, symName: __ZN5agora3rtc9extension19FUExtensionDelegate36fuHandDetectorGetResultGestureType_cEi, symObjAddr: 0x54A8, symBinAddr: 0x2301C, symSize: 0x8 }
  - { offsetInCU: 0x8E8FF, offset: 0x12CC92, size: 0x8, addend: 0x0, symName: __ZThn40_N5agora3rtc9extension19FUExtensionDelegate36fuHandDetectorGetResultGestureType_cEi, symObjAddr: 0x54B0, symBinAddr: 0x23024, symSize: 0x8 }
  - { offsetInCU: 0x8E916, offset: 0x12CCA9, size: 0x8, addend: 0x0, symName: __ZN5agora3rtc9extension19FUExtensionDelegate34fuHandDetectorGetResultHandScore_cEi, symObjAddr: 0x54B8, symBinAddr: 0x2302C, symSize: 0x8 }
  - { offsetInCU: 0x8E948, offset: 0x12CCDB, size: 0x8, addend: 0x0, symName: __ZThn40_N5agora3rtc9extension19FUExtensionDelegate34fuHandDetectorGetResultHandScore_cEi, symObjAddr: 0x54C0, symBinAddr: 0x23034, symSize: 0x8 }
  - { offsetInCU: 0x8E95F, offset: 0x12CCF2, size: 0x8, addend: 0x0, symName: __ZThn40_N5agora3rtc9extension19FUExtensionDelegate20fuCreateTexForItem_cERKNSt3__112basic_stringIcNS3_11char_traitsIcEENS3_9allocatorIcEEEESB_RKNS3_6vectorIhNS7_IhEEEEii, symObjAddr: 0x54C8, symBinAddr: 0x2303C, symSize: 0x8 }
  - { offsetInCU: 0x8E9A9, offset: 0x12CD3C, size: 0x8, addend: 0x0, symName: __ZThn40_N5agora3rtc9extension19FUExtensionDelegate20fuDeleteTexForItem_cERKNSt3__112basic_stringIcNS3_11char_traitsIcEENS3_9allocatorIcEEEESB_, symObjAddr: 0x54D0, symBinAddr: 0x23044, symSize: 0x8 }
  - { offsetInCU: 0x8E9DE, offset: 0x12CD71, size: 0x8, addend: 0x0, symName: __ZThn40_N5agora3rtc9extension19FUExtensionDelegate18fuUnbindAllItems_cERKNSt3__112basic_stringIcNS3_11char_traitsIcEENS3_9allocatorIcEEEE, symObjAddr: 0x54D8, symBinAddr: 0x2304C, symSize: 0x8 }
  - { offsetInCU: 0x8E9F5, offset: 0x12CD88, size: 0x8, addend: 0x0, symName: __ZThn40_N5agora3rtc9extension19FUExtensionDelegate15fuSetLogLevel_cEi, symObjAddr: 0x54E0, symBinAddr: 0x23054, symSize: 0x20 }
  - { offsetInCU: 0x8EBA1, offset: 0x12CF34, size: 0x8, addend: 0x0, symName: __ZNSt3__14pairINS_12basic_stringIcNS_11char_traitsIcEENS_9allocatorIcEEEENS_8functionIFiRKS6_EEEEC2B7v160006IS9_RSB_LPv0EEEOT_OT0_, symObjAddr: 0x5B40, symBinAddr: 0x23448, symSize: 0x78 }
  - { offsetInCU: 0x8EE29, offset: 0x12D1BC, size: 0x8, addend: 0x0, symName: __ZNSt3__16__treeINS_12__value_typeINS_12basic_stringIcNS_11char_traitsIcEENS_9allocatorIcEEEENS_8functionIFiRKS7_EEEEENS_19__map_value_compareIS7_SD_NS_4lessIS7_EELb1EEENS5_ISD_EEE25__emplace_unique_key_argsIS7_JNS_4pairIS7_SC_EEEEENSL_INS_15__tree_iteratorISD_PNS_11__tree_nodeISD_PvEElEEbEERKT_DpOT0_, symObjAddr: 0x5620, symBinAddr: 0x23194, symSize: 0xC4 }
  - { offsetInCU: 0x8F275, offset: 0x12D608, size: 0x8, addend: 0x0, symName: __ZNSt3__14pairINS_12basic_stringIcNS_11char_traitsIcEENS_9allocatorIcEEEENS_8functionIFiRKS6_EEEED1Ev, symObjAddr: 0x55C0, symBinAddr: 0x23134, symSize: 0x60 }
  - { offsetInCU: 0x8F7FB, offset: 0x12DB8E, size: 0x8, addend: 0x0, symName: __ZNSt3__16__treeINS_12__value_typeINS_12basic_stringIcNS_11char_traitsIcEENS_9allocatorIcEEEENS_8functionIFiRKS7_EEEEENS_19__map_value_compareIS7_SD_NS_4lessIS7_EELb1EEENS5_ISD_EEE12__find_equalIS7_EERPNS_16__tree_node_baseIPvEERPNS_15__tree_end_nodeISO_EERKT_, symObjAddr: 0x56E4, symBinAddr: 0x23258, symSize: 0x90 }
  - { offsetInCU: 0x8F972, offset: 0x12DD05, size: 0x8, addend: 0x0, symName: __ZNSt3__110__function12__value_funcIFiRKNS_12basic_stringIcNS_11char_traitsIcEENS_9allocatorIcEEEEEEC2B7v160006EOSB_, symObjAddr: 0x589C, symBinAddr: 0x2333C, symSize: 0x64 }
  - { offsetInCU: 0x8F9C0, offset: 0x12DD53, size: 0x8, addend: 0x0, symName: __ZNSt3__16__treeINS_12__value_typeINS_12basic_stringIcNS_11char_traitsIcEENS_9allocatorIcEEEENS_8functionIFiRKS7_EEEEENS_19__map_value_compareIS7_SD_NS_4lessIS7_EELb1EEENS5_ISD_EEE16__insert_node_atEPNS_15__tree_end_nodeIPNS_16__tree_node_baseIPvEEEERSO_SO_, symObjAddr: 0x5774, symBinAddr: 0x232E8, symSize: 0x54 }
  - { offsetInCU: 0x8FA27, offset: 0x12DDBA, size: 0x8, addend: 0x0, symName: __ZNSt3__110unique_ptrINS_11__tree_nodeINS_12__value_typeINS_12basic_stringIcNS_11char_traitsIcEENS_9allocatorIcEEEENS_8functionIFiRKS8_EEEEEPvEENS_22__tree_node_destructorINS6_ISG_EEEEE5resetB7v160006EPSG_, symObjAddr: 0x5A98, symBinAddr: 0x233A0, symSize: 0x44 }
  - { offsetInCU: 0x90116, offset: 0x12E4A9, size: 0x8, addend: 0x0, symName: __ZNSt3__110__function12__value_funcIFiRKNS_12basic_stringIcNS_11char_traitsIcEENS_9allocatorIcEEEEEEC2B7v160006ERKSB_, symObjAddr: 0x5CBC, symBinAddr: 0x234C0, symSize: 0x64 }
  - { offsetInCU: 0x90304, offset: 0x12E697, size: 0x8, addend: 0x0, symName: __ZNSt3__110__function6__funcIZN5agora3rtc9extension29FUExtensionDelegateAPIBindingEPNS4_19FUExtensionDelegateEEUlRKNS_12basic_stringIcNS_11char_traitsIcEENS_9allocatorIcEEEEE_NSA_ISF_EEFiSE_EED1Ev, symObjAddr: 0x5D20, symBinAddr: 0x23524, symSize: 0x4 }
  - { offsetInCU: 0x90330, offset: 0x12E6C3, size: 0x8, addend: 0x0, symName: __ZNSt3__110__function6__funcIZN5agora3rtc9extension29FUExtensionDelegateAPIBindingEPNS4_19FUExtensionDelegateEEUlRKNS_12basic_stringIcNS_11char_traitsIcEENS_9allocatorIcEEEEE_NSA_ISF_EEFiSE_EED0Ev, symObjAddr: 0x5D24, symBinAddr: 0x23528, symSize: 0x4 }
  - { offsetInCU: 0x90534, offset: 0x12E8C7, size: 0x8, addend: 0x0, symName: __ZNKSt3__110__function6__funcIZN5agora3rtc9extension29FUExtensionDelegateAPIBindingEPNS4_19FUExtensionDelegateEEUlRKNS_12basic_stringIcNS_11char_traitsIcEENS_9allocatorIcEEEEE_NSA_ISF_EEFiSE_EE7__cloneEv, symObjAddr: 0x5D28, symBinAddr: 0x2352C, symSize: 0x34 }
  - { offsetInCU: 0x90827, offset: 0x12EBBA, size: 0x8, addend: 0x0, symName: __ZNKSt3__110__function6__funcIZN5agora3rtc9extension29FUExtensionDelegateAPIBindingEPNS4_19FUExtensionDelegateEEUlRKNS_12basic_stringIcNS_11char_traitsIcEENS_9allocatorIcEEEEE_NSA_ISF_EEFiSE_EE7__cloneEPNS0_6__baseISH_EE, symObjAddr: 0x5D5C, symBinAddr: 0x23560, symSize: 0x14 }
  - { offsetInCU: 0x9085E, offset: 0x12EBF1, size: 0x8, addend: 0x0, symName: __ZNKSt3__110__function6__funcIZN5agora3rtc9extension29FUExtensionDelegateAPIBindingEPNS4_19FUExtensionDelegateEEUlRKNS_12basic_stringIcNS_11char_traitsIcEENS_9allocatorIcEEEEE_NSA_ISF_EEFiSE_EE7__cloneEPNS0_6__baseISH_EE, symObjAddr: 0x5D5C, symBinAddr: 0x23560, symSize: 0x14 }
  - { offsetInCU: 0x9088C, offset: 0x12EC1F, size: 0x8, addend: 0x0, symName: __ZNKSt3__110__function6__funcIZN5agora3rtc9extension29FUExtensionDelegateAPIBindingEPNS4_19FUExtensionDelegateEEUlRKNS_12basic_stringIcNS_11char_traitsIcEENS_9allocatorIcEEEEE_NSA_ISF_EEFiSE_EE7__cloneEPNS0_6__baseISH_EE, symObjAddr: 0x5D5C, symBinAddr: 0x23560, symSize: 0x14 }
  - { offsetInCU: 0x908BA, offset: 0x12EC4D, size: 0x8, addend: 0x0, symName: __ZNKSt3__110__function6__funcIZN5agora3rtc9extension29FUExtensionDelegateAPIBindingEPNS4_19FUExtensionDelegateEEUlRKNS_12basic_stringIcNS_11char_traitsIcEENS_9allocatorIcEEEEE_NSA_ISF_EEFiSE_EE7__cloneEPNS0_6__baseISH_EE, symObjAddr: 0x5D5C, symBinAddr: 0x23560, symSize: 0x14 }
  - { offsetInCU: 0x908CF, offset: 0x12EC62, size: 0x8, addend: 0x0, symName: __ZNKSt3__110__function6__funcIZN5agora3rtc9extension29FUExtensionDelegateAPIBindingEPNS4_19FUExtensionDelegateEEUlRKNS_12basic_stringIcNS_11char_traitsIcEENS_9allocatorIcEEEEE_NSA_ISF_EEFiSE_EE7__cloneEPNS0_6__baseISH_EE, symObjAddr: 0x5D5C, symBinAddr: 0x23560, symSize: 0x14 }
  - { offsetInCU: 0x908E3, offset: 0x12EC76, size: 0x8, addend: 0x0, symName: __ZNKSt3__110__function6__funcIZN5agora3rtc9extension29FUExtensionDelegateAPIBindingEPNS4_19FUExtensionDelegateEEUlRKNS_12basic_stringIcNS_11char_traitsIcEENS_9allocatorIcEEEEE_NSA_ISF_EEFiSE_EE7__cloneEPNS0_6__baseISH_EE, symObjAddr: 0x5D5C, symBinAddr: 0x23560, symSize: 0x14 }
  - { offsetInCU: 0x908F7, offset: 0x12EC8A, size: 0x8, addend: 0x0, symName: __ZNKSt3__110__function6__funcIZN5agora3rtc9extension29FUExtensionDelegateAPIBindingEPNS4_19FUExtensionDelegateEEUlRKNS_12basic_stringIcNS_11char_traitsIcEENS_9allocatorIcEEEEE_NSA_ISF_EEFiSE_EE7__cloneEPNS0_6__baseISH_EE, symObjAddr: 0x5D5C, symBinAddr: 0x23560, symSize: 0x14 }
  - { offsetInCU: 0x9090B, offset: 0x12EC9E, size: 0x8, addend: 0x0, symName: __ZNKSt3__110__function6__funcIZN5agora3rtc9extension29FUExtensionDelegateAPIBindingEPNS4_19FUExtensionDelegateEEUlRKNS_12basic_stringIcNS_11char_traitsIcEENS_9allocatorIcEEEEE_NSA_ISF_EEFiSE_EE7__cloneEPNS0_6__baseISH_EE, symObjAddr: 0x5D5C, symBinAddr: 0x23560, symSize: 0x14 }
  - { offsetInCU: 0x90924, offset: 0x12ECB7, size: 0x8, addend: 0x0, symName: __ZNSt3__110__function6__funcIZN5agora3rtc9extension29FUExtensionDelegateAPIBindingEPNS4_19FUExtensionDelegateEEUlRKNS_12basic_stringIcNS_11char_traitsIcEENS_9allocatorIcEEEEE_NSA_ISF_EEFiSE_EE7destroyEv, symObjAddr: 0x5D70, symBinAddr: 0x23574, symSize: 0x4 }
  - { offsetInCU: 0x90977, offset: 0x12ED0A, size: 0x8, addend: 0x0, symName: __ZNSt3__110__function6__funcIZN5agora3rtc9extension29FUExtensionDelegateAPIBindingEPNS4_19FUExtensionDelegateEEUlRKNS_12basic_stringIcNS_11char_traitsIcEENS_9allocatorIcEEEEE_NSA_ISF_EEFiSE_EE18destroy_deallocateEv, symObjAddr: 0x5D74, symBinAddr: 0x23578, symSize: 0x4 }
  - { offsetInCU: 0x909AC, offset: 0x12ED3F, size: 0x8, addend: 0x0, symName: __ZNSt3__110__function6__funcIZN5agora3rtc9extension29FUExtensionDelegateAPIBindingEPNS4_19FUExtensionDelegateEEUlRKNS_12basic_stringIcNS_11char_traitsIcEENS_9allocatorIcEEEEE_NSA_ISF_EEFiSE_EE18destroy_deallocateEv, symObjAddr: 0x5D74, symBinAddr: 0x23578, symSize: 0x4 }
  - { offsetInCU: 0x909CE, offset: 0x12ED61, size: 0x8, addend: 0x0, symName: __ZNSt3__110__function6__funcIZN5agora3rtc9extension29FUExtensionDelegateAPIBindingEPNS4_19FUExtensionDelegateEEUlRKNS_12basic_stringIcNS_11char_traitsIcEENS_9allocatorIcEEEEE_NSA_ISF_EEFiSE_EE18destroy_deallocateEv, symObjAddr: 0x5D74, symBinAddr: 0x23578, symSize: 0x4 }
  - { offsetInCU: 0x909F9, offset: 0x12ED8C, size: 0x8, addend: 0x0, symName: __ZNSt3__110__function6__funcIZN5agora3rtc9extension29FUExtensionDelegateAPIBindingEPNS4_19FUExtensionDelegateEEUlRKNS_12basic_stringIcNS_11char_traitsIcEENS_9allocatorIcEEEEE_NSA_ISF_EEFiSE_EE18destroy_deallocateEv, symObjAddr: 0x5D74, symBinAddr: 0x23578, symSize: 0x4 }
  - { offsetInCU: 0x90A1F, offset: 0x12EDB2, size: 0x8, addend: 0x0, symName: __ZNSt3__110__function6__funcIZN5agora3rtc9extension29FUExtensionDelegateAPIBindingEPNS4_19FUExtensionDelegateEEUlRKNS_12basic_stringIcNS_11char_traitsIcEENS_9allocatorIcEEEEE_NSA_ISF_EEFiSE_EE18destroy_deallocateEv, symObjAddr: 0x5D74, symBinAddr: 0x23578, symSize: 0x4 }
  - { offsetInCU: 0x90A9A, offset: 0x12EE2D, size: 0x8, addend: 0x0, symName: __ZNSt3__110__function6__funcIZN5agora3rtc9extension29FUExtensionDelegateAPIBindingEPNS4_19FUExtensionDelegateEEUlRKNS_12basic_stringIcNS_11char_traitsIcEENS_9allocatorIcEEEEE_NSA_ISF_EEFiSE_EEclESE_, symObjAddr: 0x5D78, symBinAddr: 0x2357C, symSize: 0x8 }
  - { offsetInCU: 0x90B57, offset: 0x12EEEA, size: 0x8, addend: 0x0, symName: __ZZN5agora3rtc9extension29FUExtensionDelegateAPIBindingEPNS1_19FUExtensionDelegateEENKUlRKNSt3__112basic_stringIcNS4_11char_traitsIcEENS4_9allocatorIcEEEEE_clESC_, symObjAddr: 0x5DC8, symBinAddr: 0x235CC, symSize: 0x178 }
  - { offsetInCU: 0x90FAD, offset: 0x12F340, size: 0x8, addend: 0x0, symName: __ZNKSt3__110__function6__funcIZN5agora3rtc9extension29FUExtensionDelegateAPIBindingEPNS4_19FUExtensionDelegateEEUlRKNS_12basic_stringIcNS_11char_traitsIcEENS_9allocatorIcEEEEE_NSA_ISF_EEFiSE_EE6targetERKSt9type_info, symObjAddr: 0x5D80, symBinAddr: 0x23584, symSize: 0x3C }
  - { offsetInCU: 0x91047, offset: 0x12F3DA, size: 0x8, addend: 0x0, symName: __ZNKSt3__110__function6__funcIZN5agora3rtc9extension29FUExtensionDelegateAPIBindingEPNS4_19FUExtensionDelegateEEUlRKNS_12basic_stringIcNS_11char_traitsIcEENS_9allocatorIcEEEEE_NSA_ISF_EEFiSE_EE11target_typeEv, symObjAddr: 0x5DBC, symBinAddr: 0x235C0, symSize: 0xC }
  - { offsetInCU: 0x91316, offset: 0x12F6A9, size: 0x8, addend: 0x0, symName: __ZN8nlohmann10basic_jsonINSt3__13mapENS1_6vectorENS1_12basic_stringIcNS1_11char_traitsIcEENS1_9allocatorIcEEEEbxydS7_NS_14adl_serializerENS3_IhNS7_IhEEEEE5parseIRKS9_EESD_OT_NS1_8functionIFbiNS_6detail13parse_event_tERSD_EEEbb, symObjAddr: 0x5F40, symBinAddr: 0x23744, symSize: 0x1B0 }
  - { offsetInCU: 0x91877, offset: 0x12FC0A, size: 0x8, addend: 0x0, symName: __ZN8nlohmann10basic_jsonINSt3__13mapENS1_6vectorENS1_12basic_stringIcNS1_11char_traitsIcEENS1_9allocatorIcEEEEbxydS7_NS_14adl_serializerENS3_IhNS7_IhEEEEE4findIRA5_KcEENS_6detail9iter_implISD_EEOT_, symObjAddr: 0x60F0, symBinAddr: 0x238F4, symSize: 0x5C }
  - { offsetInCU: 0x91995, offset: 0x12FD28, size: 0x8, addend: 0x0, symName: __ZN8nlohmann6detail9iter_implINS_10basic_jsonINSt3__13mapENS3_6vectorENS3_12basic_stringIcNS3_11char_traitsIcEENS3_9allocatorIcEEEEbxydS9_NS_14adl_serializerENS5_IhNS9_IhEEEEEEE7set_endEv, symObjAddr: 0xFEC8, symBinAddr: 0x2D348, symSize: 0x7C }
  - { offsetInCU: 0x91A4D, offset: 0x12FDE0, size: 0x8, addend: 0x0, symName: __ZNK8nlohmann6detail9iter_implINS_10basic_jsonINSt3__13mapENS3_6vectorENS3_12basic_stringIcNS3_11char_traitsIcEENS3_9allocatorIcEEEEbxydS9_NS_14adl_serializerENS5_IhNS9_IhEEEEEEEeqISG_LDn0EEEbRKT_, symObjAddr: 0x614C, symBinAddr: 0x23950, symSize: 0x10C }
  - { offsetInCU: 0x91CD6, offset: 0x130069, size: 0x8, addend: 0x0, symName: __ZN8nlohmann10basic_jsonINSt3__13mapENS1_6vectorENS1_12basic_stringIcNS1_11char_traitsIcEENS1_9allocatorIcEEEEbxydS7_NS_14adl_serializerENS3_IhNS7_IhEEEEEixIKcEERSD_PT_, symObjAddr: 0x6258, symBinAddr: 0x23A5C, symSize: 0x1A4 }
  - { offsetInCU: 0x924A9, offset: 0x13083C, size: 0x8, addend: 0x0, symName: __ZN8nlohmann10basic_jsonINSt3__13mapENS1_6vectorENS1_12basic_stringIcNS1_11char_traitsIcEENS1_9allocatorIcEEEEbxydS7_NS_14adl_serializerENS3_IhNS7_IhEEEEED2Ev, symObjAddr: 0x10194, symBinAddr: 0x2D614, symSize: 0x38 }
  - { offsetInCU: 0x926C7, offset: 0x130A5A, size: 0x8, addend: 0x0, symName: __ZNK8nlohmann10basic_jsonINSt3__13mapENS1_6vectorENS1_12basic_stringIcNS1_11char_traitsIcEENS1_9allocatorIcEEEEbxydS7_NS_14adl_serializerENS3_IhNS7_IhEEEEE16assert_invariantEb, symObjAddr: 0x6AC4, symBinAddr: 0x242C8, symSize: 0xB0 }
  - { offsetInCU: 0x926FE, offset: 0x130A91, size: 0x8, addend: 0x0, symName: __ZNSt3__110__function12__value_funcIFbiN8nlohmann6detail13parse_event_tERNS2_10basic_jsonINS_3mapENS_6vectorENS_12basic_stringIcNS_11char_traitsIcEENS_9allocatorIcEEEEbxydSB_NS2_14adl_serializerENS7_IhNSB_IhEEEEEEEEC2B7v160006ERKSK_, symObjAddr: 0x817C, symBinAddr: 0x25980, symSize: 0x64 }
  - { offsetInCU: 0x92758, offset: 0x130AEB, size: 0x8, addend: 0x0, symName: __ZN8nlohmann10basic_jsonINSt3__13mapENS1_6vectorENS1_12basic_stringIcNS1_11char_traitsIcEENS1_9allocatorIcEEEEbxydS7_NS_14adl_serializerENS3_IhNS7_IhEEEEE6parserINS_6detail22iterator_input_adapterINS1_11__wrap_iterIPKcEEEEEENSF_6parserISD_T_EESN_NS1_8functionIFbiNSF_13parse_event_tERSD_EEEbb, symObjAddr: 0x6438, symBinAddr: 0x23C3C, symSize: 0xF0 }
  - { offsetInCU: 0x929A5, offset: 0x130D38, size: 0x8, addend: 0x0, symName: __ZN8nlohmann6detail6parserINS_10basic_jsonINSt3__13mapENS3_6vectorENS3_12basic_stringIcNS3_11char_traitsIcEENS3_9allocatorIcEEEEbxydS9_NS_14adl_serializerENS5_IhNS9_IhEEEEEENS0_22iterator_input_adapterINS3_11__wrap_iterIPKcEEEEE5parseEbRSF_, symObjAddr: 0x6528, symBinAddr: 0x23D2C, symSize: 0x548 }
  - { offsetInCU: 0x9480B, offset: 0x132B9E, size: 0x8, addend: 0x0, symName: __ZN8nlohmann6detail5lexerINS_10basic_jsonINSt3__13mapENS3_6vectorENS3_12basic_stringIcNS3_11char_traitsIcEENS3_9allocatorIcEEEEbxydS9_NS_14adl_serializerENS5_IhNS9_IhEEEEEENS0_22iterator_input_adapterINS3_11__wrap_iterIPKcEEEEED2Ev, symObjAddr: 0x813C, symBinAddr: 0x25940, symSize: 0x40 }
  - { offsetInCU: 0x94A9F, offset: 0x132E32, size: 0x8, addend: 0x0, symName: __ZN8nlohmann6detail6parserINS_10basic_jsonINSt3__13mapENS3_6vectorENS3_12basic_stringIcNS3_11char_traitsIcEENS3_9allocatorIcEEEEbxydS9_NS_14adl_serializerENS5_IhNS9_IhEEEEEENS0_22iterator_input_adapterINS3_11__wrap_iterIPKcEEEEED1Ev, symObjAddr: 0x6A70, symBinAddr: 0x24274, symSize: 0x54 }
  - { offsetInCU: 0x94BC7, offset: 0x132F5A, size: 0x8, addend: 0x0, symName: __ZN8nlohmann6detail9iter_implINS_10basic_jsonINSt3__13mapENS3_6vectorENS3_12basic_stringIcNS3_11char_traitsIcEENS3_9allocatorIcEEEEbxydS9_NS_14adl_serializerENS5_IhNS9_IhEEEEEEEC2EPSF_, symObjAddr: 0xC798, symBinAddr: 0x29F9C, symSize: 0x48 }
  - { offsetInCU: 0x94C2E, offset: 0x132FC1, size: 0x8, addend: 0x0, symName: __ZNSt3__16__treeINS_12__value_typeINS_12basic_stringIcNS_11char_traitsIcEENS_9allocatorIcEEEEN8nlohmann10basic_jsonINS_3mapENS_6vectorES7_bxydS5_NS8_14adl_serializerENSB_IhNS5_IhEEEEEEEENS_19__map_value_compareIS7_SG_NS_4lessIvEELb1EEENS5_ISG_EEE4findIA5_cEENS_15__tree_iteratorISG_PNS_11__tree_nodeISG_PvEElEERKT_, symObjAddr: 0xFDD4, symBinAddr: 0x2D254, symSize: 0x84 }
  - { offsetInCU: 0x94E08, offset: 0x13319B, size: 0x8, addend: 0x0, symName: __ZN8nlohmann6detail16invalid_iterator6createINS_10basic_jsonINSt3__13mapENS4_6vectorENS4_12basic_stringIcNS4_11char_traitsIcEENS4_9allocatorIcEEEEbxydSA_NS_14adl_serializerENS6_IhNSA_IhEEEEEEEES1_iRKSC_RKT_, symObjAddr: 0xC7E0, symBinAddr: 0x29FE4, symSize: 0x1D0 }
  - { offsetInCU: 0x95C56, offset: 0x133FE9, size: 0x8, addend: 0x0, symName: __ZNK8nlohmann6detail9iter_implINS_10basic_jsonINSt3__13mapENS3_6vectorENS3_12basic_stringIcNS3_11char_traitsIcEENS3_9allocatorIcEEEEbxydS9_NS_14adl_serializerENS5_IhNS9_IhEEEEEEEeqISG_LDn0EEEbRKT_.cold.1, symObjAddr: 0x1C068, symBinAddr: 0x393D0, symSize: 0x28 }
  - { offsetInCU: 0x95F1F, offset: 0x1342B2, size: 0x8, addend: 0x0, symName: __ZNSt3__16__treeINS_12__value_typeINS_12basic_stringIcNS_11char_traitsIcEENS_9allocatorIcEEEEN8nlohmann10basic_jsonINS_3mapENS_6vectorES7_bxydS5_NS8_14adl_serializerENSB_IhNS5_IhEEEEEEEENS_19__map_value_compareIS7_SG_NS_4lessIvEELb1EEENS5_ISG_EEE25__emplace_unique_key_argsIS7_JRKNS_21piecewise_construct_tENS_5tupleIJOS7_EEENSR_IJEEEEEENS_4pairINS_15__tree_iteratorISG_PNS_11__tree_nodeISG_PvEElEEbEERKT_DpOT0_, symObjAddr: 0xFF44, symBinAddr: 0x2D3C4, symSize: 0x94 }
  - { offsetInCU: 0x960B0, offset: 0x134443, size: 0x8, addend: 0x0, symName: __ZNK8nlohmann10basic_jsonINSt3__13mapENS1_6vectorENS1_12basic_stringIcNS1_11char_traitsIcEENS1_9allocatorIcEEEEbxydS7_NS_14adl_serializerENS3_IhNS7_IhEEEEE9type_nameEv, symObjAddr: 0xCBEC, symBinAddr: 0x2A3F0, symSize: 0x28 }
  - { offsetInCU: 0x960DC, offset: 0x13446F, size: 0x8, addend: 0x0, symName: __ZN8nlohmann6detail10type_error6createINS_10basic_jsonINSt3__13mapENS4_6vectorENS4_12basic_stringIcNS4_11char_traitsIcEENS4_9allocatorIcEEEEbxydSA_NS_14adl_serializerENS6_IhNSA_IhEEEEEEEES1_iRKSC_RKT_, symObjAddr: 0xCA1C, symBinAddr: 0x2A220, symSize: 0x1D0 }
  - { offsetInCU: 0x96F2A, offset: 0x1352BD, size: 0x8, addend: 0x0, symName: __ZN8nlohmann10basic_jsonINSt3__13mapENS1_6vectorENS1_12basic_stringIcNS1_11char_traitsIcEENS1_9allocatorIcEEEEbxydS7_NS_14adl_serializerENS3_IhNS7_IhEEEEEC1EDn, symObjAddr: 0x63FC, symBinAddr: 0x23C00, symSize: 0x3C }
  - { offsetInCU: 0x970D4, offset: 0x135467, size: 0x8, addend: 0x0, symName: __ZNSt3__110__function12__value_funcIFbiN8nlohmann6detail13parse_event_tERNS2_10basic_jsonINS_3mapENS_6vectorENS_12basic_stringIcNS_11char_traitsIcEENS_9allocatorIcEEEEbxydSB_NS2_14adl_serializerENS7_IhNSB_IhEEEEEEEEC2B7v160006EOSK_, symObjAddr: 0x6F14, symBinAddr: 0x24718, symSize: 0x64 }
  - { offsetInCU: 0x97122, offset: 0x1354B5, size: 0x8, addend: 0x0, symName: __ZN8nlohmann6detail6parserINS_10basic_jsonINSt3__13mapENS3_6vectorENS3_12basic_stringIcNS3_11char_traitsIcEENS3_9allocatorIcEEEEbxydS9_NS_14adl_serializerENS5_IhNS9_IhEEEEEENS0_22iterator_input_adapterINS3_11__wrap_iterIPKcEEEEEC2EOSL_NS3_8functionIFbiNS0_13parse_event_tERSF_EEEbb, symObjAddr: 0x6F78, symBinAddr: 0x2477C, symSize: 0xE8 }
  - { offsetInCU: 0x976B4, offset: 0x135A47, size: 0x8, addend: 0x0, symName: __ZN8nlohmann6detail28json_sax_dom_callback_parserINS_10basic_jsonINSt3__13mapENS3_6vectorENS3_12basic_stringIcNS3_11char_traitsIcEENS3_9allocatorIcEEEEbxydS9_NS_14adl_serializerENS5_IhNS9_IhEEEEEEEC2ERSF_NS3_8functionIFbiNS0_13parse_event_tESH_EEEb, symObjAddr: 0x9FF8, symBinAddr: 0x277FC, symSize: 0x120 }
  - { offsetInCU: 0x97C4B, offset: 0x135FDE, size: 0x8, addend: 0x0, symName: __ZN8nlohmann6detail6parserINS_10basic_jsonINSt3__13mapENS3_6vectorENS3_12basic_stringIcNS3_11char_traitsIcEENS3_9allocatorIcEEEEbxydS9_NS_14adl_serializerENS5_IhNS9_IhEEEEEENS0_22iterator_input_adapterINS3_11__wrap_iterIPKcEEEEE18sax_parse_internalINS0_19json_sax_dom_parserISF_EEEEbPT_, symObjAddr: 0x953C, symBinAddr: 0x26D40, symSize: 0xA68 }
  - { offsetInCU: 0x995B6, offset: 0x137949, size: 0x8, addend: 0x0, symName: __ZN8nlohmann6detail5lexerINS_10basic_jsonINSt3__13mapENS3_6vectorENS3_12basic_stringIcNS3_11char_traitsIcEENS3_9allocatorIcEEEEbxydS9_NS_14adl_serializerENS5_IhNS9_IhEEEEEENS0_22iterator_input_adapterINS3_11__wrap_iterIPKcEEEEE4scanEv, symObjAddr: 0x70B8, symBinAddr: 0x248BC, symSize: 0x230 }
  - { offsetInCU: 0x996F4, offset: 0x137A87, size: 0x8, addend: 0x0, symName: __ZNK8nlohmann6detail5lexerINS_10basic_jsonINSt3__13mapENS3_6vectorENS3_12basic_stringIcNS3_11char_traitsIcEENS3_9allocatorIcEEEEbxydS9_NS_14adl_serializerENS5_IhNS9_IhEEEEEENS0_22iterator_input_adapterINS3_11__wrap_iterIPKcEEEEE16get_token_stringEv, symObjAddr: 0x8C7C, symBinAddr: 0x26480, symSize: 0xEC }
  - { offsetInCU: 0x999BC, offset: 0x137D4F, size: 0x8, addend: 0x0, symName: __ZN8nlohmann6detail6parserINS_10basic_jsonINSt3__13mapENS3_6vectorENS3_12basic_stringIcNS3_11char_traitsIcEENS3_9allocatorIcEEEEbxydS9_NS_14adl_serializerENS5_IhNS9_IhEEEEEENS0_22iterator_input_adapterINS3_11__wrap_iterIPKcEEEEE17exception_messageENS0_10lexer_baseISF_E10token_typeERKSB_, symObjAddr: 0x908C, symBinAddr: 0x26890, symSize: 0x420 }
  - { offsetInCU: 0x9B4BB, offset: 0x13984E, size: 0x8, addend: 0x0, symName: __ZN8nlohmann6detail11parse_error6createINS_10basic_jsonINSt3__13mapENS4_6vectorENS4_12basic_stringIcNS4_11char_traitsIcEENS4_9allocatorIcEEEEbxydSA_NS_14adl_serializerENS6_IhNSA_IhEEEEEEEES1_iRKNS0_10position_tERKSC_RKT_, symObjAddr: 0x8D68, symBinAddr: 0x2656C, symSize: 0x324 }
  - { offsetInCU: 0x9CF3C, offset: 0x13B2CF, size: 0x8, addend: 0x0, symName: __ZN8nlohmann6detail19json_sax_dom_parserINS_10basic_jsonINSt3__13mapENS3_6vectorENS3_12basic_stringIcNS3_11char_traitsIcEENS3_9allocatorIcEEEEbxydS9_NS_14adl_serializerENS5_IhNS9_IhEEEEEEE11parse_errorINS0_11parse_errorEEEbmRKSB_RKT_, symObjAddr: 0x9FA4, symBinAddr: 0x277A8, symSize: 0x54 }
  - { offsetInCU: 0x9CFAA, offset: 0x13B33D, size: 0x8, addend: 0x0, symName: __ZN8nlohmann10basic_jsonINSt3__13mapENS1_6vectorENS1_12basic_stringIcNS1_11char_traitsIcEENS1_9allocatorIcEEEEbxydS7_NS_14adl_serializerENS3_IhNS7_IhEEEEEaSESD_, symObjAddr: 0x94E0, symBinAddr: 0x26CE4, symSize: 0x5C }
  - { offsetInCU: 0x9D072, offset: 0x13B405, size: 0x8, addend: 0x0, symName: __ZN8nlohmann6detail6parserINS_10basic_jsonINSt3__13mapENS3_6vectorENS3_12basic_stringIcNS3_11char_traitsIcEENS3_9allocatorIcEEEEbxydS9_NS_14adl_serializerENS5_IhNS9_IhEEEEEENS0_22iterator_input_adapterINS3_11__wrap_iterIPKcEEEEE18sax_parse_internalINS0_28json_sax_dom_callback_parserISF_EEEEbPT_, symObjAddr: 0x81E0, symBinAddr: 0x259E4, symSize: 0xA48 }
  - { offsetInCU: 0x9E80F, offset: 0x13CBA2, size: 0x8, addend: 0x0, symName: __ZN8nlohmann6detail28json_sax_dom_callback_parserINS_10basic_jsonINSt3__13mapENS3_6vectorENS3_12basic_stringIcNS3_11char_traitsIcEENS3_9allocatorIcEEEEbxydS9_NS_14adl_serializerENS5_IhNS9_IhEEEEEEE11parse_errorINS0_11parse_errorEEEbmRKSB_RKT_, symObjAddr: 0x8C28, symBinAddr: 0x2642C, symSize: 0x54 }
  - { offsetInCU: 0x9E87D, offset: 0x13CC10, size: 0x8, addend: 0x0, symName: __ZN8nlohmann6detail28json_sax_dom_callback_parserINS_10basic_jsonINSt3__13mapENS3_6vectorENS3_12basic_stringIcNS3_11char_traitsIcEENS3_9allocatorIcEEEEbxydS9_NS_14adl_serializerENS5_IhNS9_IhEEEEEEED2Ev, symObjAddr: 0xEA44, symBinAddr: 0x2BEC4, symSize: 0x80 }
  - { offsetInCU: 0x9EFCA, offset: 0x13D35D, size: 0x8, addend: 0x0, symName: __ZN8nlohmann10basic_jsonINSt3__13mapENS1_6vectorENS1_12basic_stringIcNS1_11char_traitsIcEENS1_9allocatorIcEEEEbxydS7_NS_14adl_serializerENS3_IhNS7_IhEEEEE10json_valueC2ENS_6detail7value_tE, symObjAddr: 0x6B74, symBinAddr: 0x24378, symSize: 0xAC }
  - { offsetInCU: 0x9F3C5, offset: 0x13D758, size: 0x8, addend: 0x0, symName: __ZN8nlohmann10basic_jsonINSt3__13mapENS1_6vectorENS1_12basic_stringIcNS1_11char_traitsIcEENS1_9allocatorIcEEEEbxydS7_NS_14adl_serializerENS3_IhNS7_IhEEEEE6createIS9_JRA1_KcEEEPT_DpOT0_, symObjAddr: 0x6C20, symBinAddr: 0x24424, symSize: 0x48 }
  - { offsetInCU: 0x9F88B, offset: 0x13DC1E, size: 0x8, addend: 0x0, symName: __ZN8nlohmann6detail9exception4nameERKNSt3__112basic_stringIcNS2_11char_traitsIcEENS2_9allocatorIcEEEEi, symObjAddr: 0x6C68, symBinAddr: 0x2446C, symSize: 0x188 }
  - { offsetInCU: 0xA0480, offset: 0x13E813, size: 0x8, addend: 0x0, symName: __ZN8nlohmann6detail9exceptionC2EiPKc, symObjAddr: 0x6E4C, symBinAddr: 0x24650, symSize: 0x54 }
  - { offsetInCU: 0xA04C9, offset: 0x13E85C, size: 0x8, addend: 0x0, symName: __ZNK8nlohmann6detail9exception4whatEv, symObjAddr: 0x6EA0, symBinAddr: 0x246A4, symSize: 0x8 }
  - { offsetInCU: 0xA04F0, offset: 0x13E883, size: 0x8, addend: 0x0, symName: __ZN8nlohmann6detail9exceptionD1Ev, symObjAddr: 0x6EA8, symBinAddr: 0x246AC, symSize: 0x34 }
  - { offsetInCU: 0xA054C, offset: 0x13E8DF, size: 0x8, addend: 0x0, symName: __ZN8nlohmann6detail9exceptionD0Ev, symObjAddr: 0x6EDC, symBinAddr: 0x246E0, symSize: 0x38 }
  - { offsetInCU: 0xA0611, offset: 0x13E9A4, size: 0x8, addend: 0x0, symName: __ZN8nlohmann6detail5lexerINS_10basic_jsonINSt3__13mapENS3_6vectorENS3_12basic_stringIcNS3_11char_traitsIcEENS3_9allocatorIcEEEEbxydS9_NS_14adl_serializerENS5_IhNS9_IhEEEEEENS0_22iterator_input_adapterINS3_11__wrap_iterIPKcEEEEE17get_decimal_pointEv, symObjAddr: 0x7060, symBinAddr: 0x24864, symSize: 0x58 }
  - { offsetInCU: 0xA0666, offset: 0x13E9F9, size: 0x8, addend: 0x0, symName: __ZN8nlohmann6detail5lexerINS_10basic_jsonINSt3__13mapENS3_6vectorENS3_12basic_stringIcNS3_11char_traitsIcEENS3_9allocatorIcEEEEbxydS9_NS_14adl_serializerENS5_IhNS9_IhEEEEEENS0_22iterator_input_adapterINS3_11__wrap_iterIPKcEEEEE8skip_bomEv, symObjAddr: 0x72E8, symBinAddr: 0x24AEC, symSize: 0x60 }
  - { offsetInCU: 0xA06DE, offset: 0x13EA71, size: 0x8, addend: 0x0, symName: __ZN8nlohmann6detail5lexerINS_10basic_jsonINSt3__13mapENS3_6vectorENS3_12basic_stringIcNS3_11char_traitsIcEENS3_9allocatorIcEEEEbxydS9_NS_14adl_serializerENS5_IhNS9_IhEEEEEENS0_22iterator_input_adapterINS3_11__wrap_iterIPKcEEEEE3getEv, symObjAddr: 0x7D10, symBinAddr: 0x25514, symSize: 0x160 }
  - { offsetInCU: 0xA0C46, offset: 0x13EFD9, size: 0x8, addend: 0x0, symName: __ZN8nlohmann6detail5lexerINS_10basic_jsonINSt3__13mapENS3_6vectorENS3_12basic_stringIcNS3_11char_traitsIcEENS3_9allocatorIcEEEEbxydS9_NS_14adl_serializerENS5_IhNS9_IhEEEEEENS0_22iterator_input_adapterINS3_11__wrap_iterIPKcEEEEE5ungetEv, symObjAddr: 0x7E70, symBinAddr: 0x25674, symSize: 0x68 }
  - { offsetInCU: 0xA0C58, offset: 0x13EFEB, size: 0x8, addend: 0x0, symName: __ZN8nlohmann6detail5lexerINS_10basic_jsonINSt3__13mapENS3_6vectorENS3_12basic_stringIcNS3_11char_traitsIcEENS3_9allocatorIcEEEEbxydS9_NS_14adl_serializerENS5_IhNS9_IhEEEEEENS0_22iterator_input_adapterINS3_11__wrap_iterIPKcEEEEE12scan_commentEv, symObjAddr: 0x7348, symBinAddr: 0x24B4C, symSize: 0xB0 }
  - { offsetInCU: 0xA0CE4, offset: 0x13F077, size: 0x8, addend: 0x0, symName: __ZN8nlohmann6detail5lexerINS_10basic_jsonINSt3__13mapENS3_6vectorENS3_12basic_stringIcNS3_11char_traitsIcEENS3_9allocatorIcEEEEbxydS9_NS_14adl_serializerENS5_IhNS9_IhEEEEEENS0_22iterator_input_adapterINS3_11__wrap_iterIPKcEEEEE11scan_numberEv, symObjAddr: 0x7964, symBinAddr: 0x25168, symSize: 0x3AC }
  - { offsetInCU: 0xA136F, offset: 0x13F702, size: 0x8, addend: 0x0, symName: __ZN8nlohmann6detail5lexerINS_10basic_jsonINSt3__13mapENS3_6vectorENS3_12basic_stringIcNS3_11char_traitsIcEENS3_9allocatorIcEEEEbxydS9_NS_14adl_serializerENS5_IhNS9_IhEEEEEENS0_22iterator_input_adapterINS3_11__wrap_iterIPKcEEEEE11scan_stringEv, symObjAddr: 0x747C, symBinAddr: 0x24C80, symSize: 0x4E8 }
  - { offsetInCU: 0xA1521, offset: 0x13F8B4, size: 0x8, addend: 0x0, symName: __ZN8nlohmann6detail5lexerINS_10basic_jsonINSt3__13mapENS3_6vectorENS3_12basic_stringIcNS3_11char_traitsIcEENS3_9allocatorIcEEEEbxydS9_NS_14adl_serializerENS5_IhNS9_IhEEEEEENS0_22iterator_input_adapterINS3_11__wrap_iterIPKcEEEEE12scan_literalESJ_mNS0_10lexer_baseISF_E10token_typeE, symObjAddr: 0x73F8, symBinAddr: 0x24BFC, symSize: 0x84 }
  - { offsetInCU: 0xA15A5, offset: 0x13F938, size: 0x8, addend: 0x0, symName: __ZN8nlohmann6detail5lexerINS_10basic_jsonINSt3__13mapENS3_6vectorENS3_12basic_stringIcNS3_11char_traitsIcEENS3_9allocatorIcEEEEbxydS9_NS_14adl_serializerENS5_IhNS9_IhEEEEEENS0_22iterator_input_adapterINS3_11__wrap_iterIPKcEEEEE11scan_stringEv, symObjAddr: 0x747C, symBinAddr: 0x24C80, symSize: 0x4E8 }
  - { offsetInCU: 0xA15B0, offset: 0x13F943, size: 0x8, addend: 0x0, symName: __ZN8nlohmann6detail5lexerINS_10basic_jsonINSt3__13mapENS3_6vectorENS3_12basic_stringIcNS3_11char_traitsIcEENS3_9allocatorIcEEEEbxydS9_NS_14adl_serializerENS5_IhNS9_IhEEEEEENS0_22iterator_input_adapterINS3_11__wrap_iterIPKcEEEEE5ungetEv, symObjAddr: 0x7E70, symBinAddr: 0x25674, symSize: 0x68 }
  - { offsetInCU: 0xA164F, offset: 0x13F9E2, size: 0x8, addend: 0x0, symName: __ZN8nlohmann6detail5lexerINS_10basic_jsonINSt3__13mapENS3_6vectorENS3_12basic_stringIcNS3_11char_traitsIcEENS3_9allocatorIcEEEEbxydS9_NS_14adl_serializerENS5_IhNS9_IhEEEEEENS0_22iterator_input_adapterINS3_11__wrap_iterIPKcEEEEE5resetEv, symObjAddr: 0x7ED8, symBinAddr: 0x256DC, symSize: 0xC0 }
  - { offsetInCU: 0xA165A, offset: 0x13F9ED, size: 0x8, addend: 0x0, symName: __ZN8nlohmann6detail5lexerINS_10basic_jsonINSt3__13mapENS3_6vectorENS3_12basic_stringIcNS3_11char_traitsIcEENS3_9allocatorIcEEEEbxydS9_NS_14adl_serializerENS5_IhNS9_IhEEEEEENS0_22iterator_input_adapterINS3_11__wrap_iterIPKcEEEEE12scan_literalESJ_mNS0_10lexer_baseISF_E10token_typeE.cold.1, symObjAddr: 0x1C090, symBinAddr: 0x393F8, symSize: 0x28 }
  - { offsetInCU: 0xA1694, offset: 0x13FA27, size: 0x8, addend: 0x0, symName: __ZN8nlohmann6detail5lexerINS_10basic_jsonINSt3__13mapENS3_6vectorENS3_12basic_stringIcNS3_11char_traitsIcEENS3_9allocatorIcEEEEbxydS9_NS_14adl_serializerENS5_IhNS9_IhEEEEEENS0_22iterator_input_adapterINS3_11__wrap_iterIPKcEEEEE5resetEv, symObjAddr: 0x7ED8, symBinAddr: 0x256DC, symSize: 0xC0 }
  - { offsetInCU: 0xA1B62, offset: 0x13FEF5, size: 0x8, addend: 0x0, symName: __ZN8nlohmann6detail5lexerINS_10basic_jsonINSt3__13mapENS3_6vectorENS3_12basic_stringIcNS3_11char_traitsIcEENS3_9allocatorIcEEEEbxydS9_NS_14adl_serializerENS5_IhNS9_IhEEEEEENS0_22iterator_input_adapterINS3_11__wrap_iterIPKcEEEEE18next_byte_in_rangeESt16initializer_listIiE, symObjAddr: 0x8088, symBinAddr: 0x2588C, symSize: 0xB4 }
  - { offsetInCU: 0xA1C04, offset: 0x13FF97, size: 0x8, addend: 0x0, symName: __ZN8nlohmann6detail5lexerINS_10basic_jsonINSt3__13mapENS3_6vectorENS3_12basic_stringIcNS3_11char_traitsIcEENS3_9allocatorIcEEEEbxydS9_NS_14adl_serializerENS5_IhNS9_IhEEEEEENS0_22iterator_input_adapterINS3_11__wrap_iterIPKcEEEEED2Ev, symObjAddr: 0x813C, symBinAddr: 0x25940, symSize: 0x40 }
  - { offsetInCU: 0xA1C0F, offset: 0x13FFA2, size: 0x8, addend: 0x0, symName: __ZN8nlohmann6detail5lexerINS_10basic_jsonINSt3__13mapENS3_6vectorENS3_12basic_stringIcNS3_11char_traitsIcEENS3_9allocatorIcEEEEbxydS9_NS_14adl_serializerENS5_IhNS9_IhEEEEEENS0_22iterator_input_adapterINS3_11__wrap_iterIPKcEEEEE13get_codepointEv, symObjAddr: 0x7F98, symBinAddr: 0x2579C, symSize: 0xF0 }
  - { offsetInCU: 0xA1CDA, offset: 0x14006D, size: 0x8, addend: 0x0, symName: __ZN8nlohmann6detail5lexerINS_10basic_jsonINSt3__13mapENS3_6vectorENS3_12basic_stringIcNS3_11char_traitsIcEENS3_9allocatorIcEEEEbxydS9_NS_14adl_serializerENS5_IhNS9_IhEEEEEENS0_22iterator_input_adapterINS3_11__wrap_iterIPKcEEEEE11scan_stringEv.cold.2, symObjAddr: 0x1C0E0, symBinAddr: 0x39448, symSize: 0x28 }
  - { offsetInCU: 0xA1CF2, offset: 0x140085, size: 0x8, addend: 0x0, symName: __ZN8nlohmann6detail5lexerINS_10basic_jsonINSt3__13mapENS3_6vectorENS3_12basic_stringIcNS3_11char_traitsIcEENS3_9allocatorIcEEEEbxydS9_NS_14adl_serializerENS5_IhNS9_IhEEEEEENS0_22iterator_input_adapterINS3_11__wrap_iterIPKcEEEEE11scan_stringEv.cold.1, symObjAddr: 0x1C0B8, symBinAddr: 0x39420, symSize: 0x28 }
  - { offsetInCU: 0xA1D4C, offset: 0x1400DF, size: 0x8, addend: 0x0, symName: __ZN8nlohmann6detail5lexerINS_10basic_jsonINSt3__13mapENS3_6vectorENS3_12basic_stringIcNS3_11char_traitsIcEENS3_9allocatorIcEEEEbxydS9_NS_14adl_serializerENS5_IhNS9_IhEEEEEENS0_22iterator_input_adapterINS3_11__wrap_iterIPKcEEEEE11scan_numberEv.cold.2, symObjAddr: 0x1C130, symBinAddr: 0x39498, symSize: 0x28 }
  - { offsetInCU: 0xA1D64, offset: 0x1400F7, size: 0x8, addend: 0x0, symName: __ZN8nlohmann6detail5lexerINS_10basic_jsonINSt3__13mapENS3_6vectorENS3_12basic_stringIcNS3_11char_traitsIcEENS3_9allocatorIcEEEEbxydS9_NS_14adl_serializerENS5_IhNS9_IhEEEEEENS0_22iterator_input_adapterINS3_11__wrap_iterIPKcEEEEE11scan_numberEv.cold.3, symObjAddr: 0x1C158, symBinAddr: 0x394C0, symSize: 0x28 }
  - { offsetInCU: 0xA1D7C, offset: 0x14010F, size: 0x8, addend: 0x0, symName: __ZN8nlohmann6detail5lexerINS_10basic_jsonINSt3__13mapENS3_6vectorENS3_12basic_stringIcNS3_11char_traitsIcEENS3_9allocatorIcEEEEbxydS9_NS_14adl_serializerENS5_IhNS9_IhEEEEEENS0_22iterator_input_adapterINS3_11__wrap_iterIPKcEEEEE11scan_numberEv.cold.4, symObjAddr: 0x1C180, symBinAddr: 0x394E8, symSize: 0x28 }
  - { offsetInCU: 0xA1D94, offset: 0x140127, size: 0x8, addend: 0x0, symName: __ZN8nlohmann6detail5lexerINS_10basic_jsonINSt3__13mapENS3_6vectorENS3_12basic_stringIcNS3_11char_traitsIcEENS3_9allocatorIcEEEEbxydS9_NS_14adl_serializerENS5_IhNS9_IhEEEEEENS0_22iterator_input_adapterINS3_11__wrap_iterIPKcEEEEE11scan_numberEv.cold.1, symObjAddr: 0x1C108, symBinAddr: 0x39470, symSize: 0x28 }
  - { offsetInCU: 0xA1E56, offset: 0x1401E9, size: 0x8, addend: 0x0, symName: __ZN8nlohmann6detail5lexerINS_10basic_jsonINSt3__13mapENS3_6vectorENS3_12basic_stringIcNS3_11char_traitsIcEENS3_9allocatorIcEEEEbxydS9_NS_14adl_serializerENS5_IhNS9_IhEEEEEENS0_22iterator_input_adapterINS3_11__wrap_iterIPKcEEEEE5ungetEv.cold.1, symObjAddr: 0x1C1A8, symBinAddr: 0x39510, symSize: 0x28 }
  - { offsetInCU: 0xA1EE8, offset: 0x14027B, size: 0x8, addend: 0x0, symName: __ZN8nlohmann6detail5lexerINS_10basic_jsonINSt3__13mapENS3_6vectorENS3_12basic_stringIcNS3_11char_traitsIcEENS3_9allocatorIcEEEEbxydS9_NS_14adl_serializerENS5_IhNS9_IhEEEEEENS0_22iterator_input_adapterINS3_11__wrap_iterIPKcEEEEE13get_codepointEv.cold.1, symObjAddr: 0x1C1D0, symBinAddr: 0x39538, symSize: 0x28 }
  - { offsetInCU: 0xA1F00, offset: 0x140293, size: 0x8, addend: 0x0, symName: __ZN8nlohmann6detail5lexerINS_10basic_jsonINSt3__13mapENS3_6vectorENS3_12basic_stringIcNS3_11char_traitsIcEENS3_9allocatorIcEEEEbxydS9_NS_14adl_serializerENS5_IhNS9_IhEEEEEENS0_22iterator_input_adapterINS3_11__wrap_iterIPKcEEEEE13get_codepointEv.cold.2, symObjAddr: 0x1C1F8, symBinAddr: 0x39560, symSize: 0x28 }
  - { offsetInCU: 0xA1F18, offset: 0x1402AB, size: 0x8, addend: 0x0, symName: __ZN8nlohmann6detail5lexerINS_10basic_jsonINSt3__13mapENS3_6vectorENS3_12basic_stringIcNS3_11char_traitsIcEENS3_9allocatorIcEEEEbxydS9_NS_14adl_serializerENS5_IhNS9_IhEEEEEENS0_22iterator_input_adapterINS3_11__wrap_iterIPKcEEEEE18next_byte_in_rangeESt16initializer_listIiE.cold.1, symObjAddr: 0x1C220, symBinAddr: 0x39588, symSize: 0x28 }
  - { offsetInCU: 0xA221D, offset: 0x1405B0, size: 0x8, addend: 0x0, symName: __ZN8nlohmann6detail28json_sax_dom_callback_parserINS_10basic_jsonINSt3__13mapENS3_6vectorENS3_12basic_stringIcNS3_11char_traitsIcEENS3_9allocatorIcEEEEbxydS9_NS_14adl_serializerENS5_IhNS9_IhEEEEEEE12handle_valueIRbEENS3_4pairIbPSF_EEOT_b, symObjAddr: 0xDB68, symBinAddr: 0x2AFE8, symSize: 0x260 }
  - { offsetInCU: 0xA27C9, offset: 0x140B5C, size: 0x8, addend: 0x0, symName: __ZN8nlohmann6detail28json_sax_dom_callback_parserINS_10basic_jsonINSt3__13mapENS3_6vectorENS3_12basic_stringIcNS3_11char_traitsIcEENS3_9allocatorIcEEEEbxydS9_NS_14adl_serializerENS5_IhNS9_IhEEEEEEE11start_arrayEm, symObjAddr: 0xAC24, symBinAddr: 0x28428, symSize: 0x23C }
  - { offsetInCU: 0xA2EFA, offset: 0x14128D, size: 0x8, addend: 0x0, symName: __ZN8nlohmann6detail28json_sax_dom_callback_parserINS_10basic_jsonINSt3__13mapENS3_6vectorENS3_12basic_stringIcNS3_11char_traitsIcEENS3_9allocatorIcEEEEbxydS9_NS_14adl_serializerENS5_IhNS9_IhEEEEEEE9end_arrayEv, symObjAddr: 0xAE60, symBinAddr: 0x28664, symSize: 0xE4 }
  - { offsetInCU: 0xA3229, offset: 0x1415BC, size: 0x8, addend: 0x0, symName: __ZN8nlohmann6detail28json_sax_dom_callback_parserINS_10basic_jsonINSt3__13mapENS3_6vectorENS3_12basic_stringIcNS3_11char_traitsIcEENS3_9allocatorIcEEEEbxydS9_NS_14adl_serializerENS5_IhNS9_IhEEEEEEE11parse_errorINS0_12out_of_rangeEEEbmRKSB_RKT_, symObjAddr: 0xAF44, symBinAddr: 0x28748, symSize: 0x54 }
  - { offsetInCU: 0xA323A, offset: 0x1415CD, size: 0x8, addend: 0x0, symName: __ZN8nlohmann6detail28json_sax_dom_callback_parserINS_10basic_jsonINSt3__13mapENS3_6vectorENS3_12basic_stringIcNS3_11char_traitsIcEENS3_9allocatorIcEEEEbxydS9_NS_14adl_serializerENS5_IhNS9_IhEEEEEEE12handle_valueIRxEENS3_4pairIbPSF_EEOT_b, symObjAddr: 0xE06C, symBinAddr: 0x2B4EC, symSize: 0x260 }
  - { offsetInCU: 0xA37F3, offset: 0x141B86, size: 0x8, addend: 0x0, symName: __ZN8nlohmann6detail28json_sax_dom_callback_parserINS_10basic_jsonINSt3__13mapENS3_6vectorENS3_12basic_stringIcNS3_11char_traitsIcEENS3_9allocatorIcEEEEbxydS9_NS_14adl_serializerENS5_IhNS9_IhEEEEEEE12handle_valueIDnEENS3_4pairIbPSF_EEOT_b, symObjAddr: 0xDE0C, symBinAddr: 0x2B28C, symSize: 0x260 }
  - { offsetInCU: 0xA3D8D, offset: 0x142120, size: 0x8, addend: 0x0, symName: __ZN8nlohmann6detail28json_sax_dom_callback_parserINS_10basic_jsonINSt3__13mapENS3_6vectorENS3_12basic_stringIcNS3_11char_traitsIcEENS3_9allocatorIcEEEEbxydS9_NS_14adl_serializerENS5_IhNS9_IhEEEEEEE12start_objectEm, symObjAddr: 0xA778, symBinAddr: 0x27F7C, symSize: 0x23C }
  - { offsetInCU: 0xA44BE, offset: 0x142851, size: 0x8, addend: 0x0, symName: __ZN8nlohmann6detail28json_sax_dom_callback_parserINS_10basic_jsonINSt3__13mapENS3_6vectorENS3_12basic_stringIcNS3_11char_traitsIcEENS3_9allocatorIcEEEEbxydS9_NS_14adl_serializerENS5_IhNS9_IhEEEEEEE10end_objectEv, symObjAddr: 0xA9B4, symBinAddr: 0x281B8, symSize: 0x170 }
  - { offsetInCU: 0xA4961, offset: 0x142CF4, size: 0x8, addend: 0x0, symName: __ZN8nlohmann6detail28json_sax_dom_callback_parserINS_10basic_jsonINSt3__13mapENS3_6vectorENS3_12basic_stringIcNS3_11char_traitsIcEENS3_9allocatorIcEEEEbxydS9_NS_14adl_serializerENS5_IhNS9_IhEEEEEEE3keyERSB_, symObjAddr: 0xAB24, symBinAddr: 0x28328, symSize: 0x100 }
  - { offsetInCU: 0xA496C, offset: 0x142CFF, size: 0x8, addend: 0x0, symName: __ZN8nlohmann6detail28json_sax_dom_callback_parserINS_10basic_jsonINSt3__13mapENS3_6vectorENS3_12basic_stringIcNS3_11char_traitsIcEENS3_9allocatorIcEEEEbxydS9_NS_14adl_serializerENS5_IhNS9_IhEEEEEEE12handle_valueIRSB_EENS3_4pairIbPSF_EEOT_b, symObjAddr: 0xE30C, symBinAddr: 0x2B78C, symSize: 0x25C }
  - { offsetInCU: 0xA4F21, offset: 0x1432B4, size: 0x8, addend: 0x0, symName: __ZN8nlohmann6detail28json_sax_dom_callback_parserINS_10basic_jsonINSt3__13mapENS3_6vectorENS3_12basic_stringIcNS3_11char_traitsIcEENS3_9allocatorIcEEEEbxydS9_NS_14adl_serializerENS5_IhNS9_IhEEEEEEE12handle_valueIRyEENS3_4pairIbPSF_EEOT_b, symObjAddr: 0xE568, symBinAddr: 0x2B9E8, symSize: 0x260 }
  - { offsetInCU: 0xA54D4, offset: 0x143867, size: 0x8, addend: 0x0, symName: __ZN8nlohmann6detail28json_sax_dom_callback_parserINS_10basic_jsonINSt3__13mapENS3_6vectorENS3_12basic_stringIcNS3_11char_traitsIcEENS3_9allocatorIcEEEEbxydS9_NS_14adl_serializerENS5_IhNS9_IhEEEEEEE12handle_valueIRdEENS3_4pairIbPSF_EEOT_b, symObjAddr: 0xD8C0, symBinAddr: 0x2AD40, symSize: 0x260 }
  - { offsetInCU: 0xA5A84, offset: 0x143E17, size: 0x8, addend: 0x0, symName: __ZN8nlohmann6detail28json_sax_dom_callback_parserINS_10basic_jsonINSt3__13mapENS3_6vectorENS3_12basic_stringIcNS3_11char_traitsIcEENS3_9allocatorIcEEEEbxydS9_NS_14adl_serializerENS5_IhNS9_IhEEEEEEE3keyERSB_, symObjAddr: 0xAB24, symBinAddr: 0x28328, symSize: 0x100 }
  - { offsetInCU: 0xA5DB6, offset: 0x144149, size: 0x8, addend: 0x0, symName: __ZNSt3__16vectorIbNS_9allocatorIbEEE9push_backERKb, symObjAddr: 0xA118, symBinAddr: 0x2791C, symSize: 0xA4 }
  - { offsetInCU: 0xA5E90, offset: 0x144223, size: 0x8, addend: 0x0, symName: __ZNSt3__16vectorIbNS_9allocatorIbEEE7reserveEm, symObjAddr: 0xA1BC, symBinAddr: 0x279C0, symSize: 0xC0 }
  - { offsetInCU: 0xA5EA2, offset: 0x144235, size: 0x8, addend: 0x0, symName: __ZN8nlohmann6detail12out_of_range6createINS_10basic_jsonINSt3__13mapENS4_6vectorENS4_12basic_stringIcNS4_11char_traitsIcEENS4_9allocatorIcEEEEbxydSA_NS_14adl_serializerENS6_IhNSA_IhEEEEEEEES1_iRKSC_RKT_, symObjAddr: 0xAF98, symBinAddr: 0x2879C, symSize: 0x1D0 }
  - { offsetInCU: 0xA6CFB, offset: 0x14508E, size: 0x8, addend: 0x0, symName: __ZN8nlohmann6detail28json_sax_dom_callback_parserINS_10basic_jsonINSt3__13mapENS3_6vectorENS3_12basic_stringIcNS3_11char_traitsIcEENS3_9allocatorIcEEEEbxydS9_NS_14adl_serializerENS5_IhNS9_IhEEEEEEE11parse_errorINS0_12out_of_rangeEEEbmRKSB_RKT_, symObjAddr: 0xAF44, symBinAddr: 0x28748, symSize: 0x54 }
  - { offsetInCU: 0xA6D69, offset: 0x1450FC, size: 0x8, addend: 0x0, symName: __ZN8nlohmann6detail11parse_errorC1ERKS1_, symObjAddr: 0xE808, symBinAddr: 0x2BC88, symSize: 0x60 }
  - { offsetInCU: 0xA6EB2, offset: 0x145245, size: 0x8, addend: 0x0, symName: __ZN8nlohmann6detail11parse_error15position_stringERKNS0_10position_tE, symObjAddr: 0xE8A0, symBinAddr: 0x2BD20, symSize: 0x180 }
  - { offsetInCU: 0xA7B17, offset: 0x145EAA, size: 0x8, addend: 0x0, symName: __ZN8nlohmann6detail10lexer_baseINS_10basic_jsonINSt3__13mapENS3_6vectorENS3_12basic_stringIcNS3_11char_traitsIcEENS3_9allocatorIcEEEEbxydS9_NS_14adl_serializerENS5_IhNS9_IhEEEEEEE15token_type_nameENSG_10token_typeE, symObjAddr: 0xEA20, symBinAddr: 0x2BEA0, symSize: 0x24 }
  - { offsetInCU: 0xA7B3B, offset: 0x145ECE, size: 0x8, addend: 0x0, symName: __ZN8nlohmann6detail11parse_errorD1Ev, symObjAddr: 0x94AC, symBinAddr: 0x26CB0, symSize: 0x34 }
  - { offsetInCU: 0xA7D35, offset: 0x1460C8, size: 0x8, addend: 0x0, symName: __ZN8nlohmann6detail19json_sax_dom_parserINS_10basic_jsonINSt3__13mapENS3_6vectorENS3_12basic_stringIcNS3_11char_traitsIcEENS3_9allocatorIcEEEEbxydS9_NS_14adl_serializerENS5_IhNS9_IhEEEEEEE12handle_valueIRbEEPSF_OT_, symObjAddr: 0xF368, symBinAddr: 0x2C7E8, symSize: 0x130 }
  - { offsetInCU: 0xA8208, offset: 0x14659B, size: 0x8, addend: 0x0, symName: __ZNSt3__16vectorIN8nlohmann10basic_jsonINS_3mapES0_NS_12basic_stringIcNS_11char_traitsIcEENS_9allocatorIcEEEEbxydS7_NS1_14adl_serializerENS0_IhNS7_IhEEEEEENS7_ISD_EEE24__emplace_back_slow_pathIJRbEEEvDpOT_, symObjAddr: 0xF498, symBinAddr: 0x2C918, symSize: 0xE4 }
  - { offsetInCU: 0xA821C, offset: 0x1465AF, size: 0x8, addend: 0x0, symName: __ZN8nlohmann6detail19json_sax_dom_parserINS_10basic_jsonINSt3__13mapENS3_6vectorENS3_12basic_stringIcNS3_11char_traitsIcEENS3_9allocatorIcEEEEbxydS9_NS_14adl_serializerENS5_IhNS9_IhEEEEEEE11start_arrayEm, symObjAddr: 0xECC8, symBinAddr: 0x2C148, symSize: 0x204 }
  - { offsetInCU: 0xA88EE, offset: 0x146C81, size: 0x8, addend: 0x0, symName: __ZN8nlohmann6detail19json_sax_dom_parserINS_10basic_jsonINSt3__13mapENS3_6vectorENS3_12basic_stringIcNS3_11char_traitsIcEENS3_9allocatorIcEEEEbxydS9_NS_14adl_serializerENS5_IhNS9_IhEEEEEEE12handle_valueIRxEEPSF_OT_, symObjAddr: 0xF784, symBinAddr: 0x2CC04, symSize: 0x130 }
  - { offsetInCU: 0xA8DD6, offset: 0x147169, size: 0x8, addend: 0x0, symName: __ZNSt3__16vectorIN8nlohmann10basic_jsonINS_3mapES0_NS_12basic_stringIcNS_11char_traitsIcEENS_9allocatorIcEEEEbxydS7_NS1_14adl_serializerENS0_IhNS7_IhEEEEEENS7_ISD_EEE24__emplace_back_slow_pathIJRxEEEvDpOT_, symObjAddr: 0xF8B4, symBinAddr: 0x2CD34, symSize: 0xE4 }
  - { offsetInCU: 0xA8DEA, offset: 0x14717D, size: 0x8, addend: 0x0, symName: __ZN8nlohmann6detail19json_sax_dom_parserINS_10basic_jsonINSt3__13mapENS3_6vectorENS3_12basic_stringIcNS3_11char_traitsIcEENS3_9allocatorIcEEEEbxydS9_NS_14adl_serializerENS5_IhNS9_IhEEEEEEE12handle_valueIDnEEPSF_OT_, symObjAddr: 0xF57C, symBinAddr: 0x2C9FC, symSize: 0x130 }
  - { offsetInCU: 0xA9286, offset: 0x147619, size: 0x8, addend: 0x0, symName: __ZNSt3__16vectorIN8nlohmann10basic_jsonINS_3mapES0_NS_12basic_stringIcNS_11char_traitsIcEENS_9allocatorIcEEEEbxydS7_NS1_14adl_serializerENS0_IhNS7_IhEEEEEENS7_ISD_EEE24__emplace_back_slow_pathIJDnEEEvDpOT_, symObjAddr: 0xF6AC, symBinAddr: 0x2CB2C, symSize: 0xD8 }
  - { offsetInCU: 0xA929A, offset: 0x14762D, size: 0x8, addend: 0x0, symName: __ZN8nlohmann6detail19json_sax_dom_parserINS_10basic_jsonINSt3__13mapENS3_6vectorENS3_12basic_stringIcNS3_11char_traitsIcEENS3_9allocatorIcEEEEbxydS9_NS_14adl_serializerENS5_IhNS9_IhEEEEEEE12start_objectEm, symObjAddr: 0xEAC4, symBinAddr: 0x2BF44, symSize: 0x204 }
  - { offsetInCU: 0xA996C, offset: 0x147CFF, size: 0x8, addend: 0x0, symName: __ZN8nlohmann6detail19json_sax_dom_parserINS_10basic_jsonINSt3__13mapENS3_6vectorENS3_12basic_stringIcNS3_11char_traitsIcEENS3_9allocatorIcEEEEbxydS9_NS_14adl_serializerENS5_IhNS9_IhEEEEEEE12handle_valueIRSB_EEPSF_OT_, symObjAddr: 0xF998, symBinAddr: 0x2CE18, symSize: 0xF8 }
  - { offsetInCU: 0xA9CBE, offset: 0x148051, size: 0x8, addend: 0x0, symName: __ZNSt3__16vectorIN8nlohmann10basic_jsonINS_3mapES0_NS_12basic_stringIcNS_11char_traitsIcEENS_9allocatorIcEEEEbxydS7_NS1_14adl_serializerENS0_IhNS7_IhEEEEEENS7_ISD_EEE22__construct_one_at_endB7v160006IJRS9_EEEvDpOT_, symObjAddr: 0xFA90, symBinAddr: 0x2CF10, symSize: 0x4C }
  - { offsetInCU: 0xA9CD2, offset: 0x148065, size: 0x8, addend: 0x0, symName: __ZN8nlohmann6detail19json_sax_dom_parserINS_10basic_jsonINSt3__13mapENS3_6vectorENS3_12basic_stringIcNS3_11char_traitsIcEENS3_9allocatorIcEEEEbxydS9_NS_14adl_serializerENS5_IhNS9_IhEEEEEEE12handle_valueIRyEEPSF_OT_, symObjAddr: 0xFBC0, symBinAddr: 0x2D040, symSize: 0x130 }
  - { offsetInCU: 0xAA1BA, offset: 0x14854D, size: 0x8, addend: 0x0, symName: __ZNSt3__16vectorIN8nlohmann10basic_jsonINS_3mapES0_NS_12basic_stringIcNS_11char_traitsIcEENS_9allocatorIcEEEEbxydS7_NS1_14adl_serializerENS0_IhNS7_IhEEEEEENS7_ISD_EEE24__emplace_back_slow_pathIJRyEEEvDpOT_, symObjAddr: 0xFCF0, symBinAddr: 0x2D170, symSize: 0xE4 }
  - { offsetInCU: 0xAA1CE, offset: 0x148561, size: 0x8, addend: 0x0, symName: __ZN8nlohmann6detail19json_sax_dom_parserINS_10basic_jsonINSt3__13mapENS3_6vectorENS3_12basic_stringIcNS3_11char_traitsIcEENS3_9allocatorIcEEEEbxydS9_NS_14adl_serializerENS5_IhNS9_IhEEEEEEE12handle_valueIRdEEPSF_OT_, symObjAddr: 0xF154, symBinAddr: 0x2C5D4, symSize: 0x130 }
  - { offsetInCU: 0xAA6AD, offset: 0x148A40, size: 0x8, addend: 0x0, symName: __ZNSt3__16vectorIN8nlohmann10basic_jsonINS_3mapES0_NS_12basic_stringIcNS_11char_traitsIcEENS_9allocatorIcEEEEbxydS7_NS1_14adl_serializerENS0_IhNS7_IhEEEEEENS7_ISD_EEE24__emplace_back_slow_pathIJRdEEEvDpOT_, symObjAddr: 0xF284, symBinAddr: 0x2C704, symSize: 0xE4 }
  - { offsetInCU: 0xAA6C1, offset: 0x148A54, size: 0x8, addend: 0x0, symName: __ZNSt3__16__treeINS_12__value_typeINS_12basic_stringIcNS_11char_traitsIcEENS_9allocatorIcEEEEN8nlohmann10basic_jsonINS_3mapENS_6vectorES7_bxydS5_NS8_14adl_serializerENSB_IhNS5_IhEEEEEEEENS_19__map_value_compareIS7_SG_NS_4lessIvEELb1EEENS5_ISG_EEE25__emplace_unique_key_argsIS7_JRKNS_21piecewise_construct_tENS_5tupleIJRKS7_EEENSR_IJEEEEEENS_4pairINS_15__tree_iteratorISG_PNS_11__tree_nodeISG_PvEElEEbEERKT_DpOT0_, symObjAddr: 0xD6B0, symBinAddr: 0x2AB30, symSize: 0x94 }
  - { offsetInCU: 0xAA852, offset: 0x148BE5, size: 0x8, addend: 0x0, symName: __ZN8nlohmann6detail19json_sax_dom_parserINS_10basic_jsonINSt3__13mapENS3_6vectorENS3_12basic_stringIcNS3_11char_traitsIcEENS3_9allocatorIcEEEEbxydS9_NS_14adl_serializerENS5_IhNS9_IhEEEEEEE11parse_errorINS0_12out_of_rangeEEEbmRKSB_RKT_, symObjAddr: 0xEECC, symBinAddr: 0x2C34C, symSize: 0x54 }
  - { offsetInCU: 0xAA936, offset: 0x148CC9, size: 0x8, addend: 0x0, symName: __ZNSt3__16vectorIbNS_9allocatorIbEEE7reserveEm, symObjAddr: 0xA1BC, symBinAddr: 0x279C0, symSize: 0xC0 }
  - { offsetInCU: 0xAADD1, offset: 0x149164, size: 0x8, addend: 0x0, symName: __ZNKSt3__16vectorIbNS_9allocatorIbEEE20__throw_length_errorB7v160006Ev, symObjAddr: 0xA27C, symBinAddr: 0x27A80, symSize: 0x14 }
  - { offsetInCU: 0xAADFB, offset: 0x14918E, size: 0x8, addend: 0x0, symName: __ZNSt3__16vectorIbNS_9allocatorIbEEE11__vallocateB7v160006Em, symObjAddr: 0xA290, symBinAddr: 0x27A94, symSize: 0x44 }
  - { offsetInCU: 0xAAF4D, offset: 0x1492E0, size: 0x8, addend: 0x0, symName: __ZNSt3__16vectorIbNS_9allocatorIbEEE11__vallocateB7v160006Em, symObjAddr: 0xA290, symBinAddr: 0x27A94, symSize: 0x44 }
  - { offsetInCU: 0xAAFE4, offset: 0x149377, size: 0x8, addend: 0x0, symName: __ZNSt3__16vectorIbNS_9allocatorIbEEE18__construct_at_endINS_14__bit_iteratorIS3_Lb0ELm0EEEEENS_9enable_ifIXsr27__is_cpp17_forward_iteratorIT_EE5valueEvE4typeES8_S8_, symObjAddr: 0xA2D4, symBinAddr: 0x27AD8, symSize: 0xE8 }
  - { offsetInCU: 0xAAFF6, offset: 0x149389, size: 0x8, addend: 0x0, symName: __ZNSt3__16vectorIbNS_9allocatorIbEEE18__construct_at_endINS_14__bit_iteratorIS3_Lb0ELm0EEEEENS_9enable_ifIXsr27__is_cpp17_forward_iteratorIT_EE5valueEvE4typeES8_S8_, symObjAddr: 0xA2D4, symBinAddr: 0x27AD8, symSize: 0xE8 }
  - { offsetInCU: 0xAB706, offset: 0x149A99, size: 0x8, addend: 0x0, symName: __ZNKSt3__18functionIFbiN8nlohmann6detail13parse_event_tERNS1_10basic_jsonINS_3mapENS_6vectorENS_12basic_stringIcNS_11char_traitsIcEENS_9allocatorIcEEEEbxydSA_NS1_14adl_serializerENS6_IhNSA_IhEEEEEEEEclEiS3_SH_, symObjAddr: 0xB1F8, symBinAddr: 0x289FC, symSize: 0x40 }
  - { offsetInCU: 0xAB7A4, offset: 0x149B37, size: 0x8, addend: 0x0, symName: __ZN8nlohmann6detail28json_sax_dom_callback_parserINS_10basic_jsonINSt3__13mapENS3_6vectorENS3_12basic_stringIcNS3_11char_traitsIcEENS3_9allocatorIcEEEEbxydS9_NS_14adl_serializerENS5_IhNS9_IhEEEEEEE12handle_valueINS0_7value_tEEENS3_4pairIbPSF_EEOT_b, symObjAddr: 0xB238, symBinAddr: 0x28A3C, symSize: 0x260 }
  - { offsetInCU: 0xAB7B5, offset: 0x149B48, size: 0x8, addend: 0x0, symName: __ZN8nlohmann6detail28json_sax_dom_callback_parserINS_10basic_jsonINSt3__13mapENS3_6vectorENS3_12basic_stringIcNS3_11char_traitsIcEENS3_9allocatorIcEEEEbxydS9_NS_14adl_serializerENS5_IhNS9_IhEEEEEEE12handle_valueINS0_7value_tEEENS3_4pairIbPSF_EEOT_b, symObjAddr: 0xB238, symBinAddr: 0x28A3C, symSize: 0x260 }
  - { offsetInCU: 0xABD00, offset: 0x14A093, size: 0x8, addend: 0x0, symName: __ZNKSt3__16vectorIPN8nlohmann10basic_jsonINS_3mapES0_NS_12basic_stringIcNS_11char_traitsIcEENS_9allocatorIcEEEEbxydS7_NS1_14adl_serializerENS0_IhNS7_IhEEEEEENS7_ISE_EEE20__throw_length_errorB7v160006Ev, symObjAddr: 0xB7E4, symBinAddr: 0x28FE8, symSize: 0x14 }
  - { offsetInCU: 0xABD2A, offset: 0x14A0BD, size: 0x8, addend: 0x0, symName: __ZNSt3__119__allocate_at_leastB7v160006INS_9allocatorIPN8nlohmann10basic_jsonINS_3mapENS_6vectorENS_12basic_stringIcNS_11char_traitsIcEENS1_IcEEEEbxydS1_NS2_14adl_serializerENS5_IhNS1_IhEEEEEEEEEENS_19__allocation_resultINS_16allocator_traitsIT_E7pointerEEERSJ_m, symObjAddr: 0xB7F8, symBinAddr: 0x28FFC, symSize: 0x34 }
  - { offsetInCU: 0xABE55, offset: 0x14A1E8, size: 0x8, addend: 0x0, symName: __ZN8nlohmann10basic_jsonINSt3__13mapENS1_6vectorENS1_12basic_stringIcNS1_11char_traitsIcEENS1_9allocatorIcEEEEbxydS7_NS_14adl_serializerENS3_IhNS7_IhEEEEEC2ERKSD_, symObjAddr: 0xBCB0, symBinAddr: 0x294B4, symSize: 0xB0 }
  - { offsetInCU: 0xABFEF, offset: 0x14A382, size: 0x8, addend: 0x0, symName: __ZN8nlohmann6detail9iter_implINS_10basic_jsonINSt3__13mapENS3_6vectorENS3_12basic_stringIcNS3_11char_traitsIcEENS3_9allocatorIcEEEEbxydS9_NS_14adl_serializerENS5_IhNS9_IhEEEEEEE9set_beginEv, symObjAddr: 0xC710, symBinAddr: 0x29F14, symSize: 0x88 }
  - { offsetInCU: 0xAC0A7, offset: 0x14A43A, size: 0x8, addend: 0x0, symName: __ZNK8nlohmann6detail9iter_implINS_10basic_jsonINSt3__13mapENS3_6vectorENS3_12basic_stringIcNS3_11char_traitsIcEENS3_9allocatorIcEEEEbxydS9_NS_14adl_serializerENS5_IhNS9_IhEEEEEEEptEv, symObjAddr: 0xB82C, symBinAddr: 0x29030, symSize: 0x11C }
  - { offsetInCU: 0xAC3C4, offset: 0x14A757, size: 0x8, addend: 0x0, symName: __ZN8nlohmann6detail9iter_implINS_10basic_jsonINSt3__13mapENS3_6vectorENS3_12basic_stringIcNS3_11char_traitsIcEENS3_9allocatorIcEEEEbxydS9_NS_14adl_serializerENS5_IhNS9_IhEEEEEEEppEv, symObjAddr: 0xBC2C, symBinAddr: 0x29430, symSize: 0x84 }
  - { offsetInCU: 0xAC56C, offset: 0x14A8FF, size: 0x8, addend: 0x0, symName: __ZN8nlohmann10basic_jsonINSt3__13mapENS1_6vectorENS1_12basic_stringIcNS1_11char_traitsIcEENS1_9allocatorIcEEEEbxydS7_NS_14adl_serializerENS3_IhNS7_IhEEEEEC2ERKSD_, symObjAddr: 0xBCB0, symBinAddr: 0x294B4, symSize: 0xB0 }
  - { offsetInCU: 0xAC577, offset: 0x14A90A, size: 0x8, addend: 0x0, symName: __ZN8nlohmann10basic_jsonINSt3__13mapENS1_6vectorENS1_12basic_stringIcNS1_11char_traitsIcEENS1_9allocatorIcEEEEbxydS7_NS_14adl_serializerENS3_IhNS7_IhEEEEE5eraseINS_6detail9iter_implISD_EELi0EEET_SI_, symObjAddr: 0xB948, symBinAddr: 0x2914C, symSize: 0x2E4 }
  - { offsetInCU: 0xAD06A, offset: 0x14B3FD, size: 0x8, addend: 0x0, symName: __ZN8nlohmann6detail28json_sax_dom_callback_parserINS_10basic_jsonINSt3__13mapENS3_6vectorENS3_12basic_stringIcNS3_11char_traitsIcEENS3_9allocatorIcEEEEbxydS9_NS_14adl_serializerENS5_IhNS9_IhEEEEEEE10end_objectEv.cold.1, symObjAddr: 0x1C248, symBinAddr: 0x395B0, symSize: 0x28 }
  - { offsetInCU: 0xAD082, offset: 0x14B415, size: 0x8, addend: 0x0, symName: __ZN8nlohmann6detail28json_sax_dom_callback_parserINS_10basic_jsonINSt3__13mapENS3_6vectorENS3_12basic_stringIcNS3_11char_traitsIcEENS3_9allocatorIcEEEEbxydS9_NS_14adl_serializerENS5_IhNS9_IhEEEEEEE10end_objectEv.cold.2, symObjAddr: 0x1C270, symBinAddr: 0x395D8, symSize: 0x28 }
  - { offsetInCU: 0xAD190, offset: 0x14B523, size: 0x8, addend: 0x0, symName: __ZN8nlohmann6detail20external_constructorILNS0_7value_tE3EE9constructINS_10basic_jsonINSt3__13mapENS6_6vectorENS6_12basic_stringIcNS6_11char_traitsIcEENS6_9allocatorIcEEEEbxydSC_NS_14adl_serializerENS8_IhNSC_IhEEEEEEEEvRT_RKNSJ_8string_tE, symObjAddr: 0xD110, symBinAddr: 0x2A590, symSize: 0x48 }
  - { offsetInCU: 0xAD2DD, offset: 0x14B670, size: 0x8, addend: 0x0, symName: __ZN8nlohmann6detail28json_sax_dom_callback_parserINS_10basic_jsonINSt3__13mapENS3_6vectorENS3_12basic_stringIcNS3_11char_traitsIcEENS3_9allocatorIcEEEEbxydS9_NS_14adl_serializerENS5_IhNS9_IhEEEEEEE9end_arrayEv.cold.1, symObjAddr: 0x1C298, symBinAddr: 0x39600, symSize: 0x28 }
  - { offsetInCU: 0xAD2F5, offset: 0x14B688, size: 0x8, addend: 0x0, symName: __ZN8nlohmann6detail28json_sax_dom_callback_parserINS_10basic_jsonINSt3__13mapENS3_6vectorENS3_12basic_stringIcNS3_11char_traitsIcEENS3_9allocatorIcEEEEbxydS9_NS_14adl_serializerENS5_IhNS9_IhEEEEEEE9end_arrayEv.cold.2, symObjAddr: 0x1C2C0, symBinAddr: 0x39628, symSize: 0x28 }
  - { offsetInCU: 0xAD30D, offset: 0x14B6A0, size: 0x8, addend: 0x0, symName: __ZN8nlohmann6detail12out_of_rangeC1ERKS1_, symObjAddr: 0xD834, symBinAddr: 0x2ACB4, symSize: 0x54 }
  - { offsetInCU: 0xAD3EE, offset: 0x14B781, size: 0x8, addend: 0x0, symName: __ZN8nlohmann6detail12out_of_rangeD1Ev, symObjAddr: 0xB1C4, symBinAddr: 0x289C8, symSize: 0x34 }
  - { offsetInCU: 0xAD5B2, offset: 0x14B945, size: 0x8, addend: 0x0, symName: __ZNSt3__16vectorIN8nlohmann10basic_jsonINS_3mapES0_NS_12basic_stringIcNS_11char_traitsIcEENS_9allocatorIcEEEEbxydS7_NS1_14adl_serializerENS0_IhNS7_IhEEEEEENS7_ISD_EEE22__construct_one_at_endB7v160006IJSD_EEEvDpOT_, symObjAddr: 0xB4E4, symBinAddr: 0x28CE8, symSize: 0x64 }
  - { offsetInCU: 0xAD722, offset: 0x14BAB5, size: 0x8, addend: 0x0, symName: __ZNSt3__16vectorIN8nlohmann10basic_jsonINS_3mapES0_NS_12basic_stringIcNS_11char_traitsIcEENS_9allocatorIcEEEEbxydS7_NS1_14adl_serializerENS0_IhNS7_IhEEEEEENS7_ISD_EEE24__emplace_back_slow_pathIJSD_EEEvDpOT_, symObjAddr: 0xB548, symBinAddr: 0x28D4C, symSize: 0xF4 }
  - { offsetInCU: 0xAD9E3, offset: 0x14BD76, size: 0x8, addend: 0x0, symName: __ZN8nlohmann6detail28json_sax_dom_callback_parserINS_10basic_jsonINSt3__13mapENS3_6vectorENS3_12basic_stringIcNS3_11char_traitsIcEENS3_9allocatorIcEEEEbxydS9_NS_14adl_serializerENS5_IhNS9_IhEEEEEEE12handle_valueINS0_7value_tEEENS3_4pairIbPSF_EEOT_b.cold.1, symObjAddr: 0x1C2E8, symBinAddr: 0x39650, symSize: 0x24 }
  - { offsetInCU: 0xADA57, offset: 0x14BDEA, size: 0x8, addend: 0x0, symName: __ZNSt3__117bad_function_callD1Ev, symObjAddr: 0xB4CC, symBinAddr: 0x28CD0, symSize: 0x4 }
  - { offsetInCU: 0xADA79, offset: 0x14BE0C, size: 0x8, addend: 0x0, symName: __ZNSt3__117bad_function_callD1Ev, symObjAddr: 0xB4CC, symBinAddr: 0x28CD0, symSize: 0x4 }
  - { offsetInCU: 0xADAAD, offset: 0x14BE40, size: 0x8, addend: 0x0, symName: __ZNSt3__117bad_function_callD0Ev, symObjAddr: 0xB4D0, symBinAddr: 0x28CD4, symSize: 0x14 }
  - { offsetInCU: 0xADDD3, offset: 0x14C166, size: 0x8, addend: 0x0, symName: __ZNSt3__114__split_bufferIN8nlohmann10basic_jsonINS_3mapENS_6vectorENS_12basic_stringIcNS_11char_traitsIcEENS_9allocatorIcEEEEbxydS8_NS1_14adl_serializerENS4_IhNS8_IhEEEEEERNS8_ISE_EEED2Ev, symObjAddr: 0xB798, symBinAddr: 0x28F9C, symSize: 0x4C }
  - { offsetInCU: 0xADF91, offset: 0x14C324, size: 0x8, addend: 0x0, symName: __ZNKSt3__16vectorIN8nlohmann10basic_jsonINS_3mapES0_NS_12basic_stringIcNS_11char_traitsIcEENS_9allocatorIcEEEEbxydS7_NS1_14adl_serializerENS0_IhNS7_IhEEEEEENS7_ISD_EEE20__throw_length_errorB7v160006Ev, symObjAddr: 0xB6B0, symBinAddr: 0x28EB4, symSize: 0x14 }
  - { offsetInCU: 0xADFBB, offset: 0x14C34E, size: 0x8, addend: 0x0, symName: __ZNSt3__119__allocate_at_leastB7v160006INS_9allocatorIN8nlohmann10basic_jsonINS_3mapENS_6vectorENS_12basic_stringIcNS_11char_traitsIcEENS1_IcEEEEbxydS1_NS2_14adl_serializerENS5_IhNS1_IhEEEEEEEEEENS_19__allocation_resultINS_16allocator_traitsIT_E7pointerEEERSI_m, symObjAddr: 0xB6C4, symBinAddr: 0x28EC8, symSize: 0x34 }
  - { offsetInCU: 0xAE199, offset: 0x14C52C, size: 0x8, addend: 0x0, symName: __ZNK8nlohmann6detail9iter_implINS_10basic_jsonINSt3__13mapENS3_6vectorENS3_12basic_stringIcNS3_11char_traitsIcEENS3_9allocatorIcEEEEbxydS9_NS_14adl_serializerENS5_IhNS9_IhEEEEEEEptEv.cold.3, symObjAddr: 0x1C35C, symBinAddr: 0x396C4, symSize: 0x28 }
  - { offsetInCU: 0xAE1B1, offset: 0x14C544, size: 0x8, addend: 0x0, symName: __ZNK8nlohmann6detail9iter_implINS_10basic_jsonINSt3__13mapENS3_6vectorENS3_12basic_stringIcNS3_11char_traitsIcEENS3_9allocatorIcEEEEbxydS9_NS_14adl_serializerENS5_IhNS9_IhEEEEEEEptEv.cold.1, symObjAddr: 0x1C30C, symBinAddr: 0x39674, symSize: 0x28 }
  - { offsetInCU: 0xAE1C9, offset: 0x14C55C, size: 0x8, addend: 0x0, symName: __ZNK8nlohmann6detail9iter_implINS_10basic_jsonINSt3__13mapENS3_6vectorENS3_12basic_stringIcNS3_11char_traitsIcEENS3_9allocatorIcEEEEbxydS9_NS_14adl_serializerENS5_IhNS9_IhEEEEEEEptEv.cold.2, symObjAddr: 0x1C334, symBinAddr: 0x3969C, symSize: 0x28 }
  - { offsetInCU: 0xAE441, offset: 0x14C7D4, size: 0x8, addend: 0x0, symName: __ZNKSt3__111__move_loopINS_17_ClassicAlgPolicyEEclB7v160006IPN8nlohmann10basic_jsonINS_3mapENS_6vectorENS_12basic_stringIcNS_11char_traitsIcEENS_9allocatorIcEEEEbxydSB_NS4_14adl_serializerENS7_IhNSB_IhEEEEEESI_SI_EENS_4pairIT_T1_EESK_T0_SL_, symObjAddr: 0xD03C, symBinAddr: 0x2A4BC, symSize: 0x9C }
  - { offsetInCU: 0xAE573, offset: 0x14C906, size: 0x8, addend: 0x0, symName: __ZNSt3__16__treeINS_12__value_typeINS_12basic_stringIcNS_11char_traitsIcEENS_9allocatorIcEEEEN8nlohmann10basic_jsonINS_3mapENS_6vectorES7_bxydS5_NS8_14adl_serializerENSB_IhNS5_IhEEEEEEEENS_19__map_value_compareIS7_SG_NS_4lessIvEELb1EEENS5_ISG_EEE21__remove_node_pointerEPNS_11__tree_nodeISG_PvEE, symObjAddr: 0xCC48, symBinAddr: 0x2A44C, symSize: 0x70 }
  - { offsetInCU: 0xAE6A9, offset: 0x14CA3C, size: 0x8, addend: 0x0, symName: __ZN8nlohmann6detail9iter_implINS_10basic_jsonINSt3__13mapENS3_6vectorENS3_12basic_stringIcNS3_11char_traitsIcEENS3_9allocatorIcEEEEbxydS9_NS_14adl_serializerENS5_IhNS9_IhEEEEEEEppEv.cold.1, symObjAddr: 0x1C384, symBinAddr: 0x396EC, symSize: 0x28 }
  - { offsetInCU: 0xAE7F1, offset: 0x14CB84, size: 0x8, addend: 0x0, symName: __ZN8nlohmann10basic_jsonINSt3__13mapENS1_6vectorENS1_12basic_stringIcNS1_11char_traitsIcEENS1_9allocatorIcEEEEbxydS7_NS_14adl_serializerENS3_IhNS7_IhEEEEE6createINS2_IS9_SD_NS1_4lessIvEENS7_INS1_4pairIKS9_SD_EEEEEEJRKSL_EEEPT_DpOT0_, symObjAddr: 0xBD60, symBinAddr: 0x29564, symSize: 0x48 }
  - { offsetInCU: 0xAEA92, offset: 0x14CE25, size: 0x8, addend: 0x0, symName: __ZN8nlohmann10basic_jsonINSt3__13mapENS1_6vectorENS1_12basic_stringIcNS1_11char_traitsIcEENS1_9allocatorIcEEEEbxydS7_NS_14adl_serializerENS3_IhNS7_IhEEEEE6createINS3_ISD_NS7_ISD_EEEEJRKSG_EEEPT_DpOT0_, symObjAddr: 0xC334, symBinAddr: 0x29B38, symSize: 0x48 }
  - { offsetInCU: 0xAED33, offset: 0x14D0C6, size: 0x8, addend: 0x0, symName: __ZN8nlohmann10basic_jsonINSt3__13mapENS1_6vectorENS1_12basic_stringIcNS1_11char_traitsIcEENS1_9allocatorIcEEEEbxydS7_NS_14adl_serializerENS3_IhNS7_IhEEEEE6createIS9_JRKS9_EEEPT_DpOT0_, symObjAddr: 0xC580, symBinAddr: 0x29D84, symSize: 0x68 }
  - { offsetInCU: 0xAF032, offset: 0x14D3C5, size: 0x8, addend: 0x0, symName: __ZN8nlohmann10basic_jsonINSt3__13mapENS1_6vectorENS1_12basic_stringIcNS1_11char_traitsIcEENS1_9allocatorIcEEEEbxydS7_NS_14adl_serializerENS3_IhNS7_IhEEEEE6createINS_27byte_container_with_subtypeISC_EEJRKSG_EEEPT_DpOT0_, symObjAddr: 0xC5E8, symBinAddr: 0x29DEC, symSize: 0x58 }
  - { offsetInCU: 0xAF4B7, offset: 0x14D84A, size: 0x8, addend: 0x0, symName: __ZNSt3__13mapINS_12basic_stringIcNS_11char_traitsIcEENS_9allocatorIcEEEEN8nlohmann10basic_jsonIS0_NS_6vectorES6_bxydS4_NS7_14adl_serializerENS9_IhNS4_IhEEEEEENS_4lessIvEENS4_INS_4pairIKS6_SD_EEEEEC2B7v160006ERKSK_, symObjAddr: 0xBDA8, symBinAddr: 0x295AC, symSize: 0x54 }
  - { offsetInCU: 0xAF818, offset: 0x14DBAB, size: 0x8, addend: 0x0, symName: __ZNSt3__13mapINS_12basic_stringIcNS_11char_traitsIcEENS_9allocatorIcEEEEN8nlohmann10basic_jsonIS0_NS_6vectorES6_bxydS4_NS7_14adl_serializerENS9_IhNS4_IhEEEEEENS_4lessIvEENS4_INS_4pairIKS6_SD_EEEEE6insertB7v160006INS_20__map_const_iteratorINS_21__tree_const_iteratorINS_12__value_typeIS6_SD_EEPNS_11__tree_nodeISP_PvEElEEEEEEvT_SW_, symObjAddr: 0xBDFC, symBinAddr: 0x29600, symSize: 0x84 }
  - { offsetInCU: 0xAFA08, offset: 0x14DD9B, size: 0x8, addend: 0x0, symName: __ZNSt3__16__treeINS_12__value_typeINS_12basic_stringIcNS_11char_traitsIcEENS_9allocatorIcEEEEN8nlohmann10basic_jsonINS_3mapENS_6vectorES7_bxydS5_NS8_14adl_serializerENSB_IhNS5_IhEEEEEEEENS_19__map_value_compareIS7_SG_NS_4lessIvEELb1EEENS5_ISG_EEE7destroyEPNS_11__tree_nodeISG_PvEE, symObjAddr: 0xC2DC, symBinAddr: 0x29AE0, symSize: 0x58 }
  - { offsetInCU: 0xAFE46, offset: 0x14E1D9, size: 0x8, addend: 0x0, symName: __ZNSt3__16__treeINS_12__value_typeINS_12basic_stringIcNS_11char_traitsIcEENS_9allocatorIcEEEEN8nlohmann10basic_jsonINS_3mapENS_6vectorES7_bxydS5_NS8_14adl_serializerENSB_IhNS5_IhEEEEEEEENS_19__map_value_compareIS7_SG_NS_4lessIvEELb1EEENS5_ISG_EEE30__emplace_hint_unique_key_argsIS7_JRKNS_4pairIKS7_SF_EEEEENSO_INS_15__tree_iteratorISG_PNS_11__tree_nodeISG_PvEElEEbEENS_21__tree_const_iteratorISG_SX_lEERKT_DpOT0_, symObjAddr: 0xBE80, symBinAddr: 0x29684, symSize: 0x80 }
  - { offsetInCU: 0xB0014, offset: 0x14E3A7, size: 0x8, addend: 0x0, symName: __ZNSt3__16__treeINS_12__value_typeINS_12basic_stringIcNS_11char_traitsIcEENS_9allocatorIcEEEEN8nlohmann10basic_jsonINS_3mapENS_6vectorES7_bxydS5_NS8_14adl_serializerENSB_IhNS5_IhEEEEEEEENS_19__map_value_compareIS7_SG_NS_4lessIvEELb1EEENS5_ISG_EEE12__find_equalIS7_EERPNS_16__tree_node_baseIPvEENS_21__tree_const_iteratorISG_PNS_11__tree_nodeISG_SP_EElEERPNS_15__tree_end_nodeISR_EESS_RKT_, symObjAddr: 0xBF00, symBinAddr: 0x29704, symSize: 0x184 }
  - { offsetInCU: 0xB042C, offset: 0x14E7BF, size: 0x8, addend: 0x0, symName: __ZNSt3__16__treeINS_12__value_typeINS_12basic_stringIcNS_11char_traitsIcEENS_9allocatorIcEEEEN8nlohmann10basic_jsonINS_3mapENS_6vectorES7_bxydS5_NS8_14adl_serializerENSB_IhNS5_IhEEEEEEEENS_19__map_value_compareIS7_SG_NS_4lessIvEELb1EEENS5_ISG_EEE16__construct_nodeIJRKNS_4pairIKS7_SF_EEEEENS_10unique_ptrINS_11__tree_nodeISG_PvEENS_22__tree_node_destructorINS5_ISW_EEEEEEDpOT_, symObjAddr: 0xC084, symBinAddr: 0x29888, symSize: 0x80 }
  - { offsetInCU: 0xB06E7, offset: 0x14EA7A, size: 0x8, addend: 0x0, symName: __ZNSt3__16__treeINS_12__value_typeINS_12basic_stringIcNS_11char_traitsIcEENS_9allocatorIcEEEEN8nlohmann10basic_jsonINS_3mapENS_6vectorES7_bxydS5_NS8_14adl_serializerENSB_IhNS5_IhEEEEEEEENS_19__map_value_compareIS7_SG_NS_4lessIvEELb1EEENS5_ISG_EEE16__insert_node_atEPNS_15__tree_end_nodeIPNS_16__tree_node_baseIPvEEEERSR_SR_, symObjAddr: 0xC104, symBinAddr: 0x29908, symSize: 0x54 }
  - { offsetInCU: 0xB0825, offset: 0x14EBB8, size: 0x8, addend: 0x0, symName: __ZNSt3__16__treeINS_12__value_typeINS_12basic_stringIcNS_11char_traitsIcEENS_9allocatorIcEEEEN8nlohmann10basic_jsonINS_3mapENS_6vectorES7_bxydS5_NS8_14adl_serializerENSB_IhNS5_IhEEEEEEEENS_19__map_value_compareIS7_SG_NS_4lessIvEELb1EEENS5_ISG_EEE12__find_equalIS7_EERPNS_16__tree_node_baseIPvEERPNS_15__tree_end_nodeISR_EERKT_, symObjAddr: 0xC158, symBinAddr: 0x2995C, symSize: 0x90 }
  - { offsetInCU: 0xB0C14, offset: 0x14EFA7, size: 0x8, addend: 0x0, symName: __ZNSt3__14pairIKNS_12basic_stringIcNS_11char_traitsIcEENS_9allocatorIcEEEEN8nlohmann10basic_jsonINS_3mapENS_6vectorES6_bxydS4_NS8_14adl_serializerENSB_IhNS4_IhEEEEEEEC2ERKSG_, symObjAddr: 0xC1E8, symBinAddr: 0x299EC, symSize: 0x74 }
  - { offsetInCU: 0xB0E26, offset: 0x14F1B9, size: 0x8, addend: 0x0, symName: __ZNSt3__122__tree_node_destructorINS_9allocatorINS_11__tree_nodeINS_12__value_typeINS_12basic_stringIcNS_11char_traitsIcEENS1_IcEEEEN8nlohmann10basic_jsonINS_3mapENS_6vectorES8_bxydS1_NS9_14adl_serializerENSC_IhNS1_IhEEEEEEEEPvEEEEEclB7v160006EPSJ_, symObjAddr: 0xC25C, symBinAddr: 0x29A60, symSize: 0x44 }
  - { offsetInCU: 0xB1149, offset: 0x14F4DC, size: 0x8, addend: 0x0, symName: __ZNSt3__16vectorIN8nlohmann10basic_jsonINS_3mapES0_NS_12basic_stringIcNS_11char_traitsIcEENS_9allocatorIcEEEEbxydS7_NS1_14adl_serializerENS0_IhNS7_IhEEEEEENS7_ISD_EEEC2ERKSF_, symObjAddr: 0xC37C, symBinAddr: 0x29B80, symSize: 0xA0 }
  - { offsetInCU: 0xB1492, offset: 0x14F825, size: 0x8, addend: 0x0, symName: __ZNSt3__16vectorIN8nlohmann10basic_jsonINS_3mapES0_NS_12basic_stringIcNS_11char_traitsIcEENS_9allocatorIcEEEEbxydS7_NS1_14adl_serializerENS0_IhNS7_IhEEEEEENS7_ISD_EEE11__vallocateB7v160006Em, symObjAddr: 0xC41C, symBinAddr: 0x29C20, symSize: 0x40 }
  - { offsetInCU: 0xB150C, offset: 0x14F89F, size: 0x8, addend: 0x0, symName: __ZNSt3__130__uninitialized_allocator_copyB7v160006INS_9allocatorIN8nlohmann10basic_jsonINS_3mapENS_6vectorENS_12basic_stringIcNS_11char_traitsIcEENS1_IcEEEEbxydS1_NS2_14adl_serializerENS5_IhNS1_IhEEEEEEEEPSE_SG_SG_EET2_RT_T0_T1_SH_, symObjAddr: 0xC45C, symBinAddr: 0x29C60, symSize: 0x80 }
  - { offsetInCU: 0xB151E, offset: 0x14F8B1, size: 0x8, addend: 0x0, symName: __ZNSt3__128__exception_guard_exceptionsINS_6vectorIN8nlohmann10basic_jsonINS_3mapES1_NS_12basic_stringIcNS_11char_traitsIcEENS_9allocatorIcEEEEbxydS8_NS2_14adl_serializerENS1_IhNS8_IhEEEEEENS8_ISE_EEE16__destroy_vectorEED2B7v160006Ev, symObjAddr: 0xC4DC, symBinAddr: 0x29CE0, symSize: 0x34 }
  - { offsetInCU: 0xB15F0, offset: 0x14F983, size: 0x8, addend: 0x0, symName: __ZNSt3__16vectorIN8nlohmann10basic_jsonINS_3mapES0_NS_12basic_stringIcNS_11char_traitsIcEENS_9allocatorIcEEEEbxydS7_NS1_14adl_serializerENS0_IhNS7_IhEEEEEENS7_ISD_EEE16__destroy_vectorclB7v160006Ev, symObjAddr: 0xC510, symBinAddr: 0x29D14, symSize: 0x70 }
  - { offsetInCU: 0xB1AC0, offset: 0x14FE53, size: 0x8, addend: 0x0, symName: __ZNSt3__16vectorIhNS_9allocatorIhEEEC2ERKS3_, symObjAddr: 0xC640, symBinAddr: 0x29E44, symSize: 0x7C }
  - { offsetInCU: 0xB1F6E, offset: 0x150301, size: 0x8, addend: 0x0, symName: __ZNSt3__16vectorIhNS_9allocatorIhEEE11__vallocateB7v160006Em, symObjAddr: 0xC6BC, symBinAddr: 0x29EC0, symSize: 0x40 }
  - { offsetInCU: 0xB2041, offset: 0x1503D4, size: 0x8, addend: 0x0, symName: __ZNKSt3__16vectorIhNS_9allocatorIhEEE20__throw_length_errorB7v160006Ev, symObjAddr: 0xC6FC, symBinAddr: 0x29F00, symSize: 0x14 }
  - { offsetInCU: 0xB2074, offset: 0x150407, size: 0x8, addend: 0x0, symName: __ZNKSt3__16vectorIhNS_9allocatorIhEEE20__throw_length_errorB7v160006Ev, symObjAddr: 0xC6FC, symBinAddr: 0x29F00, symSize: 0x14 }
  - { offsetInCU: 0xB209E, offset: 0x150431, size: 0x8, addend: 0x0, symName: __ZN8nlohmann6detail9iter_implINS_10basic_jsonINSt3__13mapENS3_6vectorENS3_12basic_stringIcNS3_11char_traitsIcEENS3_9allocatorIcEEEEbxydS9_NS_14adl_serializerENS5_IhNS9_IhEEEEEEE9set_beginEv, symObjAddr: 0xC710, symBinAddr: 0x29F14, symSize: 0x88 }
  - { offsetInCU: 0xB2184, offset: 0x150517, size: 0x8, addend: 0x0, symName: __ZN8nlohmann6detail16invalid_iteratorD1Ev, symObjAddr: 0xC9B0, symBinAddr: 0x2A1B4, symSize: 0x34 }
  - { offsetInCU: 0xB21FE, offset: 0x150591, size: 0x8, addend: 0x0, symName: __ZN8nlohmann6detail16invalid_iteratorD0Ev, symObjAddr: 0xC9E4, symBinAddr: 0x2A1E8, symSize: 0x38 }
  - { offsetInCU: 0xB2300, offset: 0x150693, size: 0x8, addend: 0x0, symName: __ZN8nlohmann6detail10type_errorD1Ev, symObjAddr: 0xCC14, symBinAddr: 0x2A418, symSize: 0x34 }
  - { offsetInCU: 0xB237A, offset: 0x15070D, size: 0x8, addend: 0x0, symName: __ZN8nlohmann6detail10type_errorD0Ev, symObjAddr: 0xD0D8, symBinAddr: 0x2A558, symSize: 0x38 }
  - { offsetInCU: 0xB23FB, offset: 0x15078E, size: 0x8, addend: 0x0, symName: __ZN8nlohmann10basic_jsonINSt3__13mapENS1_6vectorENS1_12basic_stringIcNS1_11char_traitsIcEENS1_9allocatorIcEEEEbxydS7_NS_14adl_serializerENS3_IhNS7_IhEEEEE10json_value7destroyENS_6detail7value_tE, symObjAddr: 0xD158, symBinAddr: 0x2A5D8, symSize: 0x330 }
  - { offsetInCU: 0xB360D, offset: 0x1519A0, size: 0x8, addend: 0x0, symName: __ZNSt3__16vectorIN8nlohmann10basic_jsonINS_3mapES0_NS_12basic_stringIcNS_11char_traitsIcEENS_9allocatorIcEEEEbxydS7_NS1_14adl_serializerENS0_IhNS7_IhEEEEEENS7_ISD_EEE7reserveEm, symObjAddr: 0xD488, symBinAddr: 0x2A908, symSize: 0x90 }
  - { offsetInCU: 0xB37C4, offset: 0x151B57, size: 0x8, addend: 0x0, symName: __ZNKSt3__111__move_loopINS_17_ClassicAlgPolicyEEclB7v160006IPN8nlohmann10basic_jsonINS_3mapENS_6vectorENS_12basic_stringIcNS_11char_traitsIcEENS_9allocatorIcEEEEbxydSB_NS4_14adl_serializerENS7_IhNSB_IhEEEEEESI_NS_20back_insert_iteratorINS7_ISH_NSB_ISH_EEEEEEEENS_4pairIT_T1_EESO_T0_SP_, symObjAddr: 0xD518, symBinAddr: 0x2A998, symSize: 0x6C }
  - { offsetInCU: 0xB388E, offset: 0x151C21, size: 0x8, addend: 0x0, symName: __ZNSt3__16vectorIN8nlohmann10basic_jsonINS_3mapES0_NS_12basic_stringIcNS_11char_traitsIcEENS_9allocatorIcEEEEbxydS7_NS1_14adl_serializerENS0_IhNS7_IhEEEEEENS7_ISD_EEE21__push_back_slow_pathISD_EEvOT_, symObjAddr: 0xD584, symBinAddr: 0x2AA04, symSize: 0xF4 }
  - { offsetInCU: 0xB3B4D, offset: 0x151EE0, size: 0x8, addend: 0x0, symName: __ZNSt3__16vectorIN8nlohmann10basic_jsonINS_3mapES0_NS_12basic_stringIcNS_11char_traitsIcEENS_9allocatorIcEEEEbxydS7_NS1_14adl_serializerENS0_IhNS7_IhEEEEEENS7_ISD_EEED2B7v160006Ev, symObjAddr: 0xD678, symBinAddr: 0x2AAF8, symSize: 0x38 }
  - { offsetInCU: 0xB3C4F, offset: 0x151FE2, size: 0x8, addend: 0x0, symName: __ZNSt3__16__treeINS_12__value_typeINS_12basic_stringIcNS_11char_traitsIcEENS_9allocatorIcEEEEN8nlohmann10basic_jsonINS_3mapENS_6vectorES7_bxydS5_NS8_14adl_serializerENSB_IhNS5_IhEEEEEEEENS_19__map_value_compareIS7_SG_NS_4lessIvEELb1EEENS5_ISG_EEE16__construct_nodeIJRKNS_21piecewise_construct_tENS_5tupleIJRKS7_EEENSR_IJEEEEEENS_10unique_ptrINS_11__tree_nodeISG_PvEENS_22__tree_node_destructorINS5_ISZ_EEEEEEDpOT_, symObjAddr: 0xD744, symBinAddr: 0x2ABC4, symSize: 0x80 }
  - { offsetInCU: 0xB3F6C, offset: 0x1522FF, size: 0x8, addend: 0x0, symName: __ZNSt3__14pairIKNS_12basic_stringIcNS_11char_traitsIcEENS_9allocatorIcEEEEN8nlohmann10basic_jsonINS_3mapENS_6vectorES6_bxydS4_NS8_14adl_serializerENSB_IhNS4_IhEEEEEEEC1B7v160006IJRS7_EJEEENS_21piecewise_construct_tENS_5tupleIJDpT_EEENSK_IJDpT0_EEE, symObjAddr: 0xD7C4, symBinAddr: 0x2AC44, symSize: 0x70 }
  - { offsetInCU: 0xB4294, offset: 0x152627, size: 0x8, addend: 0x0, symName: __ZN8nlohmann6detail12out_of_rangeD0Ev, symObjAddr: 0xD888, symBinAddr: 0x2AD08, symSize: 0x38 }
  - { offsetInCU: 0xB4401, offset: 0x152794, size: 0x8, addend: 0x0, symName: __ZN8nlohmann6detail20external_constructorILNS0_7value_tE7EE9constructINS_10basic_jsonINSt3__13mapENS6_6vectorENS6_12basic_stringIcNS6_11char_traitsIcEENS6_9allocatorIcEEEEbxydSC_NS_14adl_serializerENS8_IhNSC_IhEEEEEEEEvRT_NSJ_14number_float_tE, symObjAddr: 0xDB20, symBinAddr: 0x2AFA0, symSize: 0x48 }
  - { offsetInCU: 0xB4465, offset: 0x1527F8, size: 0x8, addend: 0x0, symName: __ZN8nlohmann6detail28json_sax_dom_callback_parserINS_10basic_jsonINSt3__13mapENS3_6vectorENS3_12basic_stringIcNS3_11char_traitsIcEENS3_9allocatorIcEEEEbxydS9_NS_14adl_serializerENS5_IhNS9_IhEEEEEEE12handle_valueIRdEENS3_4pairIbPSF_EEOT_b.cold.1, symObjAddr: 0x1C3AC, symBinAddr: 0x39714, symSize: 0x24 }
  - { offsetInCU: 0xB4569, offset: 0x1528FC, size: 0x8, addend: 0x0, symName: __ZN8nlohmann6detail20external_constructorILNS0_7value_tE4EE9constructINS_10basic_jsonINSt3__13mapENS6_6vectorENS6_12basic_stringIcNS6_11char_traitsIcEENS6_9allocatorIcEEEEbxydSC_NS_14adl_serializerENS8_IhNSC_IhEEEEEEEEvRT_NSJ_9boolean_tE, symObjAddr: 0xDDC8, symBinAddr: 0x2B248, symSize: 0x44 }
  - { offsetInCU: 0xB45CD, offset: 0x152960, size: 0x8, addend: 0x0, symName: __ZN8nlohmann6detail28json_sax_dom_callback_parserINS_10basic_jsonINSt3__13mapENS3_6vectorENS3_12basic_stringIcNS3_11char_traitsIcEENS3_9allocatorIcEEEEbxydS9_NS_14adl_serializerENS5_IhNS9_IhEEEEEEE12handle_valueIRbEENS3_4pairIbPSF_EEOT_b.cold.1, symObjAddr: 0x1C3D0, symBinAddr: 0x39738, symSize: 0x24 }
  - { offsetInCU: 0xB45E5, offset: 0x152978, size: 0x8, addend: 0x0, symName: __ZN8nlohmann6detail28json_sax_dom_callback_parserINS_10basic_jsonINSt3__13mapENS3_6vectorENS3_12basic_stringIcNS3_11char_traitsIcEENS3_9allocatorIcEEEEbxydS9_NS_14adl_serializerENS5_IhNS9_IhEEEEEEE12handle_valueIDnEENS3_4pairIbPSF_EEOT_b.cold.1, symObjAddr: 0x1C3F4, symBinAddr: 0x3975C, symSize: 0x24 }
  - { offsetInCU: 0xB46E9, offset: 0x152A7C, size: 0x8, addend: 0x0, symName: __ZN8nlohmann6detail20external_constructorILNS0_7value_tE5EE9constructINS_10basic_jsonINSt3__13mapENS6_6vectorENS6_12basic_stringIcNS6_11char_traitsIcEENS6_9allocatorIcEEEEbxydSC_NS_14adl_serializerENS8_IhNSC_IhEEEEEEEEvRT_NSJ_16number_integer_tE, symObjAddr: 0xE2CC, symBinAddr: 0x2B74C, symSize: 0x40 }
  - { offsetInCU: 0xB474D, offset: 0x152AE0, size: 0x8, addend: 0x0, symName: __ZN8nlohmann6detail28json_sax_dom_callback_parserINS_10basic_jsonINSt3__13mapENS3_6vectorENS3_12basic_stringIcNS3_11char_traitsIcEENS3_9allocatorIcEEEEbxydS9_NS_14adl_serializerENS5_IhNS9_IhEEEEEEE12handle_valueIRxEENS3_4pairIbPSF_EEOT_b.cold.1, symObjAddr: 0x1C418, symBinAddr: 0x39780, symSize: 0x24 }
  - { offsetInCU: 0xB4765, offset: 0x152AF8, size: 0x8, addend: 0x0, symName: __ZN8nlohmann6detail28json_sax_dom_callback_parserINS_10basic_jsonINSt3__13mapENS3_6vectorENS3_12basic_stringIcNS3_11char_traitsIcEENS3_9allocatorIcEEEEbxydS9_NS_14adl_serializerENS5_IhNS9_IhEEEEEEE12handle_valueIRSB_EENS3_4pairIbPSF_EEOT_b.cold.1, symObjAddr: 0x1C43C, symBinAddr: 0x397A4, symSize: 0x24 }
  - { offsetInCU: 0xB4869, offset: 0x152BFC, size: 0x8, addend: 0x0, symName: __ZN8nlohmann6detail20external_constructorILNS0_7value_tE6EE9constructINS_10basic_jsonINSt3__13mapENS6_6vectorENS6_12basic_stringIcNS6_11char_traitsIcEENS6_9allocatorIcEEEEbxydSC_NS_14adl_serializerENS8_IhNSC_IhEEEEEEEEvRT_NSJ_17number_unsigned_tE, symObjAddr: 0xE7C8, symBinAddr: 0x2BC48, symSize: 0x40 }
  - { offsetInCU: 0xB48CD, offset: 0x152C60, size: 0x8, addend: 0x0, symName: __ZN8nlohmann6detail28json_sax_dom_callback_parserINS_10basic_jsonINSt3__13mapENS3_6vectorENS3_12basic_stringIcNS3_11char_traitsIcEENS3_9allocatorIcEEEEbxydS9_NS_14adl_serializerENS5_IhNS9_IhEEEEEEE12handle_valueIRyEENS3_4pairIbPSF_EEOT_b.cold.1, symObjAddr: 0x1C460, symBinAddr: 0x397C8, symSize: 0x24 }
  - { offsetInCU: 0xB4906, offset: 0x152C99, size: 0x8, addend: 0x0, symName: __ZN8nlohmann6detail11parse_errorD0Ev, symObjAddr: 0xE868, symBinAddr: 0x2BCE8, symSize: 0x38 }
  - { offsetInCU: 0xB4A84, offset: 0x152E17, size: 0x8, addend: 0x0, symName: __ZN8nlohmann6detail19json_sax_dom_parserINS_10basic_jsonINSt3__13mapENS3_6vectorENS3_12basic_stringIcNS3_11char_traitsIcEENS3_9allocatorIcEEEEbxydS9_NS_14adl_serializerENS5_IhNS9_IhEEEEEEE12handle_valueINS0_7value_tEEEPSF_OT_, symObjAddr: 0xEF20, symBinAddr: 0x2C3A0, symSize: 0x100 }
  - { offsetInCU: 0xB4D12, offset: 0x1530A5, size: 0x8, addend: 0x0, symName: __ZNSt3__16vectorIN8nlohmann10basic_jsonINS_3mapES0_NS_12basic_stringIcNS_11char_traitsIcEENS_9allocatorIcEEEEbxydS7_NS1_14adl_serializerENS0_IhNS7_IhEEEEEENS7_ISD_EEE22__construct_one_at_endB7v160006IJNS1_6detail7value_tEEEEvDpOT_, symObjAddr: 0xF020, symBinAddr: 0x2C4A0, symSize: 0x4C }
  - { offsetInCU: 0xB4D55, offset: 0x1530E8, size: 0x8, addend: 0x0, symName: __ZNSt3__16vectorIN8nlohmann10basic_jsonINS_3mapES0_NS_12basic_stringIcNS_11char_traitsIcEENS_9allocatorIcEEEEbxydS7_NS1_14adl_serializerENS0_IhNS7_IhEEEEEENS7_ISD_EEE22__construct_one_at_endB7v160006IJNS1_6detail7value_tEEEEvDpOT_, symObjAddr: 0xF020, symBinAddr: 0x2C4A0, symSize: 0x4C }
  - { offsetInCU: 0xB4F15, offset: 0x1532A8, size: 0x8, addend: 0x0, symName: __ZNSt3__16vectorIN8nlohmann10basic_jsonINS_3mapES0_NS_12basic_stringIcNS_11char_traitsIcEENS_9allocatorIcEEEEbxydS7_NS1_14adl_serializerENS0_IhNS7_IhEEEEEENS7_ISD_EEE24__emplace_back_slow_pathIJNS1_6detail7value_tEEEEvDpOT_, symObjAddr: 0xF06C, symBinAddr: 0x2C4EC, symSize: 0xE8 }
  - { offsetInCU: 0xB5241, offset: 0x1535D4, size: 0x8, addend: 0x0, symName: __ZN8nlohmann6detail19json_sax_dom_parserINS_10basic_jsonINSt3__13mapENS3_6vectorENS3_12basic_stringIcNS3_11char_traitsIcEENS3_9allocatorIcEEEEbxydS9_NS_14adl_serializerENS5_IhNS9_IhEEEEEEE12handle_valueINS0_7value_tEEEPSF_OT_.cold.1, symObjAddr: 0x1C484, symBinAddr: 0x397EC, symSize: 0x24 }
  - { offsetInCU: 0xB5259, offset: 0x1535EC, size: 0x8, addend: 0x0, symName: __ZN8nlohmann6detail19json_sax_dom_parserINS_10basic_jsonINSt3__13mapENS3_6vectorENS3_12basic_stringIcNS3_11char_traitsIcEENS3_9allocatorIcEEEEbxydS9_NS_14adl_serializerENS5_IhNS9_IhEEEEEEE12handle_valueINS0_7value_tEEEPSF_OT_.cold.2, symObjAddr: 0x1C4A8, symBinAddr: 0x39810, symSize: 0x24 }
  - { offsetInCU: 0xB5357, offset: 0x1536EA, size: 0x8, addend: 0x0, symName: __ZNSt3__16vectorIN8nlohmann10basic_jsonINS_3mapES0_NS_12basic_stringIcNS_11char_traitsIcEENS_9allocatorIcEEEEbxydS7_NS1_14adl_serializerENS0_IhNS7_IhEEEEEENS7_ISD_EEE24__emplace_back_slow_pathIJRdEEEvDpOT_, symObjAddr: 0xF284, symBinAddr: 0x2C704, symSize: 0xE4 }
  - { offsetInCU: 0xB567F, offset: 0x153A12, size: 0x8, addend: 0x0, symName: __ZN8nlohmann6detail19json_sax_dom_parserINS_10basic_jsonINSt3__13mapENS3_6vectorENS3_12basic_stringIcNS3_11char_traitsIcEENS3_9allocatorIcEEEEbxydS9_NS_14adl_serializerENS5_IhNS9_IhEEEEEEE12handle_valueIRdEEPSF_OT_.cold.1, symObjAddr: 0x1C4CC, symBinAddr: 0x39834, symSize: 0x24 }
  - { offsetInCU: 0xB5697, offset: 0x153A2A, size: 0x8, addend: 0x0, symName: __ZN8nlohmann6detail19json_sax_dom_parserINS_10basic_jsonINSt3__13mapENS3_6vectorENS3_12basic_stringIcNS3_11char_traitsIcEENS3_9allocatorIcEEEEbxydS9_NS_14adl_serializerENS5_IhNS9_IhEEEEEEE12handle_valueIRdEEPSF_OT_.cold.2, symObjAddr: 0x1C4F0, symBinAddr: 0x39858, symSize: 0x24 }
  - { offsetInCU: 0xB5756, offset: 0x153AE9, size: 0x8, addend: 0x0, symName: __ZNSt3__16vectorIN8nlohmann10basic_jsonINS_3mapES0_NS_12basic_stringIcNS_11char_traitsIcEENS_9allocatorIcEEEEbxydS7_NS1_14adl_serializerENS0_IhNS7_IhEEEEEENS7_ISD_EEE24__emplace_back_slow_pathIJRbEEEvDpOT_, symObjAddr: 0xF498, symBinAddr: 0x2C918, symSize: 0xE4 }
  - { offsetInCU: 0xB5A76, offset: 0x153E09, size: 0x8, addend: 0x0, symName: __ZN8nlohmann6detail19json_sax_dom_parserINS_10basic_jsonINSt3__13mapENS3_6vectorENS3_12basic_stringIcNS3_11char_traitsIcEENS3_9allocatorIcEEEEbxydS9_NS_14adl_serializerENS5_IhNS9_IhEEEEEEE12handle_valueIRbEEPSF_OT_.cold.1, symObjAddr: 0x1C514, symBinAddr: 0x3987C, symSize: 0x24 }
  - { offsetInCU: 0xB5A8E, offset: 0x153E21, size: 0x8, addend: 0x0, symName: __ZN8nlohmann6detail19json_sax_dom_parserINS_10basic_jsonINSt3__13mapENS3_6vectorENS3_12basic_stringIcNS3_11char_traitsIcEENS3_9allocatorIcEEEEbxydS9_NS_14adl_serializerENS5_IhNS9_IhEEEEEEE12handle_valueIRbEEPSF_OT_.cold.2, symObjAddr: 0x1C538, symBinAddr: 0x398A0, symSize: 0x24 }
  - { offsetInCU: 0xB5B4D, offset: 0x153EE0, size: 0x8, addend: 0x0, symName: __ZNSt3__16vectorIN8nlohmann10basic_jsonINS_3mapES0_NS_12basic_stringIcNS_11char_traitsIcEENS_9allocatorIcEEEEbxydS7_NS1_14adl_serializerENS0_IhNS7_IhEEEEEENS7_ISD_EEE24__emplace_back_slow_pathIJDnEEEvDpOT_, symObjAddr: 0xF6AC, symBinAddr: 0x2CB2C, symSize: 0xD8 }
  - { offsetInCU: 0xB5E6B, offset: 0x1541FE, size: 0x8, addend: 0x0, symName: __ZN8nlohmann6detail19json_sax_dom_parserINS_10basic_jsonINSt3__13mapENS3_6vectorENS3_12basic_stringIcNS3_11char_traitsIcEENS3_9allocatorIcEEEEbxydS9_NS_14adl_serializerENS5_IhNS9_IhEEEEEEE12handle_valueIDnEEPSF_OT_.cold.1, symObjAddr: 0x1C55C, symBinAddr: 0x398C4, symSize: 0x24 }
  - { offsetInCU: 0xB5E83, offset: 0x154216, size: 0x8, addend: 0x0, symName: __ZN8nlohmann6detail19json_sax_dom_parserINS_10basic_jsonINSt3__13mapENS3_6vectorENS3_12basic_stringIcNS3_11char_traitsIcEENS3_9allocatorIcEEEEbxydS9_NS_14adl_serializerENS5_IhNS9_IhEEEEEEE12handle_valueIDnEEPSF_OT_.cold.2, symObjAddr: 0x1C580, symBinAddr: 0x398E8, symSize: 0x24 }
  - { offsetInCU: 0xB5F42, offset: 0x1542D5, size: 0x8, addend: 0x0, symName: __ZNSt3__16vectorIN8nlohmann10basic_jsonINS_3mapES0_NS_12basic_stringIcNS_11char_traitsIcEENS_9allocatorIcEEEEbxydS7_NS1_14adl_serializerENS0_IhNS7_IhEEEEEENS7_ISD_EEE24__emplace_back_slow_pathIJRxEEEvDpOT_, symObjAddr: 0xF8B4, symBinAddr: 0x2CD34, symSize: 0xE4 }
  - { offsetInCU: 0xB6269, offset: 0x1545FC, size: 0x8, addend: 0x0, symName: __ZN8nlohmann6detail19json_sax_dom_parserINS_10basic_jsonINSt3__13mapENS3_6vectorENS3_12basic_stringIcNS3_11char_traitsIcEENS3_9allocatorIcEEEEbxydS9_NS_14adl_serializerENS5_IhNS9_IhEEEEEEE12handle_valueIRxEEPSF_OT_.cold.1, symObjAddr: 0x1C5A4, symBinAddr: 0x3990C, symSize: 0x24 }
  - { offsetInCU: 0xB6281, offset: 0x154614, size: 0x8, addend: 0x0, symName: __ZN8nlohmann6detail19json_sax_dom_parserINS_10basic_jsonINSt3__13mapENS3_6vectorENS3_12basic_stringIcNS3_11char_traitsIcEENS3_9allocatorIcEEEEbxydS9_NS_14adl_serializerENS5_IhNS9_IhEEEEEEE12handle_valueIRxEEPSF_OT_.cold.2, symObjAddr: 0x1C5C8, symBinAddr: 0x39930, symSize: 0x24 }
  - { offsetInCU: 0xB62C8, offset: 0x15465B, size: 0x8, addend: 0x0, symName: __ZNSt3__16vectorIN8nlohmann10basic_jsonINS_3mapES0_NS_12basic_stringIcNS_11char_traitsIcEENS_9allocatorIcEEEEbxydS7_NS1_14adl_serializerENS0_IhNS7_IhEEEEEENS7_ISD_EEE22__construct_one_at_endB7v160006IJRS9_EEEvDpOT_, symObjAddr: 0xFA90, symBinAddr: 0x2CF10, symSize: 0x4C }
  - { offsetInCU: 0xB64F5, offset: 0x154888, size: 0x8, addend: 0x0, symName: __ZNSt3__16vectorIN8nlohmann10basic_jsonINS_3mapES0_NS_12basic_stringIcNS_11char_traitsIcEENS_9allocatorIcEEEEbxydS7_NS1_14adl_serializerENS0_IhNS7_IhEEEEEENS7_ISD_EEE24__emplace_back_slow_pathIJRS9_EEEvDpOT_, symObjAddr: 0xFADC, symBinAddr: 0x2CF5C, symSize: 0xE4 }
  - { offsetInCU: 0xB686A, offset: 0x154BFD, size: 0x8, addend: 0x0, symName: __ZN8nlohmann6detail19json_sax_dom_parserINS_10basic_jsonINSt3__13mapENS3_6vectorENS3_12basic_stringIcNS3_11char_traitsIcEENS3_9allocatorIcEEEEbxydS9_NS_14adl_serializerENS5_IhNS9_IhEEEEEEE12handle_valueIRSB_EEPSF_OT_.cold.1, symObjAddr: 0x1C5EC, symBinAddr: 0x39954, symSize: 0x24 }
  - { offsetInCU: 0xB6882, offset: 0x154C15, size: 0x8, addend: 0x0, symName: __ZN8nlohmann6detail19json_sax_dom_parserINS_10basic_jsonINSt3__13mapENS3_6vectorENS3_12basic_stringIcNS3_11char_traitsIcEENS3_9allocatorIcEEEEbxydS9_NS_14adl_serializerENS5_IhNS9_IhEEEEEEE12handle_valueIRSB_EEPSF_OT_.cold.2, symObjAddr: 0x1C610, symBinAddr: 0x39978, symSize: 0x24 }
  - { offsetInCU: 0xB6980, offset: 0x154D13, size: 0x8, addend: 0x0, symName: __ZNSt3__16vectorIN8nlohmann10basic_jsonINS_3mapES0_NS_12basic_stringIcNS_11char_traitsIcEENS_9allocatorIcEEEEbxydS7_NS1_14adl_serializerENS0_IhNS7_IhEEEEEENS7_ISD_EEE24__emplace_back_slow_pathIJRyEEEvDpOT_, symObjAddr: 0xFCF0, symBinAddr: 0x2D170, symSize: 0xE4 }
  - { offsetInCU: 0xB6CA7, offset: 0x15503A, size: 0x8, addend: 0x0, symName: __ZN8nlohmann6detail19json_sax_dom_parserINS_10basic_jsonINSt3__13mapENS3_6vectorENS3_12basic_stringIcNS3_11char_traitsIcEENS3_9allocatorIcEEEEbxydS9_NS_14adl_serializerENS5_IhNS9_IhEEEEEEE12handle_valueIRyEEPSF_OT_.cold.1, symObjAddr: 0x1C634, symBinAddr: 0x3999C, symSize: 0x24 }
  - { offsetInCU: 0xB6CBF, offset: 0x155052, size: 0x8, addend: 0x0, symName: __ZN8nlohmann6detail19json_sax_dom_parserINS_10basic_jsonINSt3__13mapENS3_6vectorENS3_12basic_stringIcNS3_11char_traitsIcEENS3_9allocatorIcEEEEbxydS9_NS_14adl_serializerENS5_IhNS9_IhEEEEEEE12handle_valueIRyEEPSF_OT_.cold.2, symObjAddr: 0x1C658, symBinAddr: 0x399C0, symSize: 0x24 }
  - { offsetInCU: 0xB6E85, offset: 0x155218, size: 0x8, addend: 0x0, symName: __ZNSt3__16__treeINS_12__value_typeINS_12basic_stringIcNS_11char_traitsIcEENS_9allocatorIcEEEEN8nlohmann10basic_jsonINS_3mapENS_6vectorES7_bxydS5_NS8_14adl_serializerENSB_IhNS5_IhEEEEEEEENS_19__map_value_compareIS7_SG_NS_4lessIvEELb1EEENS5_ISG_EEE16__construct_nodeIJRKNS_21piecewise_construct_tENS_5tupleIJOS7_EEENSR_IJEEEEEENS_10unique_ptrINS_11__tree_nodeISG_PvEENS_22__tree_node_destructorINS5_ISY_EEEEEEDpOT_, symObjAddr: 0xFFD8, symBinAddr: 0x2D458, symSize: 0x80 }
  - { offsetInCU: 0xB7432, offset: 0x1557C5, size: 0x8, addend: 0x0, symName: __ZNSt3__110__function6__funcIZN5agora3rtc9extension29FUExtensionDelegateAPIBindingEPNS4_19FUExtensionDelegateEEUlRKNS_12basic_stringIcNS_11char_traitsIcEENS_9allocatorIcEEEEE0_NSA_ISF_EEFiSE_EED1Ev, symObjAddr: 0x10214, symBinAddr: 0x2D64C, symSize: 0x4 }
  - { offsetInCU: 0xB745E, offset: 0x1557F1, size: 0x8, addend: 0x0, symName: __ZNSt3__110__function6__funcIZN5agora3rtc9extension29FUExtensionDelegateAPIBindingEPNS4_19FUExtensionDelegateEEUlRKNS_12basic_stringIcNS_11char_traitsIcEENS_9allocatorIcEEEEE0_NSA_ISF_EEFiSE_EED0Ev, symObjAddr: 0x10218, symBinAddr: 0x2D650, symSize: 0x4 }
  - { offsetInCU: 0xB7662, offset: 0x1559F5, size: 0x8, addend: 0x0, symName: __ZNKSt3__110__function6__funcIZN5agora3rtc9extension29FUExtensionDelegateAPIBindingEPNS4_19FUExtensionDelegateEEUlRKNS_12basic_stringIcNS_11char_traitsIcEENS_9allocatorIcEEEEE0_NSA_ISF_EEFiSE_EE7__cloneEv, symObjAddr: 0x1021C, symBinAddr: 0x2D654, symSize: 0x34 }
  - { offsetInCU: 0xB7955, offset: 0x155CE8, size: 0x8, addend: 0x0, symName: __ZNKSt3__110__function6__funcIZN5agora3rtc9extension29FUExtensionDelegateAPIBindingEPNS4_19FUExtensionDelegateEEUlRKNS_12basic_stringIcNS_11char_traitsIcEENS_9allocatorIcEEEEE0_NSA_ISF_EEFiSE_EE7__cloneEPNS0_6__baseISH_EE, symObjAddr: 0x10250, symBinAddr: 0x2D688, symSize: 0x14 }
  - { offsetInCU: 0xB798C, offset: 0x155D1F, size: 0x8, addend: 0x0, symName: __ZNKSt3__110__function6__funcIZN5agora3rtc9extension29FUExtensionDelegateAPIBindingEPNS4_19FUExtensionDelegateEEUlRKNS_12basic_stringIcNS_11char_traitsIcEENS_9allocatorIcEEEEE0_NSA_ISF_EEFiSE_EE7__cloneEPNS0_6__baseISH_EE, symObjAddr: 0x10250, symBinAddr: 0x2D688, symSize: 0x14 }
  - { offsetInCU: 0xB79BA, offset: 0x155D4D, size: 0x8, addend: 0x0, symName: __ZNKSt3__110__function6__funcIZN5agora3rtc9extension29FUExtensionDelegateAPIBindingEPNS4_19FUExtensionDelegateEEUlRKNS_12basic_stringIcNS_11char_traitsIcEENS_9allocatorIcEEEEE0_NSA_ISF_EEFiSE_EE7__cloneEPNS0_6__baseISH_EE, symObjAddr: 0x10250, symBinAddr: 0x2D688, symSize: 0x14 }
  - { offsetInCU: 0xB79E8, offset: 0x155D7B, size: 0x8, addend: 0x0, symName: __ZNKSt3__110__function6__funcIZN5agora3rtc9extension29FUExtensionDelegateAPIBindingEPNS4_19FUExtensionDelegateEEUlRKNS_12basic_stringIcNS_11char_traitsIcEENS_9allocatorIcEEEEE0_NSA_ISF_EEFiSE_EE7__cloneEPNS0_6__baseISH_EE, symObjAddr: 0x10250, symBinAddr: 0x2D688, symSize: 0x14 }
  - { offsetInCU: 0xB79FD, offset: 0x155D90, size: 0x8, addend: 0x0, symName: __ZNKSt3__110__function6__funcIZN5agora3rtc9extension29FUExtensionDelegateAPIBindingEPNS4_19FUExtensionDelegateEEUlRKNS_12basic_stringIcNS_11char_traitsIcEENS_9allocatorIcEEEEE0_NSA_ISF_EEFiSE_EE7__cloneEPNS0_6__baseISH_EE, symObjAddr: 0x10250, symBinAddr: 0x2D688, symSize: 0x14 }
  - { offsetInCU: 0xB7A11, offset: 0x155DA4, size: 0x8, addend: 0x0, symName: __ZNKSt3__110__function6__funcIZN5agora3rtc9extension29FUExtensionDelegateAPIBindingEPNS4_19FUExtensionDelegateEEUlRKNS_12basic_stringIcNS_11char_traitsIcEENS_9allocatorIcEEEEE0_NSA_ISF_EEFiSE_EE7__cloneEPNS0_6__baseISH_EE, symObjAddr: 0x10250, symBinAddr: 0x2D688, symSize: 0x14 }
  - { offsetInCU: 0xB7A25, offset: 0x155DB8, size: 0x8, addend: 0x0, symName: __ZNKSt3__110__function6__funcIZN5agora3rtc9extension29FUExtensionDelegateAPIBindingEPNS4_19FUExtensionDelegateEEUlRKNS_12basic_stringIcNS_11char_traitsIcEENS_9allocatorIcEEEEE0_NSA_ISF_EEFiSE_EE7__cloneEPNS0_6__baseISH_EE, symObjAddr: 0x10250, symBinAddr: 0x2D688, symSize: 0x14 }
  - { offsetInCU: 0xB7A39, offset: 0x155DCC, size: 0x8, addend: 0x0, symName: __ZNKSt3__110__function6__funcIZN5agora3rtc9extension29FUExtensionDelegateAPIBindingEPNS4_19FUExtensionDelegateEEUlRKNS_12basic_stringIcNS_11char_traitsIcEENS_9allocatorIcEEEEE0_NSA_ISF_EEFiSE_EE7__cloneEPNS0_6__baseISH_EE, symObjAddr: 0x10250, symBinAddr: 0x2D688, symSize: 0x14 }
  - { offsetInCU: 0xB7A52, offset: 0x155DE5, size: 0x8, addend: 0x0, symName: __ZNSt3__110__function6__funcIZN5agora3rtc9extension29FUExtensionDelegateAPIBindingEPNS4_19FUExtensionDelegateEEUlRKNS_12basic_stringIcNS_11char_traitsIcEENS_9allocatorIcEEEEE0_NSA_ISF_EEFiSE_EE7destroyEv, symObjAddr: 0x10264, symBinAddr: 0x2D69C, symSize: 0x4 }
  - { offsetInCU: 0xB7AA5, offset: 0x155E38, size: 0x8, addend: 0x0, symName: __ZNSt3__110__function6__funcIZN5agora3rtc9extension29FUExtensionDelegateAPIBindingEPNS4_19FUExtensionDelegateEEUlRKNS_12basic_stringIcNS_11char_traitsIcEENS_9allocatorIcEEEEE0_NSA_ISF_EEFiSE_EE18destroy_deallocateEv, symObjAddr: 0x10268, symBinAddr: 0x2D6A0, symSize: 0x4 }
  - { offsetInCU: 0xB7ADA, offset: 0x155E6D, size: 0x8, addend: 0x0, symName: __ZNSt3__110__function6__funcIZN5agora3rtc9extension29FUExtensionDelegateAPIBindingEPNS4_19FUExtensionDelegateEEUlRKNS_12basic_stringIcNS_11char_traitsIcEENS_9allocatorIcEEEEE0_NSA_ISF_EEFiSE_EE18destroy_deallocateEv, symObjAddr: 0x10268, symBinAddr: 0x2D6A0, symSize: 0x4 }
  - { offsetInCU: 0xB7AFC, offset: 0x155E8F, size: 0x8, addend: 0x0, symName: __ZNSt3__110__function6__funcIZN5agora3rtc9extension29FUExtensionDelegateAPIBindingEPNS4_19FUExtensionDelegateEEUlRKNS_12basic_stringIcNS_11char_traitsIcEENS_9allocatorIcEEEEE0_NSA_ISF_EEFiSE_EE18destroy_deallocateEv, symObjAddr: 0x10268, symBinAddr: 0x2D6A0, symSize: 0x4 }
  - { offsetInCU: 0xB7B27, offset: 0x155EBA, size: 0x8, addend: 0x0, symName: __ZNSt3__110__function6__funcIZN5agora3rtc9extension29FUExtensionDelegateAPIBindingEPNS4_19FUExtensionDelegateEEUlRKNS_12basic_stringIcNS_11char_traitsIcEENS_9allocatorIcEEEEE0_NSA_ISF_EEFiSE_EE18destroy_deallocateEv, symObjAddr: 0x10268, symBinAddr: 0x2D6A0, symSize: 0x4 }
  - { offsetInCU: 0xB7B4D, offset: 0x155EE0, size: 0x8, addend: 0x0, symName: __ZNSt3__110__function6__funcIZN5agora3rtc9extension29FUExtensionDelegateAPIBindingEPNS4_19FUExtensionDelegateEEUlRKNS_12basic_stringIcNS_11char_traitsIcEENS_9allocatorIcEEEEE0_NSA_ISF_EEFiSE_EE18destroy_deallocateEv, symObjAddr: 0x10268, symBinAddr: 0x2D6A0, symSize: 0x4 }
  - { offsetInCU: 0xB7BC8, offset: 0x155F5B, size: 0x8, addend: 0x0, symName: __ZNSt3__110__function6__funcIZN5agora3rtc9extension29FUExtensionDelegateAPIBindingEPNS4_19FUExtensionDelegateEEUlRKNS_12basic_stringIcNS_11char_traitsIcEENS_9allocatorIcEEEEE0_NSA_ISF_EEFiSE_EEclESE_, symObjAddr: 0x1026C, symBinAddr: 0x2D6A4, symSize: 0x8 }
  - { offsetInCU: 0xB7C85, offset: 0x156018, size: 0x8, addend: 0x0, symName: __ZZN5agora3rtc9extension29FUExtensionDelegateAPIBindingEPNS1_19FUExtensionDelegateEENKUlRKNSt3__112basic_stringIcNS4_11char_traitsIcEENS4_9allocatorIcEEEEE0_clESC_, symObjAddr: 0x102BC, symBinAddr: 0x2D6F4, symSize: 0x1F0 }
  - { offsetInCU: 0xB858C, offset: 0x15691F, size: 0x8, addend: 0x0, symName: __ZNKSt3__110__function6__funcIZN5agora3rtc9extension29FUExtensionDelegateAPIBindingEPNS4_19FUExtensionDelegateEEUlRKNS_12basic_stringIcNS_11char_traitsIcEENS_9allocatorIcEEEEE0_NSA_ISF_EEFiSE_EE6targetERKSt9type_info, symObjAddr: 0x10274, symBinAddr: 0x2D6AC, symSize: 0x3C }
  - { offsetInCU: 0xB85DA, offset: 0x15696D, size: 0x8, addend: 0x0, symName: __ZNKSt3__110__function6__funcIZN5agora3rtc9extension29FUExtensionDelegateAPIBindingEPNS4_19FUExtensionDelegateEEUlRKNS_12basic_stringIcNS_11char_traitsIcEENS_9allocatorIcEEEEE0_NSA_ISF_EEFiSE_EE11target_typeEv, symObjAddr: 0x102B0, symBinAddr: 0x2D6E8, symSize: 0xC }
  - { offsetInCU: 0xB862B, offset: 0x1569BE, size: 0x8, addend: 0x0, symName: __ZNK8nlohmann10basic_jsonINSt3__13mapENS1_6vectorENS1_12basic_stringIcNS1_11char_traitsIcEENS1_9allocatorIcEEEEbxydS7_NS_14adl_serializerENS3_IhNS7_IhEEEEE8get_implIS9_Li0EEET_NS_6detail12priority_tagILj0EEE, symObjAddr: 0x104AC, symBinAddr: 0x2D8E4, symSize: 0x48 }
  - { offsetInCU: 0xB8908, offset: 0x156C9B, size: 0x8, addend: 0x0, symName: __ZNSt3__110__function6__funcIZN5agora3rtc9extension29FUExtensionDelegateAPIBindingEPNS4_19FUExtensionDelegateEEUlRKNS_12basic_stringIcNS_11char_traitsIcEENS_9allocatorIcEEEEE1_NSA_ISF_EEFiSE_EED1Ev, symObjAddr: 0x10604, symBinAddr: 0x2DA3C, symSize: 0x4 }
  - { offsetInCU: 0xB8934, offset: 0x156CC7, size: 0x8, addend: 0x0, symName: __ZNSt3__110__function6__funcIZN5agora3rtc9extension29FUExtensionDelegateAPIBindingEPNS4_19FUExtensionDelegateEEUlRKNS_12basic_stringIcNS_11char_traitsIcEENS_9allocatorIcEEEEE1_NSA_ISF_EEFiSE_EED0Ev, symObjAddr: 0x10608, symBinAddr: 0x2DA40, symSize: 0x4 }
  - { offsetInCU: 0xB8B38, offset: 0x156ECB, size: 0x8, addend: 0x0, symName: __ZNKSt3__110__function6__funcIZN5agora3rtc9extension29FUExtensionDelegateAPIBindingEPNS4_19FUExtensionDelegateEEUlRKNS_12basic_stringIcNS_11char_traitsIcEENS_9allocatorIcEEEEE1_NSA_ISF_EEFiSE_EE7__cloneEv, symObjAddr: 0x1060C, symBinAddr: 0x2DA44, symSize: 0x34 }
  - { offsetInCU: 0xB8E2B, offset: 0x1571BE, size: 0x8, addend: 0x0, symName: __ZNKSt3__110__function6__funcIZN5agora3rtc9extension29FUExtensionDelegateAPIBindingEPNS4_19FUExtensionDelegateEEUlRKNS_12basic_stringIcNS_11char_traitsIcEENS_9allocatorIcEEEEE1_NSA_ISF_EEFiSE_EE7__cloneEPNS0_6__baseISH_EE, symObjAddr: 0x10640, symBinAddr: 0x2DA78, symSize: 0x14 }
  - { offsetInCU: 0xB8E62, offset: 0x1571F5, size: 0x8, addend: 0x0, symName: __ZNKSt3__110__function6__funcIZN5agora3rtc9extension29FUExtensionDelegateAPIBindingEPNS4_19FUExtensionDelegateEEUlRKNS_12basic_stringIcNS_11char_traitsIcEENS_9allocatorIcEEEEE1_NSA_ISF_EEFiSE_EE7__cloneEPNS0_6__baseISH_EE, symObjAddr: 0x10640, symBinAddr: 0x2DA78, symSize: 0x14 }
  - { offsetInCU: 0xB8E90, offset: 0x157223, size: 0x8, addend: 0x0, symName: __ZNKSt3__110__function6__funcIZN5agora3rtc9extension29FUExtensionDelegateAPIBindingEPNS4_19FUExtensionDelegateEEUlRKNS_12basic_stringIcNS_11char_traitsIcEENS_9allocatorIcEEEEE1_NSA_ISF_EEFiSE_EE7__cloneEPNS0_6__baseISH_EE, symObjAddr: 0x10640, symBinAddr: 0x2DA78, symSize: 0x14 }
  - { offsetInCU: 0xB8EBE, offset: 0x157251, size: 0x8, addend: 0x0, symName: __ZNKSt3__110__function6__funcIZN5agora3rtc9extension29FUExtensionDelegateAPIBindingEPNS4_19FUExtensionDelegateEEUlRKNS_12basic_stringIcNS_11char_traitsIcEENS_9allocatorIcEEEEE1_NSA_ISF_EEFiSE_EE7__cloneEPNS0_6__baseISH_EE, symObjAddr: 0x10640, symBinAddr: 0x2DA78, symSize: 0x14 }
  - { offsetInCU: 0xB8ED3, offset: 0x157266, size: 0x8, addend: 0x0, symName: __ZNKSt3__110__function6__funcIZN5agora3rtc9extension29FUExtensionDelegateAPIBindingEPNS4_19FUExtensionDelegateEEUlRKNS_12basic_stringIcNS_11char_traitsIcEENS_9allocatorIcEEEEE1_NSA_ISF_EEFiSE_EE7__cloneEPNS0_6__baseISH_EE, symObjAddr: 0x10640, symBinAddr: 0x2DA78, symSize: 0x14 }
  - { offsetInCU: 0xB8EE7, offset: 0x15727A, size: 0x8, addend: 0x0, symName: __ZNKSt3__110__function6__funcIZN5agora3rtc9extension29FUExtensionDelegateAPIBindingEPNS4_19FUExtensionDelegateEEUlRKNS_12basic_stringIcNS_11char_traitsIcEENS_9allocatorIcEEEEE1_NSA_ISF_EEFiSE_EE7__cloneEPNS0_6__baseISH_EE, symObjAddr: 0x10640, symBinAddr: 0x2DA78, symSize: 0x14 }
  - { offsetInCU: 0xB8EFB, offset: 0x15728E, size: 0x8, addend: 0x0, symName: __ZNKSt3__110__function6__funcIZN5agora3rtc9extension29FUExtensionDelegateAPIBindingEPNS4_19FUExtensionDelegateEEUlRKNS_12basic_stringIcNS_11char_traitsIcEENS_9allocatorIcEEEEE1_NSA_ISF_EEFiSE_EE7__cloneEPNS0_6__baseISH_EE, symObjAddr: 0x10640, symBinAddr: 0x2DA78, symSize: 0x14 }
  - { offsetInCU: 0xB8F0F, offset: 0x1572A2, size: 0x8, addend: 0x0, symName: __ZNKSt3__110__function6__funcIZN5agora3rtc9extension29FUExtensionDelegateAPIBindingEPNS4_19FUExtensionDelegateEEUlRKNS_12basic_stringIcNS_11char_traitsIcEENS_9allocatorIcEEEEE1_NSA_ISF_EEFiSE_EE7__cloneEPNS0_6__baseISH_EE, symObjAddr: 0x10640, symBinAddr: 0x2DA78, symSize: 0x14 }
  - { offsetInCU: 0xB8F28, offset: 0x1572BB, size: 0x8, addend: 0x0, symName: __ZNSt3__110__function6__funcIZN5agora3rtc9extension29FUExtensionDelegateAPIBindingEPNS4_19FUExtensionDelegateEEUlRKNS_12basic_stringIcNS_11char_traitsIcEENS_9allocatorIcEEEEE1_NSA_ISF_EEFiSE_EE7destroyEv, symObjAddr: 0x10654, symBinAddr: 0x2DA8C, symSize: 0x4 }
  - { offsetInCU: 0xB8F7B, offset: 0x15730E, size: 0x8, addend: 0x0, symName: __ZNSt3__110__function6__funcIZN5agora3rtc9extension29FUExtensionDelegateAPIBindingEPNS4_19FUExtensionDelegateEEUlRKNS_12basic_stringIcNS_11char_traitsIcEENS_9allocatorIcEEEEE1_NSA_ISF_EEFiSE_EE18destroy_deallocateEv, symObjAddr: 0x10658, symBinAddr: 0x2DA90, symSize: 0x4 }
  - { offsetInCU: 0xB8FB0, offset: 0x157343, size: 0x8, addend: 0x0, symName: __ZNSt3__110__function6__funcIZN5agora3rtc9extension29FUExtensionDelegateAPIBindingEPNS4_19FUExtensionDelegateEEUlRKNS_12basic_stringIcNS_11char_traitsIcEENS_9allocatorIcEEEEE1_NSA_ISF_EEFiSE_EE18destroy_deallocateEv, symObjAddr: 0x10658, symBinAddr: 0x2DA90, symSize: 0x4 }
  - { offsetInCU: 0xB8FD2, offset: 0x157365, size: 0x8, addend: 0x0, symName: __ZNSt3__110__function6__funcIZN5agora3rtc9extension29FUExtensionDelegateAPIBindingEPNS4_19FUExtensionDelegateEEUlRKNS_12basic_stringIcNS_11char_traitsIcEENS_9allocatorIcEEEEE1_NSA_ISF_EEFiSE_EE18destroy_deallocateEv, symObjAddr: 0x10658, symBinAddr: 0x2DA90, symSize: 0x4 }
  - { offsetInCU: 0xB8FFD, offset: 0x157390, size: 0x8, addend: 0x0, symName: __ZNSt3__110__function6__funcIZN5agora3rtc9extension29FUExtensionDelegateAPIBindingEPNS4_19FUExtensionDelegateEEUlRKNS_12basic_stringIcNS_11char_traitsIcEENS_9allocatorIcEEEEE1_NSA_ISF_EEFiSE_EE18destroy_deallocateEv, symObjAddr: 0x10658, symBinAddr: 0x2DA90, symSize: 0x4 }
  - { offsetInCU: 0xB9023, offset: 0x1573B6, size: 0x8, addend: 0x0, symName: __ZNSt3__110__function6__funcIZN5agora3rtc9extension29FUExtensionDelegateAPIBindingEPNS4_19FUExtensionDelegateEEUlRKNS_12basic_stringIcNS_11char_traitsIcEENS_9allocatorIcEEEEE1_NSA_ISF_EEFiSE_EE18destroy_deallocateEv, symObjAddr: 0x10658, symBinAddr: 0x2DA90, symSize: 0x4 }
  - { offsetInCU: 0xB906E, offset: 0x157401, size: 0x8, addend: 0x0, symName: __ZNSt3__110__function6__funcIZN5agora3rtc9extension29FUExtensionDelegateAPIBindingEPNS4_19FUExtensionDelegateEEUlRKNS_12basic_stringIcNS_11char_traitsIcEENS_9allocatorIcEEEEE1_NSA_ISF_EEFiSE_EEclESE_, symObjAddr: 0x1065C, symBinAddr: 0x2DA94, symSize: 0x8 }
  - { offsetInCU: 0xB90DF, offset: 0x157472, size: 0x8, addend: 0x0, symName: __ZNSt3__128__invoke_void_return_wrapperIiLb0EE6__callIJRZN5agora3rtc9extension29FUExtensionDelegateAPIBindingEPNS5_19FUExtensionDelegateEEUlRKNS_12basic_stringIcNS_11char_traitsIcEENS_9allocatorIcEEEEE1_SF_EEEiDpOT_, symObjAddr: 0x106AC, symBinAddr: 0x2DAE4, symSize: 0x114 }
  - { offsetInCU: 0xB93AB, offset: 0x15773E, size: 0x8, addend: 0x0, symName: __ZNKSt3__110__function6__funcIZN5agora3rtc9extension29FUExtensionDelegateAPIBindingEPNS4_19FUExtensionDelegateEEUlRKNS_12basic_stringIcNS_11char_traitsIcEENS_9allocatorIcEEEEE1_NSA_ISF_EEFiSE_EE6targetERKSt9type_info, symObjAddr: 0x10664, symBinAddr: 0x2DA9C, symSize: 0x3C }
  - { offsetInCU: 0xB93F9, offset: 0x15778C, size: 0x8, addend: 0x0, symName: __ZNKSt3__110__function6__funcIZN5agora3rtc9extension29FUExtensionDelegateAPIBindingEPNS4_19FUExtensionDelegateEEUlRKNS_12basic_stringIcNS_11char_traitsIcEENS_9allocatorIcEEEEE1_NSA_ISF_EEFiSE_EE11target_typeEv, symObjAddr: 0x106A0, symBinAddr: 0x2DAD8, symSize: 0xC }
  - { offsetInCU: 0xB945C, offset: 0x1577EF, size: 0x8, addend: 0x0, symName: __ZNSt3__110__function6__funcIZN5agora3rtc9extension29FUExtensionDelegateAPIBindingEPNS4_19FUExtensionDelegateEEUlRKNS_12basic_stringIcNS_11char_traitsIcEENS_9allocatorIcEEEEE2_NSA_ISF_EEFiSE_EED1Ev, symObjAddr: 0x107C0, symBinAddr: 0x2DBF8, symSize: 0x4 }
  - { offsetInCU: 0xB9488, offset: 0x15781B, size: 0x8, addend: 0x0, symName: __ZNSt3__110__function6__funcIZN5agora3rtc9extension29FUExtensionDelegateAPIBindingEPNS4_19FUExtensionDelegateEEUlRKNS_12basic_stringIcNS_11char_traitsIcEENS_9allocatorIcEEEEE2_NSA_ISF_EEFiSE_EED0Ev, symObjAddr: 0x107C4, symBinAddr: 0x2DBFC, symSize: 0x4 }
  - { offsetInCU: 0xB968C, offset: 0x157A1F, size: 0x8, addend: 0x0, symName: __ZNKSt3__110__function6__funcIZN5agora3rtc9extension29FUExtensionDelegateAPIBindingEPNS4_19FUExtensionDelegateEEUlRKNS_12basic_stringIcNS_11char_traitsIcEENS_9allocatorIcEEEEE2_NSA_ISF_EEFiSE_EE7__cloneEv, symObjAddr: 0x107C8, symBinAddr: 0x2DC00, symSize: 0x34 }
  - { offsetInCU: 0xB997F, offset: 0x157D12, size: 0x8, addend: 0x0, symName: __ZNKSt3__110__function6__funcIZN5agora3rtc9extension29FUExtensionDelegateAPIBindingEPNS4_19FUExtensionDelegateEEUlRKNS_12basic_stringIcNS_11char_traitsIcEENS_9allocatorIcEEEEE2_NSA_ISF_EEFiSE_EE7__cloneEPNS0_6__baseISH_EE, symObjAddr: 0x107FC, symBinAddr: 0x2DC34, symSize: 0x14 }
  - { offsetInCU: 0xB99B6, offset: 0x157D49, size: 0x8, addend: 0x0, symName: __ZNKSt3__110__function6__funcIZN5agora3rtc9extension29FUExtensionDelegateAPIBindingEPNS4_19FUExtensionDelegateEEUlRKNS_12basic_stringIcNS_11char_traitsIcEENS_9allocatorIcEEEEE2_NSA_ISF_EEFiSE_EE7__cloneEPNS0_6__baseISH_EE, symObjAddr: 0x107FC, symBinAddr: 0x2DC34, symSize: 0x14 }
  - { offsetInCU: 0xB99E4, offset: 0x157D77, size: 0x8, addend: 0x0, symName: __ZNKSt3__110__function6__funcIZN5agora3rtc9extension29FUExtensionDelegateAPIBindingEPNS4_19FUExtensionDelegateEEUlRKNS_12basic_stringIcNS_11char_traitsIcEENS_9allocatorIcEEEEE2_NSA_ISF_EEFiSE_EE7__cloneEPNS0_6__baseISH_EE, symObjAddr: 0x107FC, symBinAddr: 0x2DC34, symSize: 0x14 }
  - { offsetInCU: 0xB9A12, offset: 0x157DA5, size: 0x8, addend: 0x0, symName: __ZNKSt3__110__function6__funcIZN5agora3rtc9extension29FUExtensionDelegateAPIBindingEPNS4_19FUExtensionDelegateEEUlRKNS_12basic_stringIcNS_11char_traitsIcEENS_9allocatorIcEEEEE2_NSA_ISF_EEFiSE_EE7__cloneEPNS0_6__baseISH_EE, symObjAddr: 0x107FC, symBinAddr: 0x2DC34, symSize: 0x14 }
  - { offsetInCU: 0xB9A27, offset: 0x157DBA, size: 0x8, addend: 0x0, symName: __ZNKSt3__110__function6__funcIZN5agora3rtc9extension29FUExtensionDelegateAPIBindingEPNS4_19FUExtensionDelegateEEUlRKNS_12basic_stringIcNS_11char_traitsIcEENS_9allocatorIcEEEEE2_NSA_ISF_EEFiSE_EE7__cloneEPNS0_6__baseISH_EE, symObjAddr: 0x107FC, symBinAddr: 0x2DC34, symSize: 0x14 }
  - { offsetInCU: 0xB9A3B, offset: 0x157DCE, size: 0x8, addend: 0x0, symName: __ZNKSt3__110__function6__funcIZN5agora3rtc9extension29FUExtensionDelegateAPIBindingEPNS4_19FUExtensionDelegateEEUlRKNS_12basic_stringIcNS_11char_traitsIcEENS_9allocatorIcEEEEE2_NSA_ISF_EEFiSE_EE7__cloneEPNS0_6__baseISH_EE, symObjAddr: 0x107FC, symBinAddr: 0x2DC34, symSize: 0x14 }
  - { offsetInCU: 0xB9A4F, offset: 0x157DE2, size: 0x8, addend: 0x0, symName: __ZNKSt3__110__function6__funcIZN5agora3rtc9extension29FUExtensionDelegateAPIBindingEPNS4_19FUExtensionDelegateEEUlRKNS_12basic_stringIcNS_11char_traitsIcEENS_9allocatorIcEEEEE2_NSA_ISF_EEFiSE_EE7__cloneEPNS0_6__baseISH_EE, symObjAddr: 0x107FC, symBinAddr: 0x2DC34, symSize: 0x14 }
  - { offsetInCU: 0xB9A63, offset: 0x157DF6, size: 0x8, addend: 0x0, symName: __ZNKSt3__110__function6__funcIZN5agora3rtc9extension29FUExtensionDelegateAPIBindingEPNS4_19FUExtensionDelegateEEUlRKNS_12basic_stringIcNS_11char_traitsIcEENS_9allocatorIcEEEEE2_NSA_ISF_EEFiSE_EE7__cloneEPNS0_6__baseISH_EE, symObjAddr: 0x107FC, symBinAddr: 0x2DC34, symSize: 0x14 }
  - { offsetInCU: 0xB9A7C, offset: 0x157E0F, size: 0x8, addend: 0x0, symName: __ZNSt3__110__function6__funcIZN5agora3rtc9extension29FUExtensionDelegateAPIBindingEPNS4_19FUExtensionDelegateEEUlRKNS_12basic_stringIcNS_11char_traitsIcEENS_9allocatorIcEEEEE2_NSA_ISF_EEFiSE_EE7destroyEv, symObjAddr: 0x10810, symBinAddr: 0x2DC48, symSize: 0x4 }
  - { offsetInCU: 0xB9ACF, offset: 0x157E62, size: 0x8, addend: 0x0, symName: __ZNSt3__110__function6__funcIZN5agora3rtc9extension29FUExtensionDelegateAPIBindingEPNS4_19FUExtensionDelegateEEUlRKNS_12basic_stringIcNS_11char_traitsIcEENS_9allocatorIcEEEEE2_NSA_ISF_EEFiSE_EE18destroy_deallocateEv, symObjAddr: 0x10814, symBinAddr: 0x2DC4C, symSize: 0x4 }
  - { offsetInCU: 0xB9B04, offset: 0x157E97, size: 0x8, addend: 0x0, symName: __ZNSt3__110__function6__funcIZN5agora3rtc9extension29FUExtensionDelegateAPIBindingEPNS4_19FUExtensionDelegateEEUlRKNS_12basic_stringIcNS_11char_traitsIcEENS_9allocatorIcEEEEE2_NSA_ISF_EEFiSE_EE18destroy_deallocateEv, symObjAddr: 0x10814, symBinAddr: 0x2DC4C, symSize: 0x4 }
  - { offsetInCU: 0xB9B26, offset: 0x157EB9, size: 0x8, addend: 0x0, symName: __ZNSt3__110__function6__funcIZN5agora3rtc9extension29FUExtensionDelegateAPIBindingEPNS4_19FUExtensionDelegateEEUlRKNS_12basic_stringIcNS_11char_traitsIcEENS_9allocatorIcEEEEE2_NSA_ISF_EEFiSE_EE18destroy_deallocateEv, symObjAddr: 0x10814, symBinAddr: 0x2DC4C, symSize: 0x4 }
  - { offsetInCU: 0xB9B51, offset: 0x157EE4, size: 0x8, addend: 0x0, symName: __ZNSt3__110__function6__funcIZN5agora3rtc9extension29FUExtensionDelegateAPIBindingEPNS4_19FUExtensionDelegateEEUlRKNS_12basic_stringIcNS_11char_traitsIcEENS_9allocatorIcEEEEE2_NSA_ISF_EEFiSE_EE18destroy_deallocateEv, symObjAddr: 0x10814, symBinAddr: 0x2DC4C, symSize: 0x4 }
  - { offsetInCU: 0xB9B77, offset: 0x157F0A, size: 0x8, addend: 0x0, symName: __ZNSt3__110__function6__funcIZN5agora3rtc9extension29FUExtensionDelegateAPIBindingEPNS4_19FUExtensionDelegateEEUlRKNS_12basic_stringIcNS_11char_traitsIcEENS_9allocatorIcEEEEE2_NSA_ISF_EEFiSE_EE18destroy_deallocateEv, symObjAddr: 0x10814, symBinAddr: 0x2DC4C, symSize: 0x4 }
  - { offsetInCU: 0xB9BC2, offset: 0x157F55, size: 0x8, addend: 0x0, symName: __ZNSt3__110__function6__funcIZN5agora3rtc9extension29FUExtensionDelegateAPIBindingEPNS4_19FUExtensionDelegateEEUlRKNS_12basic_stringIcNS_11char_traitsIcEENS_9allocatorIcEEEEE2_NSA_ISF_EEFiSE_EEclESE_, symObjAddr: 0x10818, symBinAddr: 0x2DC50, symSize: 0x8 }
  - { offsetInCU: 0xB9C33, offset: 0x157FC6, size: 0x8, addend: 0x0, symName: __ZNSt3__128__invoke_void_return_wrapperIiLb0EE6__callIJRZN5agora3rtc9extension29FUExtensionDelegateAPIBindingEPNS5_19FUExtensionDelegateEEUlRKNS_12basic_stringIcNS_11char_traitsIcEENS_9allocatorIcEEEEE2_SF_EEEiDpOT_, symObjAddr: 0x10868, symBinAddr: 0x2DCA0, symSize: 0x10C }
  - { offsetInCU: 0xB9F14, offset: 0x1582A7, size: 0x8, addend: 0x0, symName: __ZNKSt3__110__function6__funcIZN5agora3rtc9extension29FUExtensionDelegateAPIBindingEPNS4_19FUExtensionDelegateEEUlRKNS_12basic_stringIcNS_11char_traitsIcEENS_9allocatorIcEEEEE2_NSA_ISF_EEFiSE_EE6targetERKSt9type_info, symObjAddr: 0x10820, symBinAddr: 0x2DC58, symSize: 0x3C }
  - { offsetInCU: 0xB9F62, offset: 0x1582F5, size: 0x8, addend: 0x0, symName: __ZNKSt3__110__function6__funcIZN5agora3rtc9extension29FUExtensionDelegateAPIBindingEPNS4_19FUExtensionDelegateEEUlRKNS_12basic_stringIcNS_11char_traitsIcEENS_9allocatorIcEEEEE2_NSA_ISF_EEFiSE_EE11target_typeEv, symObjAddr: 0x1085C, symBinAddr: 0x2DC94, symSize: 0xC }
  - { offsetInCU: 0xB9FC5, offset: 0x158358, size: 0x8, addend: 0x0, symName: __ZNSt3__110__function6__funcIZN5agora3rtc9extension29FUExtensionDelegateAPIBindingEPNS4_19FUExtensionDelegateEEUlRKNS_12basic_stringIcNS_11char_traitsIcEENS_9allocatorIcEEEEE3_NSA_ISF_EEFiSE_EED1Ev, symObjAddr: 0x10974, symBinAddr: 0x2DDAC, symSize: 0x4 }
  - { offsetInCU: 0xB9FF1, offset: 0x158384, size: 0x8, addend: 0x0, symName: __ZNSt3__110__function6__funcIZN5agora3rtc9extension29FUExtensionDelegateAPIBindingEPNS4_19FUExtensionDelegateEEUlRKNS_12basic_stringIcNS_11char_traitsIcEENS_9allocatorIcEEEEE3_NSA_ISF_EEFiSE_EED0Ev, symObjAddr: 0x10978, symBinAddr: 0x2DDB0, symSize: 0x4 }
  - { offsetInCU: 0xBA1F5, offset: 0x158588, size: 0x8, addend: 0x0, symName: __ZNKSt3__110__function6__funcIZN5agora3rtc9extension29FUExtensionDelegateAPIBindingEPNS4_19FUExtensionDelegateEEUlRKNS_12basic_stringIcNS_11char_traitsIcEENS_9allocatorIcEEEEE3_NSA_ISF_EEFiSE_EE7__cloneEv, symObjAddr: 0x1097C, symBinAddr: 0x2DDB4, symSize: 0x34 }
  - { offsetInCU: 0xBA4E8, offset: 0x15887B, size: 0x8, addend: 0x0, symName: __ZNKSt3__110__function6__funcIZN5agora3rtc9extension29FUExtensionDelegateAPIBindingEPNS4_19FUExtensionDelegateEEUlRKNS_12basic_stringIcNS_11char_traitsIcEENS_9allocatorIcEEEEE3_NSA_ISF_EEFiSE_EE7__cloneEPNS0_6__baseISH_EE, symObjAddr: 0x109B0, symBinAddr: 0x2DDE8, symSize: 0x14 }
  - { offsetInCU: 0xBA51F, offset: 0x1588B2, size: 0x8, addend: 0x0, symName: __ZNKSt3__110__function6__funcIZN5agora3rtc9extension29FUExtensionDelegateAPIBindingEPNS4_19FUExtensionDelegateEEUlRKNS_12basic_stringIcNS_11char_traitsIcEENS_9allocatorIcEEEEE3_NSA_ISF_EEFiSE_EE7__cloneEPNS0_6__baseISH_EE, symObjAddr: 0x109B0, symBinAddr: 0x2DDE8, symSize: 0x14 }
  - { offsetInCU: 0xBA54D, offset: 0x1588E0, size: 0x8, addend: 0x0, symName: __ZNKSt3__110__function6__funcIZN5agora3rtc9extension29FUExtensionDelegateAPIBindingEPNS4_19FUExtensionDelegateEEUlRKNS_12basic_stringIcNS_11char_traitsIcEENS_9allocatorIcEEEEE3_NSA_ISF_EEFiSE_EE7__cloneEPNS0_6__baseISH_EE, symObjAddr: 0x109B0, symBinAddr: 0x2DDE8, symSize: 0x14 }
  - { offsetInCU: 0xBA57B, offset: 0x15890E, size: 0x8, addend: 0x0, symName: __ZNKSt3__110__function6__funcIZN5agora3rtc9extension29FUExtensionDelegateAPIBindingEPNS4_19FUExtensionDelegateEEUlRKNS_12basic_stringIcNS_11char_traitsIcEENS_9allocatorIcEEEEE3_NSA_ISF_EEFiSE_EE7__cloneEPNS0_6__baseISH_EE, symObjAddr: 0x109B0, symBinAddr: 0x2DDE8, symSize: 0x14 }
  - { offsetInCU: 0xBA590, offset: 0x158923, size: 0x8, addend: 0x0, symName: __ZNKSt3__110__function6__funcIZN5agora3rtc9extension29FUExtensionDelegateAPIBindingEPNS4_19FUExtensionDelegateEEUlRKNS_12basic_stringIcNS_11char_traitsIcEENS_9allocatorIcEEEEE3_NSA_ISF_EEFiSE_EE7__cloneEPNS0_6__baseISH_EE, symObjAddr: 0x109B0, symBinAddr: 0x2DDE8, symSize: 0x14 }
  - { offsetInCU: 0xBA5A4, offset: 0x158937, size: 0x8, addend: 0x0, symName: __ZNKSt3__110__function6__funcIZN5agora3rtc9extension29FUExtensionDelegateAPIBindingEPNS4_19FUExtensionDelegateEEUlRKNS_12basic_stringIcNS_11char_traitsIcEENS_9allocatorIcEEEEE3_NSA_ISF_EEFiSE_EE7__cloneEPNS0_6__baseISH_EE, symObjAddr: 0x109B0, symBinAddr: 0x2DDE8, symSize: 0x14 }
  - { offsetInCU: 0xBA5B8, offset: 0x15894B, size: 0x8, addend: 0x0, symName: __ZNKSt3__110__function6__funcIZN5agora3rtc9extension29FUExtensionDelegateAPIBindingEPNS4_19FUExtensionDelegateEEUlRKNS_12basic_stringIcNS_11char_traitsIcEENS_9allocatorIcEEEEE3_NSA_ISF_EEFiSE_EE7__cloneEPNS0_6__baseISH_EE, symObjAddr: 0x109B0, symBinAddr: 0x2DDE8, symSize: 0x14 }
  - { offsetInCU: 0xBA5CC, offset: 0x15895F, size: 0x8, addend: 0x0, symName: __ZNKSt3__110__function6__funcIZN5agora3rtc9extension29FUExtensionDelegateAPIBindingEPNS4_19FUExtensionDelegateEEUlRKNS_12basic_stringIcNS_11char_traitsIcEENS_9allocatorIcEEEEE3_NSA_ISF_EEFiSE_EE7__cloneEPNS0_6__baseISH_EE, symObjAddr: 0x109B0, symBinAddr: 0x2DDE8, symSize: 0x14 }
  - { offsetInCU: 0xBA5E5, offset: 0x158978, size: 0x8, addend: 0x0, symName: __ZNSt3__110__function6__funcIZN5agora3rtc9extension29FUExtensionDelegateAPIBindingEPNS4_19FUExtensionDelegateEEUlRKNS_12basic_stringIcNS_11char_traitsIcEENS_9allocatorIcEEEEE3_NSA_ISF_EEFiSE_EE7destroyEv, symObjAddr: 0x109C4, symBinAddr: 0x2DDFC, symSize: 0x4 }
  - { offsetInCU: 0xBA638, offset: 0x1589CB, size: 0x8, addend: 0x0, symName: __ZNSt3__110__function6__funcIZN5agora3rtc9extension29FUExtensionDelegateAPIBindingEPNS4_19FUExtensionDelegateEEUlRKNS_12basic_stringIcNS_11char_traitsIcEENS_9allocatorIcEEEEE3_NSA_ISF_EEFiSE_EE18destroy_deallocateEv, symObjAddr: 0x109C8, symBinAddr: 0x2DE00, symSize: 0x4 }
  - { offsetInCU: 0xBA66D, offset: 0x158A00, size: 0x8, addend: 0x0, symName: __ZNSt3__110__function6__funcIZN5agora3rtc9extension29FUExtensionDelegateAPIBindingEPNS4_19FUExtensionDelegateEEUlRKNS_12basic_stringIcNS_11char_traitsIcEENS_9allocatorIcEEEEE3_NSA_ISF_EEFiSE_EE18destroy_deallocateEv, symObjAddr: 0x109C8, symBinAddr: 0x2DE00, symSize: 0x4 }
  - { offsetInCU: 0xBA68F, offset: 0x158A22, size: 0x8, addend: 0x0, symName: __ZNSt3__110__function6__funcIZN5agora3rtc9extension29FUExtensionDelegateAPIBindingEPNS4_19FUExtensionDelegateEEUlRKNS_12basic_stringIcNS_11char_traitsIcEENS_9allocatorIcEEEEE3_NSA_ISF_EEFiSE_EE18destroy_deallocateEv, symObjAddr: 0x109C8, symBinAddr: 0x2DE00, symSize: 0x4 }
  - { offsetInCU: 0xBA6BA, offset: 0x158A4D, size: 0x8, addend: 0x0, symName: __ZNSt3__110__function6__funcIZN5agora3rtc9extension29FUExtensionDelegateAPIBindingEPNS4_19FUExtensionDelegateEEUlRKNS_12basic_stringIcNS_11char_traitsIcEENS_9allocatorIcEEEEE3_NSA_ISF_EEFiSE_EE18destroy_deallocateEv, symObjAddr: 0x109C8, symBinAddr: 0x2DE00, symSize: 0x4 }
  - { offsetInCU: 0xBA6E0, offset: 0x158A73, size: 0x8, addend: 0x0, symName: __ZNSt3__110__function6__funcIZN5agora3rtc9extension29FUExtensionDelegateAPIBindingEPNS4_19FUExtensionDelegateEEUlRKNS_12basic_stringIcNS_11char_traitsIcEENS_9allocatorIcEEEEE3_NSA_ISF_EEFiSE_EE18destroy_deallocateEv, symObjAddr: 0x109C8, symBinAddr: 0x2DE00, symSize: 0x4 }
  - { offsetInCU: 0xBA72B, offset: 0x158ABE, size: 0x8, addend: 0x0, symName: __ZNSt3__110__function6__funcIZN5agora3rtc9extension29FUExtensionDelegateAPIBindingEPNS4_19FUExtensionDelegateEEUlRKNS_12basic_stringIcNS_11char_traitsIcEENS_9allocatorIcEEEEE3_NSA_ISF_EEFiSE_EEclESE_, symObjAddr: 0x109CC, symBinAddr: 0x2DE04, symSize: 0x8 }
  - { offsetInCU: 0xBA79C, offset: 0x158B2F, size: 0x8, addend: 0x0, symName: __ZNSt3__128__invoke_void_return_wrapperIiLb0EE6__callIJRZN5agora3rtc9extension29FUExtensionDelegateAPIBindingEPNS5_19FUExtensionDelegateEEUlRKNS_12basic_stringIcNS_11char_traitsIcEENS_9allocatorIcEEEEE3_SF_EEEiDpOT_, symObjAddr: 0x10A1C, symBinAddr: 0x2DE54, symSize: 0x114 }
  - { offsetInCU: 0xBAA68, offset: 0x158DFB, size: 0x8, addend: 0x0, symName: __ZNKSt3__110__function6__funcIZN5agora3rtc9extension29FUExtensionDelegateAPIBindingEPNS4_19FUExtensionDelegateEEUlRKNS_12basic_stringIcNS_11char_traitsIcEENS_9allocatorIcEEEEE3_NSA_ISF_EEFiSE_EE6targetERKSt9type_info, symObjAddr: 0x109D4, symBinAddr: 0x2DE0C, symSize: 0x3C }
  - { offsetInCU: 0xBAAB6, offset: 0x158E49, size: 0x8, addend: 0x0, symName: __ZNKSt3__110__function6__funcIZN5agora3rtc9extension29FUExtensionDelegateAPIBindingEPNS4_19FUExtensionDelegateEEUlRKNS_12basic_stringIcNS_11char_traitsIcEENS_9allocatorIcEEEEE3_NSA_ISF_EEFiSE_EE11target_typeEv, symObjAddr: 0x10A10, symBinAddr: 0x2DE48, symSize: 0xC }
  - { offsetInCU: 0xBAB19, offset: 0x158EAC, size: 0x8, addend: 0x0, symName: __ZNSt3__110__function6__funcIZN5agora3rtc9extension29FUExtensionDelegateAPIBindingEPNS4_19FUExtensionDelegateEEUlRKNS_12basic_stringIcNS_11char_traitsIcEENS_9allocatorIcEEEEE4_NSA_ISF_EEFiSE_EED1Ev, symObjAddr: 0x10B30, symBinAddr: 0x2DF68, symSize: 0x4 }
  - { offsetInCU: 0xBAB45, offset: 0x158ED8, size: 0x8, addend: 0x0, symName: __ZNSt3__110__function6__funcIZN5agora3rtc9extension29FUExtensionDelegateAPIBindingEPNS4_19FUExtensionDelegateEEUlRKNS_12basic_stringIcNS_11char_traitsIcEENS_9allocatorIcEEEEE4_NSA_ISF_EEFiSE_EED0Ev, symObjAddr: 0x10B34, symBinAddr: 0x2DF6C, symSize: 0x4 }
  - { offsetInCU: 0xBAD49, offset: 0x1590DC, size: 0x8, addend: 0x0, symName: __ZNKSt3__110__function6__funcIZN5agora3rtc9extension29FUExtensionDelegateAPIBindingEPNS4_19FUExtensionDelegateEEUlRKNS_12basic_stringIcNS_11char_traitsIcEENS_9allocatorIcEEEEE4_NSA_ISF_EEFiSE_EE7__cloneEv, symObjAddr: 0x10B38, symBinAddr: 0x2DF70, symSize: 0x34 }
  - { offsetInCU: 0xBB03C, offset: 0x1593CF, size: 0x8, addend: 0x0, symName: __ZNKSt3__110__function6__funcIZN5agora3rtc9extension29FUExtensionDelegateAPIBindingEPNS4_19FUExtensionDelegateEEUlRKNS_12basic_stringIcNS_11char_traitsIcEENS_9allocatorIcEEEEE4_NSA_ISF_EEFiSE_EE7__cloneEPNS0_6__baseISH_EE, symObjAddr: 0x10B6C, symBinAddr: 0x2DFA4, symSize: 0x14 }
  - { offsetInCU: 0xBB073, offset: 0x159406, size: 0x8, addend: 0x0, symName: __ZNKSt3__110__function6__funcIZN5agora3rtc9extension29FUExtensionDelegateAPIBindingEPNS4_19FUExtensionDelegateEEUlRKNS_12basic_stringIcNS_11char_traitsIcEENS_9allocatorIcEEEEE4_NSA_ISF_EEFiSE_EE7__cloneEPNS0_6__baseISH_EE, symObjAddr: 0x10B6C, symBinAddr: 0x2DFA4, symSize: 0x14 }
  - { offsetInCU: 0xBB0A1, offset: 0x159434, size: 0x8, addend: 0x0, symName: __ZNKSt3__110__function6__funcIZN5agora3rtc9extension29FUExtensionDelegateAPIBindingEPNS4_19FUExtensionDelegateEEUlRKNS_12basic_stringIcNS_11char_traitsIcEENS_9allocatorIcEEEEE4_NSA_ISF_EEFiSE_EE7__cloneEPNS0_6__baseISH_EE, symObjAddr: 0x10B6C, symBinAddr: 0x2DFA4, symSize: 0x14 }
  - { offsetInCU: 0xBB0CF, offset: 0x159462, size: 0x8, addend: 0x0, symName: __ZNKSt3__110__function6__funcIZN5agora3rtc9extension29FUExtensionDelegateAPIBindingEPNS4_19FUExtensionDelegateEEUlRKNS_12basic_stringIcNS_11char_traitsIcEENS_9allocatorIcEEEEE4_NSA_ISF_EEFiSE_EE7__cloneEPNS0_6__baseISH_EE, symObjAddr: 0x10B6C, symBinAddr: 0x2DFA4, symSize: 0x14 }
  - { offsetInCU: 0xBB0E4, offset: 0x159477, size: 0x8, addend: 0x0, symName: __ZNKSt3__110__function6__funcIZN5agora3rtc9extension29FUExtensionDelegateAPIBindingEPNS4_19FUExtensionDelegateEEUlRKNS_12basic_stringIcNS_11char_traitsIcEENS_9allocatorIcEEEEE4_NSA_ISF_EEFiSE_EE7__cloneEPNS0_6__baseISH_EE, symObjAddr: 0x10B6C, symBinAddr: 0x2DFA4, symSize: 0x14 }
  - { offsetInCU: 0xBB0F8, offset: 0x15948B, size: 0x8, addend: 0x0, symName: __ZNKSt3__110__function6__funcIZN5agora3rtc9extension29FUExtensionDelegateAPIBindingEPNS4_19FUExtensionDelegateEEUlRKNS_12basic_stringIcNS_11char_traitsIcEENS_9allocatorIcEEEEE4_NSA_ISF_EEFiSE_EE7__cloneEPNS0_6__baseISH_EE, symObjAddr: 0x10B6C, symBinAddr: 0x2DFA4, symSize: 0x14 }
  - { offsetInCU: 0xBB10C, offset: 0x15949F, size: 0x8, addend: 0x0, symName: __ZNKSt3__110__function6__funcIZN5agora3rtc9extension29FUExtensionDelegateAPIBindingEPNS4_19FUExtensionDelegateEEUlRKNS_12basic_stringIcNS_11char_traitsIcEENS_9allocatorIcEEEEE4_NSA_ISF_EEFiSE_EE7__cloneEPNS0_6__baseISH_EE, symObjAddr: 0x10B6C, symBinAddr: 0x2DFA4, symSize: 0x14 }
  - { offsetInCU: 0xBB120, offset: 0x1594B3, size: 0x8, addend: 0x0, symName: __ZNKSt3__110__function6__funcIZN5agora3rtc9extension29FUExtensionDelegateAPIBindingEPNS4_19FUExtensionDelegateEEUlRKNS_12basic_stringIcNS_11char_traitsIcEENS_9allocatorIcEEEEE4_NSA_ISF_EEFiSE_EE7__cloneEPNS0_6__baseISH_EE, symObjAddr: 0x10B6C, symBinAddr: 0x2DFA4, symSize: 0x14 }
  - { offsetInCU: 0xBB139, offset: 0x1594CC, size: 0x8, addend: 0x0, symName: __ZNSt3__110__function6__funcIZN5agora3rtc9extension29FUExtensionDelegateAPIBindingEPNS4_19FUExtensionDelegateEEUlRKNS_12basic_stringIcNS_11char_traitsIcEENS_9allocatorIcEEEEE4_NSA_ISF_EEFiSE_EE7destroyEv, symObjAddr: 0x10B80, symBinAddr: 0x2DFB8, symSize: 0x4 }
  - { offsetInCU: 0xBB18C, offset: 0x15951F, size: 0x8, addend: 0x0, symName: __ZNSt3__110__function6__funcIZN5agora3rtc9extension29FUExtensionDelegateAPIBindingEPNS4_19FUExtensionDelegateEEUlRKNS_12basic_stringIcNS_11char_traitsIcEENS_9allocatorIcEEEEE4_NSA_ISF_EEFiSE_EE18destroy_deallocateEv, symObjAddr: 0x10B84, symBinAddr: 0x2DFBC, symSize: 0x4 }
  - { offsetInCU: 0xBB1C1, offset: 0x159554, size: 0x8, addend: 0x0, symName: __ZNSt3__110__function6__funcIZN5agora3rtc9extension29FUExtensionDelegateAPIBindingEPNS4_19FUExtensionDelegateEEUlRKNS_12basic_stringIcNS_11char_traitsIcEENS_9allocatorIcEEEEE4_NSA_ISF_EEFiSE_EE18destroy_deallocateEv, symObjAddr: 0x10B84, symBinAddr: 0x2DFBC, symSize: 0x4 }
  - { offsetInCU: 0xBB1E3, offset: 0x159576, size: 0x8, addend: 0x0, symName: __ZNSt3__110__function6__funcIZN5agora3rtc9extension29FUExtensionDelegateAPIBindingEPNS4_19FUExtensionDelegateEEUlRKNS_12basic_stringIcNS_11char_traitsIcEENS_9allocatorIcEEEEE4_NSA_ISF_EEFiSE_EE18destroy_deallocateEv, symObjAddr: 0x10B84, symBinAddr: 0x2DFBC, symSize: 0x4 }
  - { offsetInCU: 0xBB20E, offset: 0x1595A1, size: 0x8, addend: 0x0, symName: __ZNSt3__110__function6__funcIZN5agora3rtc9extension29FUExtensionDelegateAPIBindingEPNS4_19FUExtensionDelegateEEUlRKNS_12basic_stringIcNS_11char_traitsIcEENS_9allocatorIcEEEEE4_NSA_ISF_EEFiSE_EE18destroy_deallocateEv, symObjAddr: 0x10B84, symBinAddr: 0x2DFBC, symSize: 0x4 }
  - { offsetInCU: 0xBB234, offset: 0x1595C7, size: 0x8, addend: 0x0, symName: __ZNSt3__110__function6__funcIZN5agora3rtc9extension29FUExtensionDelegateAPIBindingEPNS4_19FUExtensionDelegateEEUlRKNS_12basic_stringIcNS_11char_traitsIcEENS_9allocatorIcEEEEE4_NSA_ISF_EEFiSE_EE18destroy_deallocateEv, symObjAddr: 0x10B84, symBinAddr: 0x2DFBC, symSize: 0x4 }
  - { offsetInCU: 0xBB2AF, offset: 0x159642, size: 0x8, addend: 0x0, symName: __ZNSt3__110__function6__funcIZN5agora3rtc9extension29FUExtensionDelegateAPIBindingEPNS4_19FUExtensionDelegateEEUlRKNS_12basic_stringIcNS_11char_traitsIcEENS_9allocatorIcEEEEE4_NSA_ISF_EEFiSE_EEclESE_, symObjAddr: 0x10B88, symBinAddr: 0x2DFC0, symSize: 0x8 }
  - { offsetInCU: 0xBB36C, offset: 0x1596FF, size: 0x8, addend: 0x0, symName: __ZZN5agora3rtc9extension29FUExtensionDelegateAPIBindingEPNS1_19FUExtensionDelegateEENKUlRKNSt3__112basic_stringIcNS4_11char_traitsIcEENS4_9allocatorIcEEEEE4_clESC_, symObjAddr: 0x10BD8, symBinAddr: 0x2E010, symSize: 0x178 }
  - { offsetInCU: 0xBB7BD, offset: 0x159B50, size: 0x8, addend: 0x0, symName: __ZNKSt3__110__function6__funcIZN5agora3rtc9extension29FUExtensionDelegateAPIBindingEPNS4_19FUExtensionDelegateEEUlRKNS_12basic_stringIcNS_11char_traitsIcEENS_9allocatorIcEEEEE4_NSA_ISF_EEFiSE_EE6targetERKSt9type_info, symObjAddr: 0x10B90, symBinAddr: 0x2DFC8, symSize: 0x3C }
  - { offsetInCU: 0xBB80B, offset: 0x159B9E, size: 0x8, addend: 0x0, symName: __ZNKSt3__110__function6__funcIZN5agora3rtc9extension29FUExtensionDelegateAPIBindingEPNS4_19FUExtensionDelegateEEUlRKNS_12basic_stringIcNS_11char_traitsIcEENS_9allocatorIcEEEEE4_NSA_ISF_EEFiSE_EE11target_typeEv, symObjAddr: 0x10BCC, symBinAddr: 0x2E004, symSize: 0xC }
  - { offsetInCU: 0xBB91F, offset: 0x159CB2, size: 0x8, addend: 0x0, symName: __ZN8nlohmann10basic_jsonINSt3__13mapENS1_6vectorENS1_12basic_stringIcNS1_11char_traitsIcEENS1_9allocatorIcEEEEbxydS7_NS_14adl_serializerENS3_IhNS7_IhEEEEE4findIRA7_KcEENS_6detail9iter_implISD_EEOT_, symObjAddr: 0x10D50, symBinAddr: 0x2E188, symSize: 0x5C }
  - { offsetInCU: 0xBBA68, offset: 0x159DFB, size: 0x8, addend: 0x0, symName: __ZNSt3__16__treeINS_12__value_typeINS_12basic_stringIcNS_11char_traitsIcEENS_9allocatorIcEEEEN8nlohmann10basic_jsonINS_3mapENS_6vectorES7_bxydS5_NS8_14adl_serializerENSB_IhNS5_IhEEEEEEEENS_19__map_value_compareIS7_SG_NS_4lessIvEELb1EEENS5_ISG_EEE4findIA7_cEENS_15__tree_iteratorISG_PNS_11__tree_nodeISG_PvEElEERKT_, symObjAddr: 0x10DAC, symBinAddr: 0x2E1E4, symSize: 0x84 }
  - { offsetInCU: 0xBBD4A, offset: 0x15A0DD, size: 0x8, addend: 0x0, symName: __ZNSt3__110__function6__funcIZN5agora3rtc9extension29FUExtensionDelegateAPIBindingEPNS4_19FUExtensionDelegateEEUlRKNS_12basic_stringIcNS_11char_traitsIcEENS_9allocatorIcEEEEE5_NSA_ISF_EEFiSE_EED1Ev, symObjAddr: 0x10F3C, symBinAddr: 0x2E374, symSize: 0x4 }
  - { offsetInCU: 0xBBD76, offset: 0x15A109, size: 0x8, addend: 0x0, symName: __ZNSt3__110__function6__funcIZN5agora3rtc9extension29FUExtensionDelegateAPIBindingEPNS4_19FUExtensionDelegateEEUlRKNS_12basic_stringIcNS_11char_traitsIcEENS_9allocatorIcEEEEE5_NSA_ISF_EEFiSE_EED0Ev, symObjAddr: 0x10F40, symBinAddr: 0x2E378, symSize: 0x4 }
  - { offsetInCU: 0xBBF7A, offset: 0x15A30D, size: 0x8, addend: 0x0, symName: __ZNKSt3__110__function6__funcIZN5agora3rtc9extension29FUExtensionDelegateAPIBindingEPNS4_19FUExtensionDelegateEEUlRKNS_12basic_stringIcNS_11char_traitsIcEENS_9allocatorIcEEEEE5_NSA_ISF_EEFiSE_EE7__cloneEv, symObjAddr: 0x10F44, symBinAddr: 0x2E37C, symSize: 0x34 }
  - { offsetInCU: 0xBC26D, offset: 0x15A600, size: 0x8, addend: 0x0, symName: __ZNKSt3__110__function6__funcIZN5agora3rtc9extension29FUExtensionDelegateAPIBindingEPNS4_19FUExtensionDelegateEEUlRKNS_12basic_stringIcNS_11char_traitsIcEENS_9allocatorIcEEEEE5_NSA_ISF_EEFiSE_EE7__cloneEPNS0_6__baseISH_EE, symObjAddr: 0x10F78, symBinAddr: 0x2E3B0, symSize: 0x14 }
  - { offsetInCU: 0xBC2A4, offset: 0x15A637, size: 0x8, addend: 0x0, symName: __ZNKSt3__110__function6__funcIZN5agora3rtc9extension29FUExtensionDelegateAPIBindingEPNS4_19FUExtensionDelegateEEUlRKNS_12basic_stringIcNS_11char_traitsIcEENS_9allocatorIcEEEEE5_NSA_ISF_EEFiSE_EE7__cloneEPNS0_6__baseISH_EE, symObjAddr: 0x10F78, symBinAddr: 0x2E3B0, symSize: 0x14 }
  - { offsetInCU: 0xBC2D2, offset: 0x15A665, size: 0x8, addend: 0x0, symName: __ZNKSt3__110__function6__funcIZN5agora3rtc9extension29FUExtensionDelegateAPIBindingEPNS4_19FUExtensionDelegateEEUlRKNS_12basic_stringIcNS_11char_traitsIcEENS_9allocatorIcEEEEE5_NSA_ISF_EEFiSE_EE7__cloneEPNS0_6__baseISH_EE, symObjAddr: 0x10F78, symBinAddr: 0x2E3B0, symSize: 0x14 }
  - { offsetInCU: 0xBC300, offset: 0x15A693, size: 0x8, addend: 0x0, symName: __ZNKSt3__110__function6__funcIZN5agora3rtc9extension29FUExtensionDelegateAPIBindingEPNS4_19FUExtensionDelegateEEUlRKNS_12basic_stringIcNS_11char_traitsIcEENS_9allocatorIcEEEEE5_NSA_ISF_EEFiSE_EE7__cloneEPNS0_6__baseISH_EE, symObjAddr: 0x10F78, symBinAddr: 0x2E3B0, symSize: 0x14 }
  - { offsetInCU: 0xBC315, offset: 0x15A6A8, size: 0x8, addend: 0x0, symName: __ZNKSt3__110__function6__funcIZN5agora3rtc9extension29FUExtensionDelegateAPIBindingEPNS4_19FUExtensionDelegateEEUlRKNS_12basic_stringIcNS_11char_traitsIcEENS_9allocatorIcEEEEE5_NSA_ISF_EEFiSE_EE7__cloneEPNS0_6__baseISH_EE, symObjAddr: 0x10F78, symBinAddr: 0x2E3B0, symSize: 0x14 }
  - { offsetInCU: 0xBC329, offset: 0x15A6BC, size: 0x8, addend: 0x0, symName: __ZNKSt3__110__function6__funcIZN5agora3rtc9extension29FUExtensionDelegateAPIBindingEPNS4_19FUExtensionDelegateEEUlRKNS_12basic_stringIcNS_11char_traitsIcEENS_9allocatorIcEEEEE5_NSA_ISF_EEFiSE_EE7__cloneEPNS0_6__baseISH_EE, symObjAddr: 0x10F78, symBinAddr: 0x2E3B0, symSize: 0x14 }
  - { offsetInCU: 0xBC33D, offset: 0x15A6D0, size: 0x8, addend: 0x0, symName: __ZNKSt3__110__function6__funcIZN5agora3rtc9extension29FUExtensionDelegateAPIBindingEPNS4_19FUExtensionDelegateEEUlRKNS_12basic_stringIcNS_11char_traitsIcEENS_9allocatorIcEEEEE5_NSA_ISF_EEFiSE_EE7__cloneEPNS0_6__baseISH_EE, symObjAddr: 0x10F78, symBinAddr: 0x2E3B0, symSize: 0x14 }
  - { offsetInCU: 0xBC351, offset: 0x15A6E4, size: 0x8, addend: 0x0, symName: __ZNKSt3__110__function6__funcIZN5agora3rtc9extension29FUExtensionDelegateAPIBindingEPNS4_19FUExtensionDelegateEEUlRKNS_12basic_stringIcNS_11char_traitsIcEENS_9allocatorIcEEEEE5_NSA_ISF_EEFiSE_EE7__cloneEPNS0_6__baseISH_EE, symObjAddr: 0x10F78, symBinAddr: 0x2E3B0, symSize: 0x14 }
  - { offsetInCU: 0xBC36A, offset: 0x15A6FD, size: 0x8, addend: 0x0, symName: __ZNSt3__110__function6__funcIZN5agora3rtc9extension29FUExtensionDelegateAPIBindingEPNS4_19FUExtensionDelegateEEUlRKNS_12basic_stringIcNS_11char_traitsIcEENS_9allocatorIcEEEEE5_NSA_ISF_EEFiSE_EE7destroyEv, symObjAddr: 0x10F8C, symBinAddr: 0x2E3C4, symSize: 0x4 }
  - { offsetInCU: 0xBC3BD, offset: 0x15A750, size: 0x8, addend: 0x0, symName: __ZNSt3__110__function6__funcIZN5agora3rtc9extension29FUExtensionDelegateAPIBindingEPNS4_19FUExtensionDelegateEEUlRKNS_12basic_stringIcNS_11char_traitsIcEENS_9allocatorIcEEEEE5_NSA_ISF_EEFiSE_EE18destroy_deallocateEv, symObjAddr: 0x10F90, symBinAddr: 0x2E3C8, symSize: 0x4 }
  - { offsetInCU: 0xBC3F2, offset: 0x15A785, size: 0x8, addend: 0x0, symName: __ZNSt3__110__function6__funcIZN5agora3rtc9extension29FUExtensionDelegateAPIBindingEPNS4_19FUExtensionDelegateEEUlRKNS_12basic_stringIcNS_11char_traitsIcEENS_9allocatorIcEEEEE5_NSA_ISF_EEFiSE_EE18destroy_deallocateEv, symObjAddr: 0x10F90, symBinAddr: 0x2E3C8, symSize: 0x4 }
  - { offsetInCU: 0xBC414, offset: 0x15A7A7, size: 0x8, addend: 0x0, symName: __ZNSt3__110__function6__funcIZN5agora3rtc9extension29FUExtensionDelegateAPIBindingEPNS4_19FUExtensionDelegateEEUlRKNS_12basic_stringIcNS_11char_traitsIcEENS_9allocatorIcEEEEE5_NSA_ISF_EEFiSE_EE18destroy_deallocateEv, symObjAddr: 0x10F90, symBinAddr: 0x2E3C8, symSize: 0x4 }
  - { offsetInCU: 0xBC43F, offset: 0x15A7D2, size: 0x8, addend: 0x0, symName: __ZNSt3__110__function6__funcIZN5agora3rtc9extension29FUExtensionDelegateAPIBindingEPNS4_19FUExtensionDelegateEEUlRKNS_12basic_stringIcNS_11char_traitsIcEENS_9allocatorIcEEEEE5_NSA_ISF_EEFiSE_EE18destroy_deallocateEv, symObjAddr: 0x10F90, symBinAddr: 0x2E3C8, symSize: 0x4 }
  - { offsetInCU: 0xBC465, offset: 0x15A7F8, size: 0x8, addend: 0x0, symName: __ZNSt3__110__function6__funcIZN5agora3rtc9extension29FUExtensionDelegateAPIBindingEPNS4_19FUExtensionDelegateEEUlRKNS_12basic_stringIcNS_11char_traitsIcEENS_9allocatorIcEEEEE5_NSA_ISF_EEFiSE_EE18destroy_deallocateEv, symObjAddr: 0x10F90, symBinAddr: 0x2E3C8, symSize: 0x4 }
  - { offsetInCU: 0xBC4E0, offset: 0x15A873, size: 0x8, addend: 0x0, symName: __ZNSt3__110__function6__funcIZN5agora3rtc9extension29FUExtensionDelegateAPIBindingEPNS4_19FUExtensionDelegateEEUlRKNS_12basic_stringIcNS_11char_traitsIcEENS_9allocatorIcEEEEE5_NSA_ISF_EEFiSE_EEclESE_, symObjAddr: 0x10F94, symBinAddr: 0x2E3CC, symSize: 0x8 }
  - { offsetInCU: 0xBC59D, offset: 0x15A930, size: 0x8, addend: 0x0, symName: __ZZN5agora3rtc9extension29FUExtensionDelegateAPIBindingEPNS1_19FUExtensionDelegateEENKUlRKNSt3__112basic_stringIcNS4_11char_traitsIcEENS4_9allocatorIcEEEEE5_clESC_, symObjAddr: 0x10FE4, symBinAddr: 0x2E41C, symSize: 0x178 }
  - { offsetInCU: 0xBC9F3, offset: 0x15AD86, size: 0x8, addend: 0x0, symName: __ZNKSt3__110__function6__funcIZN5agora3rtc9extension29FUExtensionDelegateAPIBindingEPNS4_19FUExtensionDelegateEEUlRKNS_12basic_stringIcNS_11char_traitsIcEENS_9allocatorIcEEEEE5_NSA_ISF_EEFiSE_EE6targetERKSt9type_info, symObjAddr: 0x10F9C, symBinAddr: 0x2E3D4, symSize: 0x3C }
  - { offsetInCU: 0xBCA41, offset: 0x15ADD4, size: 0x8, addend: 0x0, symName: __ZNKSt3__110__function6__funcIZN5agora3rtc9extension29FUExtensionDelegateAPIBindingEPNS4_19FUExtensionDelegateEEUlRKNS_12basic_stringIcNS_11char_traitsIcEENS_9allocatorIcEEEEE5_NSA_ISF_EEFiSE_EE11target_typeEv, symObjAddr: 0x10FD8, symBinAddr: 0x2E410, symSize: 0xC }
  - { offsetInCU: 0xBCA75, offset: 0x15AE08, size: 0x8, addend: 0x0, symName: __ZN8nlohmann10basic_jsonINSt3__13mapENS1_6vectorENS1_12basic_stringIcNS1_11char_traitsIcEENS1_9allocatorIcEEEEbxydS7_NS_14adl_serializerENS3_IhNS7_IhEEEEE4findIRA2_KcEENS_6detail9iter_implISD_EEOT_, symObjAddr: 0x1115C, symBinAddr: 0x2E594, symSize: 0x5C }
  - { offsetInCU: 0xBCBBE, offset: 0x15AF51, size: 0x8, addend: 0x0, symName: __ZNSt3__16__treeINS_12__value_typeINS_12basic_stringIcNS_11char_traitsIcEENS_9allocatorIcEEEEN8nlohmann10basic_jsonINS_3mapENS_6vectorES7_bxydS5_NS8_14adl_serializerENSB_IhNS5_IhEEEEEEEENS_19__map_value_compareIS7_SG_NS_4lessIvEELb1EEENS5_ISG_EEE4findIA2_cEENS_15__tree_iteratorISG_PNS_11__tree_nodeISG_PvEElEERKT_, symObjAddr: 0x111B8, symBinAddr: 0x2E5F0, symSize: 0x84 }
  - { offsetInCU: 0xBCE8A, offset: 0x15B21D, size: 0x8, addend: 0x0, symName: __ZNSt3__110__function6__funcIZN5agora3rtc9extension29FUExtensionDelegateAPIBindingEPNS4_19FUExtensionDelegateEEUlRKNS_12basic_stringIcNS_11char_traitsIcEENS_9allocatorIcEEEEE6_NSA_ISF_EEFiSE_EED1Ev, symObjAddr: 0x1123C, symBinAddr: 0x2E674, symSize: 0x4 }
  - { offsetInCU: 0xBCEB6, offset: 0x15B249, size: 0x8, addend: 0x0, symName: __ZNSt3__110__function6__funcIZN5agora3rtc9extension29FUExtensionDelegateAPIBindingEPNS4_19FUExtensionDelegateEEUlRKNS_12basic_stringIcNS_11char_traitsIcEENS_9allocatorIcEEEEE6_NSA_ISF_EEFiSE_EED0Ev, symObjAddr: 0x11240, symBinAddr: 0x2E678, symSize: 0x4 }
  - { offsetInCU: 0xBD0BA, offset: 0x15B44D, size: 0x8, addend: 0x0, symName: __ZNKSt3__110__function6__funcIZN5agora3rtc9extension29FUExtensionDelegateAPIBindingEPNS4_19FUExtensionDelegateEEUlRKNS_12basic_stringIcNS_11char_traitsIcEENS_9allocatorIcEEEEE6_NSA_ISF_EEFiSE_EE7__cloneEv, symObjAddr: 0x11244, symBinAddr: 0x2E67C, symSize: 0x34 }
  - { offsetInCU: 0xBD3AD, offset: 0x15B740, size: 0x8, addend: 0x0, symName: __ZNKSt3__110__function6__funcIZN5agora3rtc9extension29FUExtensionDelegateAPIBindingEPNS4_19FUExtensionDelegateEEUlRKNS_12basic_stringIcNS_11char_traitsIcEENS_9allocatorIcEEEEE6_NSA_ISF_EEFiSE_EE7__cloneEPNS0_6__baseISH_EE, symObjAddr: 0x11278, symBinAddr: 0x2E6B0, symSize: 0x14 }
  - { offsetInCU: 0xBD3E4, offset: 0x15B777, size: 0x8, addend: 0x0, symName: __ZNKSt3__110__function6__funcIZN5agora3rtc9extension29FUExtensionDelegateAPIBindingEPNS4_19FUExtensionDelegateEEUlRKNS_12basic_stringIcNS_11char_traitsIcEENS_9allocatorIcEEEEE6_NSA_ISF_EEFiSE_EE7__cloneEPNS0_6__baseISH_EE, symObjAddr: 0x11278, symBinAddr: 0x2E6B0, symSize: 0x14 }
  - { offsetInCU: 0xBD412, offset: 0x15B7A5, size: 0x8, addend: 0x0, symName: __ZNKSt3__110__function6__funcIZN5agora3rtc9extension29FUExtensionDelegateAPIBindingEPNS4_19FUExtensionDelegateEEUlRKNS_12basic_stringIcNS_11char_traitsIcEENS_9allocatorIcEEEEE6_NSA_ISF_EEFiSE_EE7__cloneEPNS0_6__baseISH_EE, symObjAddr: 0x11278, symBinAddr: 0x2E6B0, symSize: 0x14 }
  - { offsetInCU: 0xBD440, offset: 0x15B7D3, size: 0x8, addend: 0x0, symName: __ZNKSt3__110__function6__funcIZN5agora3rtc9extension29FUExtensionDelegateAPIBindingEPNS4_19FUExtensionDelegateEEUlRKNS_12basic_stringIcNS_11char_traitsIcEENS_9allocatorIcEEEEE6_NSA_ISF_EEFiSE_EE7__cloneEPNS0_6__baseISH_EE, symObjAddr: 0x11278, symBinAddr: 0x2E6B0, symSize: 0x14 }
  - { offsetInCU: 0xBD455, offset: 0x15B7E8, size: 0x8, addend: 0x0, symName: __ZNKSt3__110__function6__funcIZN5agora3rtc9extension29FUExtensionDelegateAPIBindingEPNS4_19FUExtensionDelegateEEUlRKNS_12basic_stringIcNS_11char_traitsIcEENS_9allocatorIcEEEEE6_NSA_ISF_EEFiSE_EE7__cloneEPNS0_6__baseISH_EE, symObjAddr: 0x11278, symBinAddr: 0x2E6B0, symSize: 0x14 }
  - { offsetInCU: 0xBD469, offset: 0x15B7FC, size: 0x8, addend: 0x0, symName: __ZNKSt3__110__function6__funcIZN5agora3rtc9extension29FUExtensionDelegateAPIBindingEPNS4_19FUExtensionDelegateEEUlRKNS_12basic_stringIcNS_11char_traitsIcEENS_9allocatorIcEEEEE6_NSA_ISF_EEFiSE_EE7__cloneEPNS0_6__baseISH_EE, symObjAddr: 0x11278, symBinAddr: 0x2E6B0, symSize: 0x14 }
  - { offsetInCU: 0xBD47D, offset: 0x15B810, size: 0x8, addend: 0x0, symName: __ZNKSt3__110__function6__funcIZN5agora3rtc9extension29FUExtensionDelegateAPIBindingEPNS4_19FUExtensionDelegateEEUlRKNS_12basic_stringIcNS_11char_traitsIcEENS_9allocatorIcEEEEE6_NSA_ISF_EEFiSE_EE7__cloneEPNS0_6__baseISH_EE, symObjAddr: 0x11278, symBinAddr: 0x2E6B0, symSize: 0x14 }
  - { offsetInCU: 0xBD491, offset: 0x15B824, size: 0x8, addend: 0x0, symName: __ZNKSt3__110__function6__funcIZN5agora3rtc9extension29FUExtensionDelegateAPIBindingEPNS4_19FUExtensionDelegateEEUlRKNS_12basic_stringIcNS_11char_traitsIcEENS_9allocatorIcEEEEE6_NSA_ISF_EEFiSE_EE7__cloneEPNS0_6__baseISH_EE, symObjAddr: 0x11278, symBinAddr: 0x2E6B0, symSize: 0x14 }
  - { offsetInCU: 0xBD4AA, offset: 0x15B83D, size: 0x8, addend: 0x0, symName: __ZNSt3__110__function6__funcIZN5agora3rtc9extension29FUExtensionDelegateAPIBindingEPNS4_19FUExtensionDelegateEEUlRKNS_12basic_stringIcNS_11char_traitsIcEENS_9allocatorIcEEEEE6_NSA_ISF_EEFiSE_EE7destroyEv, symObjAddr: 0x1128C, symBinAddr: 0x2E6C4, symSize: 0x4 }
  - { offsetInCU: 0xBD4FD, offset: 0x15B890, size: 0x8, addend: 0x0, symName: __ZNSt3__110__function6__funcIZN5agora3rtc9extension29FUExtensionDelegateAPIBindingEPNS4_19FUExtensionDelegateEEUlRKNS_12basic_stringIcNS_11char_traitsIcEENS_9allocatorIcEEEEE6_NSA_ISF_EEFiSE_EE18destroy_deallocateEv, symObjAddr: 0x11290, symBinAddr: 0x2E6C8, symSize: 0x4 }
  - { offsetInCU: 0xBD532, offset: 0x15B8C5, size: 0x8, addend: 0x0, symName: __ZNSt3__110__function6__funcIZN5agora3rtc9extension29FUExtensionDelegateAPIBindingEPNS4_19FUExtensionDelegateEEUlRKNS_12basic_stringIcNS_11char_traitsIcEENS_9allocatorIcEEEEE6_NSA_ISF_EEFiSE_EE18destroy_deallocateEv, symObjAddr: 0x11290, symBinAddr: 0x2E6C8, symSize: 0x4 }
  - { offsetInCU: 0xBD554, offset: 0x15B8E7, size: 0x8, addend: 0x0, symName: __ZNSt3__110__function6__funcIZN5agora3rtc9extension29FUExtensionDelegateAPIBindingEPNS4_19FUExtensionDelegateEEUlRKNS_12basic_stringIcNS_11char_traitsIcEENS_9allocatorIcEEEEE6_NSA_ISF_EEFiSE_EE18destroy_deallocateEv, symObjAddr: 0x11290, symBinAddr: 0x2E6C8, symSize: 0x4 }
  - { offsetInCU: 0xBD57F, offset: 0x15B912, size: 0x8, addend: 0x0, symName: __ZNSt3__110__function6__funcIZN5agora3rtc9extension29FUExtensionDelegateAPIBindingEPNS4_19FUExtensionDelegateEEUlRKNS_12basic_stringIcNS_11char_traitsIcEENS_9allocatorIcEEEEE6_NSA_ISF_EEFiSE_EE18destroy_deallocateEv, symObjAddr: 0x11290, symBinAddr: 0x2E6C8, symSize: 0x4 }
  - { offsetInCU: 0xBD5A5, offset: 0x15B938, size: 0x8, addend: 0x0, symName: __ZNSt3__110__function6__funcIZN5agora3rtc9extension29FUExtensionDelegateAPIBindingEPNS4_19FUExtensionDelegateEEUlRKNS_12basic_stringIcNS_11char_traitsIcEENS_9allocatorIcEEEEE6_NSA_ISF_EEFiSE_EE18destroy_deallocateEv, symObjAddr: 0x11290, symBinAddr: 0x2E6C8, symSize: 0x4 }
  - { offsetInCU: 0xBD620, offset: 0x15B9B3, size: 0x8, addend: 0x0, symName: __ZNSt3__110__function6__funcIZN5agora3rtc9extension29FUExtensionDelegateAPIBindingEPNS4_19FUExtensionDelegateEEUlRKNS_12basic_stringIcNS_11char_traitsIcEENS_9allocatorIcEEEEE6_NSA_ISF_EEFiSE_EEclESE_, symObjAddr: 0x11294, symBinAddr: 0x2E6CC, symSize: 0x8 }
  - { offsetInCU: 0xBD6DD, offset: 0x15BA70, size: 0x8, addend: 0x0, symName: __ZZN5agora3rtc9extension29FUExtensionDelegateAPIBindingEPNS1_19FUExtensionDelegateEENKUlRKNSt3__112basic_stringIcNS4_11char_traitsIcEENS4_9allocatorIcEEEEE6_clESC_, symObjAddr: 0x112E4, symBinAddr: 0x2E71C, symSize: 0x288 }
  - { offsetInCU: 0xBE20D, offset: 0x15C5A0, size: 0x8, addend: 0x0, symName: __ZNKSt3__110__function6__funcIZN5agora3rtc9extension29FUExtensionDelegateAPIBindingEPNS4_19FUExtensionDelegateEEUlRKNS_12basic_stringIcNS_11char_traitsIcEENS_9allocatorIcEEEEE6_NSA_ISF_EEFiSE_EE6targetERKSt9type_info, symObjAddr: 0x1129C, symBinAddr: 0x2E6D4, symSize: 0x3C }
  - { offsetInCU: 0xBE25B, offset: 0x15C5EE, size: 0x8, addend: 0x0, symName: __ZNKSt3__110__function6__funcIZN5agora3rtc9extension29FUExtensionDelegateAPIBindingEPNS4_19FUExtensionDelegateEEUlRKNS_12basic_stringIcNS_11char_traitsIcEENS_9allocatorIcEEEEE6_NSA_ISF_EEFiSE_EE11target_typeEv, symObjAddr: 0x112D8, symBinAddr: 0x2E710, symSize: 0xC }
  - { offsetInCU: 0xBE284, offset: 0x15C617, size: 0x8, addend: 0x0, symName: __ZN8nlohmann10basic_jsonINSt3__13mapENS1_6vectorENS1_12basic_stringIcNS1_11char_traitsIcEENS1_9allocatorIcEEEEbxydS7_NS_14adl_serializerENS3_IhNS7_IhEEEEE4findIRA8_KcEENS_6detail9iter_implISD_EEOT_, symObjAddr: 0x1156C, symBinAddr: 0x2E9A4, symSize: 0x5C }
  - { offsetInCU: 0xBE3AD, offset: 0x15C740, size: 0x8, addend: 0x0, symName: __ZN8nlohmann10basic_jsonINSt3__13mapENS1_6vectorENS1_12basic_stringIcNS1_11char_traitsIcEENS1_9allocatorIcEEEEbxydS7_NS_14adl_serializerENS3_IhNS7_IhEEEEE4findIRA4_KcEENS_6detail9iter_implISD_EEOT_, symObjAddr: 0x115C8, symBinAddr: 0x2EA00, symSize: 0x5C }
  - { offsetInCU: 0xBE4F6, offset: 0x15C889, size: 0x8, addend: 0x0, symName: __ZNSt3__16__treeINS_12__value_typeINS_12basic_stringIcNS_11char_traitsIcEENS_9allocatorIcEEEEN8nlohmann10basic_jsonINS_3mapENS_6vectorES7_bxydS5_NS8_14adl_serializerENSB_IhNS5_IhEEEEEEEENS_19__map_value_compareIS7_SG_NS_4lessIvEELb1EEENS5_ISG_EEE4findIA8_cEENS_15__tree_iteratorISG_PNS_11__tree_nodeISG_PvEElEERKT_, symObjAddr: 0x11624, symBinAddr: 0x2EA5C, symSize: 0x84 }
  - { offsetInCU: 0xBE6BA, offset: 0x15CA4D, size: 0x8, addend: 0x0, symName: __ZNSt3__16__treeINS_12__value_typeINS_12basic_stringIcNS_11char_traitsIcEENS_9allocatorIcEEEEN8nlohmann10basic_jsonINS_3mapENS_6vectorES7_bxydS5_NS8_14adl_serializerENSB_IhNS5_IhEEEEEEEENS_19__map_value_compareIS7_SG_NS_4lessIvEELb1EEENS5_ISG_EEE4findIA4_cEENS_15__tree_iteratorISG_PNS_11__tree_nodeISG_PvEElEERKT_, symObjAddr: 0x116A8, symBinAddr: 0x2EAE0, symSize: 0x84 }
  - { offsetInCU: 0xBEAB9, offset: 0x15CE4C, size: 0x8, addend: 0x0, symName: __ZNSt3__110__function6__funcIZN5agora3rtc9extension29FUExtensionDelegateAPIBindingEPNS4_19FUExtensionDelegateEEUlRKNS_12basic_stringIcNS_11char_traitsIcEENS_9allocatorIcEEEEE7_NSA_ISF_EEFiSE_EED1Ev, symObjAddr: 0x1172C, symBinAddr: 0x2EB64, symSize: 0x4 }
  - { offsetInCU: 0xBEAE5, offset: 0x15CE78, size: 0x8, addend: 0x0, symName: __ZNSt3__110__function6__funcIZN5agora3rtc9extension29FUExtensionDelegateAPIBindingEPNS4_19FUExtensionDelegateEEUlRKNS_12basic_stringIcNS_11char_traitsIcEENS_9allocatorIcEEEEE7_NSA_ISF_EEFiSE_EED0Ev, symObjAddr: 0x11730, symBinAddr: 0x2EB68, symSize: 0x4 }
  - { offsetInCU: 0xBECE9, offset: 0x15D07C, size: 0x8, addend: 0x0, symName: __ZNKSt3__110__function6__funcIZN5agora3rtc9extension29FUExtensionDelegateAPIBindingEPNS4_19FUExtensionDelegateEEUlRKNS_12basic_stringIcNS_11char_traitsIcEENS_9allocatorIcEEEEE7_NSA_ISF_EEFiSE_EE7__cloneEv, symObjAddr: 0x11734, symBinAddr: 0x2EB6C, symSize: 0x34 }
  - { offsetInCU: 0xBEFDC, offset: 0x15D36F, size: 0x8, addend: 0x0, symName: __ZNKSt3__110__function6__funcIZN5agora3rtc9extension29FUExtensionDelegateAPIBindingEPNS4_19FUExtensionDelegateEEUlRKNS_12basic_stringIcNS_11char_traitsIcEENS_9allocatorIcEEEEE7_NSA_ISF_EEFiSE_EE7__cloneEPNS0_6__baseISH_EE, symObjAddr: 0x11768, symBinAddr: 0x2EBA0, symSize: 0x14 }
  - { offsetInCU: 0xBF013, offset: 0x15D3A6, size: 0x8, addend: 0x0, symName: __ZNKSt3__110__function6__funcIZN5agora3rtc9extension29FUExtensionDelegateAPIBindingEPNS4_19FUExtensionDelegateEEUlRKNS_12basic_stringIcNS_11char_traitsIcEENS_9allocatorIcEEEEE7_NSA_ISF_EEFiSE_EE7__cloneEPNS0_6__baseISH_EE, symObjAddr: 0x11768, symBinAddr: 0x2EBA0, symSize: 0x14 }
  - { offsetInCU: 0xBF041, offset: 0x15D3D4, size: 0x8, addend: 0x0, symName: __ZNKSt3__110__function6__funcIZN5agora3rtc9extension29FUExtensionDelegateAPIBindingEPNS4_19FUExtensionDelegateEEUlRKNS_12basic_stringIcNS_11char_traitsIcEENS_9allocatorIcEEEEE7_NSA_ISF_EEFiSE_EE7__cloneEPNS0_6__baseISH_EE, symObjAddr: 0x11768, symBinAddr: 0x2EBA0, symSize: 0x14 }
  - { offsetInCU: 0xBF06F, offset: 0x15D402, size: 0x8, addend: 0x0, symName: __ZNKSt3__110__function6__funcIZN5agora3rtc9extension29FUExtensionDelegateAPIBindingEPNS4_19FUExtensionDelegateEEUlRKNS_12basic_stringIcNS_11char_traitsIcEENS_9allocatorIcEEEEE7_NSA_ISF_EEFiSE_EE7__cloneEPNS0_6__baseISH_EE, symObjAddr: 0x11768, symBinAddr: 0x2EBA0, symSize: 0x14 }
  - { offsetInCU: 0xBF084, offset: 0x15D417, size: 0x8, addend: 0x0, symName: __ZNKSt3__110__function6__funcIZN5agora3rtc9extension29FUExtensionDelegateAPIBindingEPNS4_19FUExtensionDelegateEEUlRKNS_12basic_stringIcNS_11char_traitsIcEENS_9allocatorIcEEEEE7_NSA_ISF_EEFiSE_EE7__cloneEPNS0_6__baseISH_EE, symObjAddr: 0x11768, symBinAddr: 0x2EBA0, symSize: 0x14 }
  - { offsetInCU: 0xBF098, offset: 0x15D42B, size: 0x8, addend: 0x0, symName: __ZNKSt3__110__function6__funcIZN5agora3rtc9extension29FUExtensionDelegateAPIBindingEPNS4_19FUExtensionDelegateEEUlRKNS_12basic_stringIcNS_11char_traitsIcEENS_9allocatorIcEEEEE7_NSA_ISF_EEFiSE_EE7__cloneEPNS0_6__baseISH_EE, symObjAddr: 0x11768, symBinAddr: 0x2EBA0, symSize: 0x14 }
  - { offsetInCU: 0xBF0AC, offset: 0x15D43F, size: 0x8, addend: 0x0, symName: __ZNKSt3__110__function6__funcIZN5agora3rtc9extension29FUExtensionDelegateAPIBindingEPNS4_19FUExtensionDelegateEEUlRKNS_12basic_stringIcNS_11char_traitsIcEENS_9allocatorIcEEEEE7_NSA_ISF_EEFiSE_EE7__cloneEPNS0_6__baseISH_EE, symObjAddr: 0x11768, symBinAddr: 0x2EBA0, symSize: 0x14 }
  - { offsetInCU: 0xBF0C0, offset: 0x15D453, size: 0x8, addend: 0x0, symName: __ZNKSt3__110__function6__funcIZN5agora3rtc9extension29FUExtensionDelegateAPIBindingEPNS4_19FUExtensionDelegateEEUlRKNS_12basic_stringIcNS_11char_traitsIcEENS_9allocatorIcEEEEE7_NSA_ISF_EEFiSE_EE7__cloneEPNS0_6__baseISH_EE, symObjAddr: 0x11768, symBinAddr: 0x2EBA0, symSize: 0x14 }
  - { offsetInCU: 0xBF0D9, offset: 0x15D46C, size: 0x8, addend: 0x0, symName: __ZNSt3__110__function6__funcIZN5agora3rtc9extension29FUExtensionDelegateAPIBindingEPNS4_19FUExtensionDelegateEEUlRKNS_12basic_stringIcNS_11char_traitsIcEENS_9allocatorIcEEEEE7_NSA_ISF_EEFiSE_EE7destroyEv, symObjAddr: 0x1177C, symBinAddr: 0x2EBB4, symSize: 0x4 }
  - { offsetInCU: 0xBF12C, offset: 0x15D4BF, size: 0x8, addend: 0x0, symName: __ZNSt3__110__function6__funcIZN5agora3rtc9extension29FUExtensionDelegateAPIBindingEPNS4_19FUExtensionDelegateEEUlRKNS_12basic_stringIcNS_11char_traitsIcEENS_9allocatorIcEEEEE7_NSA_ISF_EEFiSE_EE18destroy_deallocateEv, symObjAddr: 0x11780, symBinAddr: 0x2EBB8, symSize: 0x4 }
  - { offsetInCU: 0xBF161, offset: 0x15D4F4, size: 0x8, addend: 0x0, symName: __ZNSt3__110__function6__funcIZN5agora3rtc9extension29FUExtensionDelegateAPIBindingEPNS4_19FUExtensionDelegateEEUlRKNS_12basic_stringIcNS_11char_traitsIcEENS_9allocatorIcEEEEE7_NSA_ISF_EEFiSE_EE18destroy_deallocateEv, symObjAddr: 0x11780, symBinAddr: 0x2EBB8, symSize: 0x4 }
  - { offsetInCU: 0xBF183, offset: 0x15D516, size: 0x8, addend: 0x0, symName: __ZNSt3__110__function6__funcIZN5agora3rtc9extension29FUExtensionDelegateAPIBindingEPNS4_19FUExtensionDelegateEEUlRKNS_12basic_stringIcNS_11char_traitsIcEENS_9allocatorIcEEEEE7_NSA_ISF_EEFiSE_EE18destroy_deallocateEv, symObjAddr: 0x11780, symBinAddr: 0x2EBB8, symSize: 0x4 }
  - { offsetInCU: 0xBF1AE, offset: 0x15D541, size: 0x8, addend: 0x0, symName: __ZNSt3__110__function6__funcIZN5agora3rtc9extension29FUExtensionDelegateAPIBindingEPNS4_19FUExtensionDelegateEEUlRKNS_12basic_stringIcNS_11char_traitsIcEENS_9allocatorIcEEEEE7_NSA_ISF_EEFiSE_EE18destroy_deallocateEv, symObjAddr: 0x11780, symBinAddr: 0x2EBB8, symSize: 0x4 }
  - { offsetInCU: 0xBF1D4, offset: 0x15D567, size: 0x8, addend: 0x0, symName: __ZNSt3__110__function6__funcIZN5agora3rtc9extension29FUExtensionDelegateAPIBindingEPNS4_19FUExtensionDelegateEEUlRKNS_12basic_stringIcNS_11char_traitsIcEENS_9allocatorIcEEEEE7_NSA_ISF_EEFiSE_EE18destroy_deallocateEv, symObjAddr: 0x11780, symBinAddr: 0x2EBB8, symSize: 0x4 }
  - { offsetInCU: 0xBF24F, offset: 0x15D5E2, size: 0x8, addend: 0x0, symName: __ZNSt3__110__function6__funcIZN5agora3rtc9extension29FUExtensionDelegateAPIBindingEPNS4_19FUExtensionDelegateEEUlRKNS_12basic_stringIcNS_11char_traitsIcEENS_9allocatorIcEEEEE7_NSA_ISF_EEFiSE_EEclESE_, symObjAddr: 0x11784, symBinAddr: 0x2EBBC, symSize: 0x8 }
  - { offsetInCU: 0xBF30C, offset: 0x15D69F, size: 0x8, addend: 0x0, symName: __ZZN5agora3rtc9extension29FUExtensionDelegateAPIBindingEPNS1_19FUExtensionDelegateEENKUlRKNSt3__112basic_stringIcNS4_11char_traitsIcEENS4_9allocatorIcEEEEE7_clESC_, symObjAddr: 0x117D4, symBinAddr: 0x2EC0C, symSize: 0x178 }
  - { offsetInCU: 0xBF762, offset: 0x15DAF5, size: 0x8, addend: 0x0, symName: __ZNKSt3__110__function6__funcIZN5agora3rtc9extension29FUExtensionDelegateAPIBindingEPNS4_19FUExtensionDelegateEEUlRKNS_12basic_stringIcNS_11char_traitsIcEENS_9allocatorIcEEEEE7_NSA_ISF_EEFiSE_EE6targetERKSt9type_info, symObjAddr: 0x1178C, symBinAddr: 0x2EBC4, symSize: 0x3C }
  - { offsetInCU: 0xBF7B0, offset: 0x15DB43, size: 0x8, addend: 0x0, symName: __ZNKSt3__110__function6__funcIZN5agora3rtc9extension29FUExtensionDelegateAPIBindingEPNS4_19FUExtensionDelegateEEUlRKNS_12basic_stringIcNS_11char_traitsIcEENS_9allocatorIcEEEEE7_NSA_ISF_EEFiSE_EE11target_typeEv, symObjAddr: 0x117C8, symBinAddr: 0x2EC00, symSize: 0xC }
  - { offsetInCU: 0xBF7D9, offset: 0x15DB6C, size: 0x8, addend: 0x0, symName: __ZNSt3__110__function6__funcIZN5agora3rtc9extension29FUExtensionDelegateAPIBindingEPNS4_19FUExtensionDelegateEEUlRKNS_12basic_stringIcNS_11char_traitsIcEENS_9allocatorIcEEEEE8_NSA_ISF_EEFiSE_EED1Ev, symObjAddr: 0x1194C, symBinAddr: 0x2ED84, symSize: 0x4 }
  - { offsetInCU: 0xBF805, offset: 0x15DB98, size: 0x8, addend: 0x0, symName: __ZNSt3__110__function6__funcIZN5agora3rtc9extension29FUExtensionDelegateAPIBindingEPNS4_19FUExtensionDelegateEEUlRKNS_12basic_stringIcNS_11char_traitsIcEENS_9allocatorIcEEEEE8_NSA_ISF_EEFiSE_EED0Ev, symObjAddr: 0x11950, symBinAddr: 0x2ED88, symSize: 0x4 }
  - { offsetInCU: 0xBFA09, offset: 0x15DD9C, size: 0x8, addend: 0x0, symName: __ZNKSt3__110__function6__funcIZN5agora3rtc9extension29FUExtensionDelegateAPIBindingEPNS4_19FUExtensionDelegateEEUlRKNS_12basic_stringIcNS_11char_traitsIcEENS_9allocatorIcEEEEE8_NSA_ISF_EEFiSE_EE7__cloneEv, symObjAddr: 0x11954, symBinAddr: 0x2ED8C, symSize: 0x34 }
  - { offsetInCU: 0xBFCFC, offset: 0x15E08F, size: 0x8, addend: 0x0, symName: __ZNKSt3__110__function6__funcIZN5agora3rtc9extension29FUExtensionDelegateAPIBindingEPNS4_19FUExtensionDelegateEEUlRKNS_12basic_stringIcNS_11char_traitsIcEENS_9allocatorIcEEEEE8_NSA_ISF_EEFiSE_EE7__cloneEPNS0_6__baseISH_EE, symObjAddr: 0x11988, symBinAddr: 0x2EDC0, symSize: 0x14 }
  - { offsetInCU: 0xBFD33, offset: 0x15E0C6, size: 0x8, addend: 0x0, symName: __ZNKSt3__110__function6__funcIZN5agora3rtc9extension29FUExtensionDelegateAPIBindingEPNS4_19FUExtensionDelegateEEUlRKNS_12basic_stringIcNS_11char_traitsIcEENS_9allocatorIcEEEEE8_NSA_ISF_EEFiSE_EE7__cloneEPNS0_6__baseISH_EE, symObjAddr: 0x11988, symBinAddr: 0x2EDC0, symSize: 0x14 }
  - { offsetInCU: 0xBFD61, offset: 0x15E0F4, size: 0x8, addend: 0x0, symName: __ZNKSt3__110__function6__funcIZN5agora3rtc9extension29FUExtensionDelegateAPIBindingEPNS4_19FUExtensionDelegateEEUlRKNS_12basic_stringIcNS_11char_traitsIcEENS_9allocatorIcEEEEE8_NSA_ISF_EEFiSE_EE7__cloneEPNS0_6__baseISH_EE, symObjAddr: 0x11988, symBinAddr: 0x2EDC0, symSize: 0x14 }
  - { offsetInCU: 0xBFD8F, offset: 0x15E122, size: 0x8, addend: 0x0, symName: __ZNKSt3__110__function6__funcIZN5agora3rtc9extension29FUExtensionDelegateAPIBindingEPNS4_19FUExtensionDelegateEEUlRKNS_12basic_stringIcNS_11char_traitsIcEENS_9allocatorIcEEEEE8_NSA_ISF_EEFiSE_EE7__cloneEPNS0_6__baseISH_EE, symObjAddr: 0x11988, symBinAddr: 0x2EDC0, symSize: 0x14 }
  - { offsetInCU: 0xBFDA4, offset: 0x15E137, size: 0x8, addend: 0x0, symName: __ZNKSt3__110__function6__funcIZN5agora3rtc9extension29FUExtensionDelegateAPIBindingEPNS4_19FUExtensionDelegateEEUlRKNS_12basic_stringIcNS_11char_traitsIcEENS_9allocatorIcEEEEE8_NSA_ISF_EEFiSE_EE7__cloneEPNS0_6__baseISH_EE, symObjAddr: 0x11988, symBinAddr: 0x2EDC0, symSize: 0x14 }
  - { offsetInCU: 0xBFDB8, offset: 0x15E14B, size: 0x8, addend: 0x0, symName: __ZNKSt3__110__function6__funcIZN5agora3rtc9extension29FUExtensionDelegateAPIBindingEPNS4_19FUExtensionDelegateEEUlRKNS_12basic_stringIcNS_11char_traitsIcEENS_9allocatorIcEEEEE8_NSA_ISF_EEFiSE_EE7__cloneEPNS0_6__baseISH_EE, symObjAddr: 0x11988, symBinAddr: 0x2EDC0, symSize: 0x14 }
  - { offsetInCU: 0xBFDCC, offset: 0x15E15F, size: 0x8, addend: 0x0, symName: __ZNKSt3__110__function6__funcIZN5agora3rtc9extension29FUExtensionDelegateAPIBindingEPNS4_19FUExtensionDelegateEEUlRKNS_12basic_stringIcNS_11char_traitsIcEENS_9allocatorIcEEEEE8_NSA_ISF_EEFiSE_EE7__cloneEPNS0_6__baseISH_EE, symObjAddr: 0x11988, symBinAddr: 0x2EDC0, symSize: 0x14 }
  - { offsetInCU: 0xBFDE0, offset: 0x15E173, size: 0x8, addend: 0x0, symName: __ZNKSt3__110__function6__funcIZN5agora3rtc9extension29FUExtensionDelegateAPIBindingEPNS4_19FUExtensionDelegateEEUlRKNS_12basic_stringIcNS_11char_traitsIcEENS_9allocatorIcEEEEE8_NSA_ISF_EEFiSE_EE7__cloneEPNS0_6__baseISH_EE, symObjAddr: 0x11988, symBinAddr: 0x2EDC0, symSize: 0x14 }
  - { offsetInCU: 0xBFDF9, offset: 0x15E18C, size: 0x8, addend: 0x0, symName: __ZNSt3__110__function6__funcIZN5agora3rtc9extension29FUExtensionDelegateAPIBindingEPNS4_19FUExtensionDelegateEEUlRKNS_12basic_stringIcNS_11char_traitsIcEENS_9allocatorIcEEEEE8_NSA_ISF_EEFiSE_EE7destroyEv, symObjAddr: 0x1199C, symBinAddr: 0x2EDD4, symSize: 0x4 }
  - { offsetInCU: 0xBFE4C, offset: 0x15E1DF, size: 0x8, addend: 0x0, symName: __ZNSt3__110__function6__funcIZN5agora3rtc9extension29FUExtensionDelegateAPIBindingEPNS4_19FUExtensionDelegateEEUlRKNS_12basic_stringIcNS_11char_traitsIcEENS_9allocatorIcEEEEE8_NSA_ISF_EEFiSE_EE18destroy_deallocateEv, symObjAddr: 0x119A0, symBinAddr: 0x2EDD8, symSize: 0x4 }
  - { offsetInCU: 0xBFE81, offset: 0x15E214, size: 0x8, addend: 0x0, symName: __ZNSt3__110__function6__funcIZN5agora3rtc9extension29FUExtensionDelegateAPIBindingEPNS4_19FUExtensionDelegateEEUlRKNS_12basic_stringIcNS_11char_traitsIcEENS_9allocatorIcEEEEE8_NSA_ISF_EEFiSE_EE18destroy_deallocateEv, symObjAddr: 0x119A0, symBinAddr: 0x2EDD8, symSize: 0x4 }
  - { offsetInCU: 0xBFEA3, offset: 0x15E236, size: 0x8, addend: 0x0, symName: __ZNSt3__110__function6__funcIZN5agora3rtc9extension29FUExtensionDelegateAPIBindingEPNS4_19FUExtensionDelegateEEUlRKNS_12basic_stringIcNS_11char_traitsIcEENS_9allocatorIcEEEEE8_NSA_ISF_EEFiSE_EE18destroy_deallocateEv, symObjAddr: 0x119A0, symBinAddr: 0x2EDD8, symSize: 0x4 }
  - { offsetInCU: 0xBFECE, offset: 0x15E261, size: 0x8, addend: 0x0, symName: __ZNSt3__110__function6__funcIZN5agora3rtc9extension29FUExtensionDelegateAPIBindingEPNS4_19FUExtensionDelegateEEUlRKNS_12basic_stringIcNS_11char_traitsIcEENS_9allocatorIcEEEEE8_NSA_ISF_EEFiSE_EE18destroy_deallocateEv, symObjAddr: 0x119A0, symBinAddr: 0x2EDD8, symSize: 0x4 }
  - { offsetInCU: 0xBFEF4, offset: 0x15E287, size: 0x8, addend: 0x0, symName: __ZNSt3__110__function6__funcIZN5agora3rtc9extension29FUExtensionDelegateAPIBindingEPNS4_19FUExtensionDelegateEEUlRKNS_12basic_stringIcNS_11char_traitsIcEENS_9allocatorIcEEEEE8_NSA_ISF_EEFiSE_EE18destroy_deallocateEv, symObjAddr: 0x119A0, symBinAddr: 0x2EDD8, symSize: 0x4 }
  - { offsetInCU: 0xBFF6F, offset: 0x15E302, size: 0x8, addend: 0x0, symName: __ZNSt3__110__function6__funcIZN5agora3rtc9extension29FUExtensionDelegateAPIBindingEPNS4_19FUExtensionDelegateEEUlRKNS_12basic_stringIcNS_11char_traitsIcEENS_9allocatorIcEEEEE8_NSA_ISF_EEFiSE_EEclESE_, symObjAddr: 0x119A4, symBinAddr: 0x2EDDC, symSize: 0x8 }
  - { offsetInCU: 0xC002C, offset: 0x15E3BF, size: 0x8, addend: 0x0, symName: __ZZN5agora3rtc9extension29FUExtensionDelegateAPIBindingEPNS1_19FUExtensionDelegateEENKUlRKNSt3__112basic_stringIcNS4_11char_traitsIcEENS4_9allocatorIcEEEEE8_clESC_, symObjAddr: 0x119F4, symBinAddr: 0x2EE2C, symSize: 0x170 }
  - { offsetInCU: 0xC049E, offset: 0x15E831, size: 0x8, addend: 0x0, symName: __ZNKSt3__110__function6__funcIZN5agora3rtc9extension29FUExtensionDelegateAPIBindingEPNS4_19FUExtensionDelegateEEUlRKNS_12basic_stringIcNS_11char_traitsIcEENS_9allocatorIcEEEEE8_NSA_ISF_EEFiSE_EE6targetERKSt9type_info, symObjAddr: 0x119AC, symBinAddr: 0x2EDE4, symSize: 0x3C }
  - { offsetInCU: 0xC04EC, offset: 0x15E87F, size: 0x8, addend: 0x0, symName: __ZNKSt3__110__function6__funcIZN5agora3rtc9extension29FUExtensionDelegateAPIBindingEPNS4_19FUExtensionDelegateEEUlRKNS_12basic_stringIcNS_11char_traitsIcEENS_9allocatorIcEEEEE8_NSA_ISF_EEFiSE_EE11target_typeEv, symObjAddr: 0x119E8, symBinAddr: 0x2EE20, symSize: 0xC }
  - { offsetInCU: 0xC052E, offset: 0x15E8C1, size: 0x8, addend: 0x0, symName: __ZN8nlohmann10basic_jsonINSt3__13mapENS1_6vectorENS1_12basic_stringIcNS1_11char_traitsIcEENS1_9allocatorIcEEEEbxydS7_NS_14adl_serializerENS3_IhNS7_IhEEEEE4findIRA6_KcEENS_6detail9iter_implISD_EEOT_, symObjAddr: 0x11B64, symBinAddr: 0x2EF9C, symSize: 0x5C }
  - { offsetInCU: 0xC0677, offset: 0x15EA0A, size: 0x8, addend: 0x0, symName: __ZNSt3__16__treeINS_12__value_typeINS_12basic_stringIcNS_11char_traitsIcEENS_9allocatorIcEEEEN8nlohmann10basic_jsonINS_3mapENS_6vectorES7_bxydS5_NS8_14adl_serializerENSB_IhNS5_IhEEEEEEEENS_19__map_value_compareIS7_SG_NS_4lessIvEELb1EEENS5_ISG_EEE4findIA6_cEENS_15__tree_iteratorISG_PNS_11__tree_nodeISG_PvEElEERKT_, symObjAddr: 0x11BC0, symBinAddr: 0x2EFF8, symSize: 0x84 }
  - { offsetInCU: 0xC0943, offset: 0x15ECD6, size: 0x8, addend: 0x0, symName: __ZNSt3__110__function6__funcIZN5agora3rtc9extension29FUExtensionDelegateAPIBindingEPNS4_19FUExtensionDelegateEEUlRKNS_12basic_stringIcNS_11char_traitsIcEENS_9allocatorIcEEEEE9_NSA_ISF_EEFiSE_EED1Ev, symObjAddr: 0x11C44, symBinAddr: 0x2F07C, symSize: 0x4 }
  - { offsetInCU: 0xC096F, offset: 0x15ED02, size: 0x8, addend: 0x0, symName: __ZNSt3__110__function6__funcIZN5agora3rtc9extension29FUExtensionDelegateAPIBindingEPNS4_19FUExtensionDelegateEEUlRKNS_12basic_stringIcNS_11char_traitsIcEENS_9allocatorIcEEEEE9_NSA_ISF_EEFiSE_EED0Ev, symObjAddr: 0x11C48, symBinAddr: 0x2F080, symSize: 0x4 }
  - { offsetInCU: 0xC0B73, offset: 0x15EF06, size: 0x8, addend: 0x0, symName: __ZNKSt3__110__function6__funcIZN5agora3rtc9extension29FUExtensionDelegateAPIBindingEPNS4_19FUExtensionDelegateEEUlRKNS_12basic_stringIcNS_11char_traitsIcEENS_9allocatorIcEEEEE9_NSA_ISF_EEFiSE_EE7__cloneEv, symObjAddr: 0x11C4C, symBinAddr: 0x2F084, symSize: 0x34 }
  - { offsetInCU: 0xC0E66, offset: 0x15F1F9, size: 0x8, addend: 0x0, symName: __ZNKSt3__110__function6__funcIZN5agora3rtc9extension29FUExtensionDelegateAPIBindingEPNS4_19FUExtensionDelegateEEUlRKNS_12basic_stringIcNS_11char_traitsIcEENS_9allocatorIcEEEEE9_NSA_ISF_EEFiSE_EE7__cloneEPNS0_6__baseISH_EE, symObjAddr: 0x11C80, symBinAddr: 0x2F0B8, symSize: 0x14 }
  - { offsetInCU: 0xC0E9D, offset: 0x15F230, size: 0x8, addend: 0x0, symName: __ZNKSt3__110__function6__funcIZN5agora3rtc9extension29FUExtensionDelegateAPIBindingEPNS4_19FUExtensionDelegateEEUlRKNS_12basic_stringIcNS_11char_traitsIcEENS_9allocatorIcEEEEE9_NSA_ISF_EEFiSE_EE7__cloneEPNS0_6__baseISH_EE, symObjAddr: 0x11C80, symBinAddr: 0x2F0B8, symSize: 0x14 }
  - { offsetInCU: 0xC0ECB, offset: 0x15F25E, size: 0x8, addend: 0x0, symName: __ZNKSt3__110__function6__funcIZN5agora3rtc9extension29FUExtensionDelegateAPIBindingEPNS4_19FUExtensionDelegateEEUlRKNS_12basic_stringIcNS_11char_traitsIcEENS_9allocatorIcEEEEE9_NSA_ISF_EEFiSE_EE7__cloneEPNS0_6__baseISH_EE, symObjAddr: 0x11C80, symBinAddr: 0x2F0B8, symSize: 0x14 }
  - { offsetInCU: 0xC0EF9, offset: 0x15F28C, size: 0x8, addend: 0x0, symName: __ZNKSt3__110__function6__funcIZN5agora3rtc9extension29FUExtensionDelegateAPIBindingEPNS4_19FUExtensionDelegateEEUlRKNS_12basic_stringIcNS_11char_traitsIcEENS_9allocatorIcEEEEE9_NSA_ISF_EEFiSE_EE7__cloneEPNS0_6__baseISH_EE, symObjAddr: 0x11C80, symBinAddr: 0x2F0B8, symSize: 0x14 }
  - { offsetInCU: 0xC0F0E, offset: 0x15F2A1, size: 0x8, addend: 0x0, symName: __ZNKSt3__110__function6__funcIZN5agora3rtc9extension29FUExtensionDelegateAPIBindingEPNS4_19FUExtensionDelegateEEUlRKNS_12basic_stringIcNS_11char_traitsIcEENS_9allocatorIcEEEEE9_NSA_ISF_EEFiSE_EE7__cloneEPNS0_6__baseISH_EE, symObjAddr: 0x11C80, symBinAddr: 0x2F0B8, symSize: 0x14 }
  - { offsetInCU: 0xC0F22, offset: 0x15F2B5, size: 0x8, addend: 0x0, symName: __ZNKSt3__110__function6__funcIZN5agora3rtc9extension29FUExtensionDelegateAPIBindingEPNS4_19FUExtensionDelegateEEUlRKNS_12basic_stringIcNS_11char_traitsIcEENS_9allocatorIcEEEEE9_NSA_ISF_EEFiSE_EE7__cloneEPNS0_6__baseISH_EE, symObjAddr: 0x11C80, symBinAddr: 0x2F0B8, symSize: 0x14 }
  - { offsetInCU: 0xC0F36, offset: 0x15F2C9, size: 0x8, addend: 0x0, symName: __ZNKSt3__110__function6__funcIZN5agora3rtc9extension29FUExtensionDelegateAPIBindingEPNS4_19FUExtensionDelegateEEUlRKNS_12basic_stringIcNS_11char_traitsIcEENS_9allocatorIcEEEEE9_NSA_ISF_EEFiSE_EE7__cloneEPNS0_6__baseISH_EE, symObjAddr: 0x11C80, symBinAddr: 0x2F0B8, symSize: 0x14 }
  - { offsetInCU: 0xC0F4A, offset: 0x15F2DD, size: 0x8, addend: 0x0, symName: __ZNKSt3__110__function6__funcIZN5agora3rtc9extension29FUExtensionDelegateAPIBindingEPNS4_19FUExtensionDelegateEEUlRKNS_12basic_stringIcNS_11char_traitsIcEENS_9allocatorIcEEEEE9_NSA_ISF_EEFiSE_EE7__cloneEPNS0_6__baseISH_EE, symObjAddr: 0x11C80, symBinAddr: 0x2F0B8, symSize: 0x14 }
  - { offsetInCU: 0xC0F63, offset: 0x15F2F6, size: 0x8, addend: 0x0, symName: __ZNSt3__110__function6__funcIZN5agora3rtc9extension29FUExtensionDelegateAPIBindingEPNS4_19FUExtensionDelegateEEUlRKNS_12basic_stringIcNS_11char_traitsIcEENS_9allocatorIcEEEEE9_NSA_ISF_EEFiSE_EE7destroyEv, symObjAddr: 0x11C94, symBinAddr: 0x2F0CC, symSize: 0x4 }
  - { offsetInCU: 0xC0FB6, offset: 0x15F349, size: 0x8, addend: 0x0, symName: __ZNSt3__110__function6__funcIZN5agora3rtc9extension29FUExtensionDelegateAPIBindingEPNS4_19FUExtensionDelegateEEUlRKNS_12basic_stringIcNS_11char_traitsIcEENS_9allocatorIcEEEEE9_NSA_ISF_EEFiSE_EE18destroy_deallocateEv, symObjAddr: 0x11C98, symBinAddr: 0x2F0D0, symSize: 0x4 }
  - { offsetInCU: 0xC0FEB, offset: 0x15F37E, size: 0x8, addend: 0x0, symName: __ZNSt3__110__function6__funcIZN5agora3rtc9extension29FUExtensionDelegateAPIBindingEPNS4_19FUExtensionDelegateEEUlRKNS_12basic_stringIcNS_11char_traitsIcEENS_9allocatorIcEEEEE9_NSA_ISF_EEFiSE_EE18destroy_deallocateEv, symObjAddr: 0x11C98, symBinAddr: 0x2F0D0, symSize: 0x4 }
  - { offsetInCU: 0xC100D, offset: 0x15F3A0, size: 0x8, addend: 0x0, symName: __ZNSt3__110__function6__funcIZN5agora3rtc9extension29FUExtensionDelegateAPIBindingEPNS4_19FUExtensionDelegateEEUlRKNS_12basic_stringIcNS_11char_traitsIcEENS_9allocatorIcEEEEE9_NSA_ISF_EEFiSE_EE18destroy_deallocateEv, symObjAddr: 0x11C98, symBinAddr: 0x2F0D0, symSize: 0x4 }
  - { offsetInCU: 0xC1038, offset: 0x15F3CB, size: 0x8, addend: 0x0, symName: __ZNSt3__110__function6__funcIZN5agora3rtc9extension29FUExtensionDelegateAPIBindingEPNS4_19FUExtensionDelegateEEUlRKNS_12basic_stringIcNS_11char_traitsIcEENS_9allocatorIcEEEEE9_NSA_ISF_EEFiSE_EE18destroy_deallocateEv, symObjAddr: 0x11C98, symBinAddr: 0x2F0D0, symSize: 0x4 }
  - { offsetInCU: 0xC105E, offset: 0x15F3F1, size: 0x8, addend: 0x0, symName: __ZNSt3__110__function6__funcIZN5agora3rtc9extension29FUExtensionDelegateAPIBindingEPNS4_19FUExtensionDelegateEEUlRKNS_12basic_stringIcNS_11char_traitsIcEENS_9allocatorIcEEEEE9_NSA_ISF_EEFiSE_EE18destroy_deallocateEv, symObjAddr: 0x11C98, symBinAddr: 0x2F0D0, symSize: 0x4 }
  - { offsetInCU: 0xC10D9, offset: 0x15F46C, size: 0x8, addend: 0x0, symName: __ZNSt3__110__function6__funcIZN5agora3rtc9extension29FUExtensionDelegateAPIBindingEPNS4_19FUExtensionDelegateEEUlRKNS_12basic_stringIcNS_11char_traitsIcEENS_9allocatorIcEEEEE9_NSA_ISF_EEFiSE_EEclESE_, symObjAddr: 0x11C9C, symBinAddr: 0x2F0D4, symSize: 0x8 }
  - { offsetInCU: 0xC1196, offset: 0x15F529, size: 0x8, addend: 0x0, symName: __ZZN5agora3rtc9extension29FUExtensionDelegateAPIBindingEPNS1_19FUExtensionDelegateEENKUlRKNSt3__112basic_stringIcNS4_11char_traitsIcEENS4_9allocatorIcEEEEE9_clESC_, symObjAddr: 0x11CEC, symBinAddr: 0x2F124, symSize: 0x170 }
  - { offsetInCU: 0xC1609, offset: 0x15F99C, size: 0x8, addend: 0x0, symName: __ZNKSt3__110__function6__funcIZN5agora3rtc9extension29FUExtensionDelegateAPIBindingEPNS4_19FUExtensionDelegateEEUlRKNS_12basic_stringIcNS_11char_traitsIcEENS_9allocatorIcEEEEE9_NSA_ISF_EEFiSE_EE6targetERKSt9type_info, symObjAddr: 0x11CA4, symBinAddr: 0x2F0DC, symSize: 0x3C }
  - { offsetInCU: 0xC1657, offset: 0x15F9EA, size: 0x8, addend: 0x0, symName: __ZNKSt3__110__function6__funcIZN5agora3rtc9extension29FUExtensionDelegateAPIBindingEPNS4_19FUExtensionDelegateEEUlRKNS_12basic_stringIcNS_11char_traitsIcEENS_9allocatorIcEEEEE9_NSA_ISF_EEFiSE_EE11target_typeEv, symObjAddr: 0x11CE0, symBinAddr: 0x2F118, symSize: 0xC }
  - { offsetInCU: 0xC1752, offset: 0x15FAE5, size: 0x8, addend: 0x0, symName: __ZNSt3__110__function6__funcIZN5agora3rtc9extension29FUExtensionDelegateAPIBindingEPNS4_19FUExtensionDelegateEEUlRKNS_12basic_stringIcNS_11char_traitsIcEENS_9allocatorIcEEEEE10_NSA_ISF_EEFiSE_EED1Ev, symObjAddr: 0x11FB8, symBinAddr: 0x2F3F0, symSize: 0x4 }
  - { offsetInCU: 0xC177E, offset: 0x15FB11, size: 0x8, addend: 0x0, symName: __ZNSt3__110__function6__funcIZN5agora3rtc9extension29FUExtensionDelegateAPIBindingEPNS4_19FUExtensionDelegateEEUlRKNS_12basic_stringIcNS_11char_traitsIcEENS_9allocatorIcEEEEE10_NSA_ISF_EEFiSE_EED0Ev, symObjAddr: 0x11FBC, symBinAddr: 0x2F3F4, symSize: 0x4 }
  - { offsetInCU: 0xC1982, offset: 0x15FD15, size: 0x8, addend: 0x0, symName: __ZNKSt3__110__function6__funcIZN5agora3rtc9extension29FUExtensionDelegateAPIBindingEPNS4_19FUExtensionDelegateEEUlRKNS_12basic_stringIcNS_11char_traitsIcEENS_9allocatorIcEEEEE10_NSA_ISF_EEFiSE_EE7__cloneEv, symObjAddr: 0x11FC0, symBinAddr: 0x2F3F8, symSize: 0x34 }
  - { offsetInCU: 0xC1C75, offset: 0x160008, size: 0x8, addend: 0x0, symName: __ZNKSt3__110__function6__funcIZN5agora3rtc9extension29FUExtensionDelegateAPIBindingEPNS4_19FUExtensionDelegateEEUlRKNS_12basic_stringIcNS_11char_traitsIcEENS_9allocatorIcEEEEE10_NSA_ISF_EEFiSE_EE7__cloneEPNS0_6__baseISH_EE, symObjAddr: 0x11FF4, symBinAddr: 0x2F42C, symSize: 0x14 }
  - { offsetInCU: 0xC1CAC, offset: 0x16003F, size: 0x8, addend: 0x0, symName: __ZNKSt3__110__function6__funcIZN5agora3rtc9extension29FUExtensionDelegateAPIBindingEPNS4_19FUExtensionDelegateEEUlRKNS_12basic_stringIcNS_11char_traitsIcEENS_9allocatorIcEEEEE10_NSA_ISF_EEFiSE_EE7__cloneEPNS0_6__baseISH_EE, symObjAddr: 0x11FF4, symBinAddr: 0x2F42C, symSize: 0x14 }
  - { offsetInCU: 0xC1CDA, offset: 0x16006D, size: 0x8, addend: 0x0, symName: __ZNKSt3__110__function6__funcIZN5agora3rtc9extension29FUExtensionDelegateAPIBindingEPNS4_19FUExtensionDelegateEEUlRKNS_12basic_stringIcNS_11char_traitsIcEENS_9allocatorIcEEEEE10_NSA_ISF_EEFiSE_EE7__cloneEPNS0_6__baseISH_EE, symObjAddr: 0x11FF4, symBinAddr: 0x2F42C, symSize: 0x14 }
  - { offsetInCU: 0xC1D08, offset: 0x16009B, size: 0x8, addend: 0x0, symName: __ZNKSt3__110__function6__funcIZN5agora3rtc9extension29FUExtensionDelegateAPIBindingEPNS4_19FUExtensionDelegateEEUlRKNS_12basic_stringIcNS_11char_traitsIcEENS_9allocatorIcEEEEE10_NSA_ISF_EEFiSE_EE7__cloneEPNS0_6__baseISH_EE, symObjAddr: 0x11FF4, symBinAddr: 0x2F42C, symSize: 0x14 }
  - { offsetInCU: 0xC1D1D, offset: 0x1600B0, size: 0x8, addend: 0x0, symName: __ZNKSt3__110__function6__funcIZN5agora3rtc9extension29FUExtensionDelegateAPIBindingEPNS4_19FUExtensionDelegateEEUlRKNS_12basic_stringIcNS_11char_traitsIcEENS_9allocatorIcEEEEE10_NSA_ISF_EEFiSE_EE7__cloneEPNS0_6__baseISH_EE, symObjAddr: 0x11FF4, symBinAddr: 0x2F42C, symSize: 0x14 }
  - { offsetInCU: 0xC1D31, offset: 0x1600C4, size: 0x8, addend: 0x0, symName: __ZNKSt3__110__function6__funcIZN5agora3rtc9extension29FUExtensionDelegateAPIBindingEPNS4_19FUExtensionDelegateEEUlRKNS_12basic_stringIcNS_11char_traitsIcEENS_9allocatorIcEEEEE10_NSA_ISF_EEFiSE_EE7__cloneEPNS0_6__baseISH_EE, symObjAddr: 0x11FF4, symBinAddr: 0x2F42C, symSize: 0x14 }
  - { offsetInCU: 0xC1D45, offset: 0x1600D8, size: 0x8, addend: 0x0, symName: __ZNKSt3__110__function6__funcIZN5agora3rtc9extension29FUExtensionDelegateAPIBindingEPNS4_19FUExtensionDelegateEEUlRKNS_12basic_stringIcNS_11char_traitsIcEENS_9allocatorIcEEEEE10_NSA_ISF_EEFiSE_EE7__cloneEPNS0_6__baseISH_EE, symObjAddr: 0x11FF4, symBinAddr: 0x2F42C, symSize: 0x14 }
  - { offsetInCU: 0xC1D59, offset: 0x1600EC, size: 0x8, addend: 0x0, symName: __ZNKSt3__110__function6__funcIZN5agora3rtc9extension29FUExtensionDelegateAPIBindingEPNS4_19FUExtensionDelegateEEUlRKNS_12basic_stringIcNS_11char_traitsIcEENS_9allocatorIcEEEEE10_NSA_ISF_EEFiSE_EE7__cloneEPNS0_6__baseISH_EE, symObjAddr: 0x11FF4, symBinAddr: 0x2F42C, symSize: 0x14 }
  - { offsetInCU: 0xC1D72, offset: 0x160105, size: 0x8, addend: 0x0, symName: __ZNSt3__110__function6__funcIZN5agora3rtc9extension29FUExtensionDelegateAPIBindingEPNS4_19FUExtensionDelegateEEUlRKNS_12basic_stringIcNS_11char_traitsIcEENS_9allocatorIcEEEEE10_NSA_ISF_EEFiSE_EE7destroyEv, symObjAddr: 0x12008, symBinAddr: 0x2F440, symSize: 0x4 }
  - { offsetInCU: 0xC1DC5, offset: 0x160158, size: 0x8, addend: 0x0, symName: __ZNSt3__110__function6__funcIZN5agora3rtc9extension29FUExtensionDelegateAPIBindingEPNS4_19FUExtensionDelegateEEUlRKNS_12basic_stringIcNS_11char_traitsIcEENS_9allocatorIcEEEEE10_NSA_ISF_EEFiSE_EE18destroy_deallocateEv, symObjAddr: 0x1200C, symBinAddr: 0x2F444, symSize: 0x4 }
  - { offsetInCU: 0xC1DFA, offset: 0x16018D, size: 0x8, addend: 0x0, symName: __ZNSt3__110__function6__funcIZN5agora3rtc9extension29FUExtensionDelegateAPIBindingEPNS4_19FUExtensionDelegateEEUlRKNS_12basic_stringIcNS_11char_traitsIcEENS_9allocatorIcEEEEE10_NSA_ISF_EEFiSE_EE18destroy_deallocateEv, symObjAddr: 0x1200C, symBinAddr: 0x2F444, symSize: 0x4 }
  - { offsetInCU: 0xC1E1C, offset: 0x1601AF, size: 0x8, addend: 0x0, symName: __ZNSt3__110__function6__funcIZN5agora3rtc9extension29FUExtensionDelegateAPIBindingEPNS4_19FUExtensionDelegateEEUlRKNS_12basic_stringIcNS_11char_traitsIcEENS_9allocatorIcEEEEE10_NSA_ISF_EEFiSE_EE18destroy_deallocateEv, symObjAddr: 0x1200C, symBinAddr: 0x2F444, symSize: 0x4 }
  - { offsetInCU: 0xC1E47, offset: 0x1601DA, size: 0x8, addend: 0x0, symName: __ZNSt3__110__function6__funcIZN5agora3rtc9extension29FUExtensionDelegateAPIBindingEPNS4_19FUExtensionDelegateEEUlRKNS_12basic_stringIcNS_11char_traitsIcEENS_9allocatorIcEEEEE10_NSA_ISF_EEFiSE_EE18destroy_deallocateEv, symObjAddr: 0x1200C, symBinAddr: 0x2F444, symSize: 0x4 }
  - { offsetInCU: 0xC1E6D, offset: 0x160200, size: 0x8, addend: 0x0, symName: __ZNSt3__110__function6__funcIZN5agora3rtc9extension29FUExtensionDelegateAPIBindingEPNS4_19FUExtensionDelegateEEUlRKNS_12basic_stringIcNS_11char_traitsIcEENS_9allocatorIcEEEEE10_NSA_ISF_EEFiSE_EE18destroy_deallocateEv, symObjAddr: 0x1200C, symBinAddr: 0x2F444, symSize: 0x4 }
  - { offsetInCU: 0xC1EE8, offset: 0x16027B, size: 0x8, addend: 0x0, symName: __ZNSt3__110__function6__funcIZN5agora3rtc9extension29FUExtensionDelegateAPIBindingEPNS4_19FUExtensionDelegateEEUlRKNS_12basic_stringIcNS_11char_traitsIcEENS_9allocatorIcEEEEE10_NSA_ISF_EEFiSE_EEclESE_, symObjAddr: 0x12010, symBinAddr: 0x2F448, symSize: 0x8 }
  - { offsetInCU: 0xC1FA5, offset: 0x160338, size: 0x8, addend: 0x0, symName: __ZZN5agora3rtc9extension29FUExtensionDelegateAPIBindingEPNS1_19FUExtensionDelegateEENKUlRKNSt3__112basic_stringIcNS4_11char_traitsIcEENS4_9allocatorIcEEEEE10_clESC_, symObjAddr: 0x12060, symBinAddr: 0x2F498, symSize: 0x170 }
  - { offsetInCU: 0xC240B, offset: 0x16079E, size: 0x8, addend: 0x0, symName: __ZNKSt3__110__function6__funcIZN5agora3rtc9extension29FUExtensionDelegateAPIBindingEPNS4_19FUExtensionDelegateEEUlRKNS_12basic_stringIcNS_11char_traitsIcEENS_9allocatorIcEEEEE10_NSA_ISF_EEFiSE_EE6targetERKSt9type_info, symObjAddr: 0x12018, symBinAddr: 0x2F450, symSize: 0x3C }
  - { offsetInCU: 0xC2459, offset: 0x1607EC, size: 0x8, addend: 0x0, symName: __ZNKSt3__110__function6__funcIZN5agora3rtc9extension29FUExtensionDelegateAPIBindingEPNS4_19FUExtensionDelegateEEUlRKNS_12basic_stringIcNS_11char_traitsIcEENS_9allocatorIcEEEEE10_NSA_ISF_EEFiSE_EE11target_typeEv, symObjAddr: 0x12054, symBinAddr: 0x2F48C, symSize: 0xC }
  - { offsetInCU: 0xC2482, offset: 0x160815, size: 0x8, addend: 0x0, symName: __ZNSt3__110__function6__funcIZN5agora3rtc9extension29FUExtensionDelegateAPIBindingEPNS4_19FUExtensionDelegateEEUlRKNS_12basic_stringIcNS_11char_traitsIcEENS_9allocatorIcEEEEE11_NSA_ISF_EEFiSE_EED1Ev, symObjAddr: 0x121D0, symBinAddr: 0x2F608, symSize: 0x4 }
  - { offsetInCU: 0xC24AE, offset: 0x160841, size: 0x8, addend: 0x0, symName: __ZNSt3__110__function6__funcIZN5agora3rtc9extension29FUExtensionDelegateAPIBindingEPNS4_19FUExtensionDelegateEEUlRKNS_12basic_stringIcNS_11char_traitsIcEENS_9allocatorIcEEEEE11_NSA_ISF_EEFiSE_EED0Ev, symObjAddr: 0x121D4, symBinAddr: 0x2F60C, symSize: 0x4 }
  - { offsetInCU: 0xC26B2, offset: 0x160A45, size: 0x8, addend: 0x0, symName: __ZNKSt3__110__function6__funcIZN5agora3rtc9extension29FUExtensionDelegateAPIBindingEPNS4_19FUExtensionDelegateEEUlRKNS_12basic_stringIcNS_11char_traitsIcEENS_9allocatorIcEEEEE11_NSA_ISF_EEFiSE_EE7__cloneEv, symObjAddr: 0x121D8, symBinAddr: 0x2F610, symSize: 0x34 }
  - { offsetInCU: 0xC29A5, offset: 0x160D38, size: 0x8, addend: 0x0, symName: __ZNKSt3__110__function6__funcIZN5agora3rtc9extension29FUExtensionDelegateAPIBindingEPNS4_19FUExtensionDelegateEEUlRKNS_12basic_stringIcNS_11char_traitsIcEENS_9allocatorIcEEEEE11_NSA_ISF_EEFiSE_EE7__cloneEPNS0_6__baseISH_EE, symObjAddr: 0x1220C, symBinAddr: 0x2F644, symSize: 0x14 }
  - { offsetInCU: 0xC29DC, offset: 0x160D6F, size: 0x8, addend: 0x0, symName: __ZNKSt3__110__function6__funcIZN5agora3rtc9extension29FUExtensionDelegateAPIBindingEPNS4_19FUExtensionDelegateEEUlRKNS_12basic_stringIcNS_11char_traitsIcEENS_9allocatorIcEEEEE11_NSA_ISF_EEFiSE_EE7__cloneEPNS0_6__baseISH_EE, symObjAddr: 0x1220C, symBinAddr: 0x2F644, symSize: 0x14 }
  - { offsetInCU: 0xC2A0A, offset: 0x160D9D, size: 0x8, addend: 0x0, symName: __ZNKSt3__110__function6__funcIZN5agora3rtc9extension29FUExtensionDelegateAPIBindingEPNS4_19FUExtensionDelegateEEUlRKNS_12basic_stringIcNS_11char_traitsIcEENS_9allocatorIcEEEEE11_NSA_ISF_EEFiSE_EE7__cloneEPNS0_6__baseISH_EE, symObjAddr: 0x1220C, symBinAddr: 0x2F644, symSize: 0x14 }
  - { offsetInCU: 0xC2A38, offset: 0x160DCB, size: 0x8, addend: 0x0, symName: __ZNKSt3__110__function6__funcIZN5agora3rtc9extension29FUExtensionDelegateAPIBindingEPNS4_19FUExtensionDelegateEEUlRKNS_12basic_stringIcNS_11char_traitsIcEENS_9allocatorIcEEEEE11_NSA_ISF_EEFiSE_EE7__cloneEPNS0_6__baseISH_EE, symObjAddr: 0x1220C, symBinAddr: 0x2F644, symSize: 0x14 }
  - { offsetInCU: 0xC2A4D, offset: 0x160DE0, size: 0x8, addend: 0x0, symName: __ZNKSt3__110__function6__funcIZN5agora3rtc9extension29FUExtensionDelegateAPIBindingEPNS4_19FUExtensionDelegateEEUlRKNS_12basic_stringIcNS_11char_traitsIcEENS_9allocatorIcEEEEE11_NSA_ISF_EEFiSE_EE7__cloneEPNS0_6__baseISH_EE, symObjAddr: 0x1220C, symBinAddr: 0x2F644, symSize: 0x14 }
  - { offsetInCU: 0xC2A61, offset: 0x160DF4, size: 0x8, addend: 0x0, symName: __ZNKSt3__110__function6__funcIZN5agora3rtc9extension29FUExtensionDelegateAPIBindingEPNS4_19FUExtensionDelegateEEUlRKNS_12basic_stringIcNS_11char_traitsIcEENS_9allocatorIcEEEEE11_NSA_ISF_EEFiSE_EE7__cloneEPNS0_6__baseISH_EE, symObjAddr: 0x1220C, symBinAddr: 0x2F644, symSize: 0x14 }
  - { offsetInCU: 0xC2A75, offset: 0x160E08, size: 0x8, addend: 0x0, symName: __ZNKSt3__110__function6__funcIZN5agora3rtc9extension29FUExtensionDelegateAPIBindingEPNS4_19FUExtensionDelegateEEUlRKNS_12basic_stringIcNS_11char_traitsIcEENS_9allocatorIcEEEEE11_NSA_ISF_EEFiSE_EE7__cloneEPNS0_6__baseISH_EE, symObjAddr: 0x1220C, symBinAddr: 0x2F644, symSize: 0x14 }
  - { offsetInCU: 0xC2A89, offset: 0x160E1C, size: 0x8, addend: 0x0, symName: __ZNKSt3__110__function6__funcIZN5agora3rtc9extension29FUExtensionDelegateAPIBindingEPNS4_19FUExtensionDelegateEEUlRKNS_12basic_stringIcNS_11char_traitsIcEENS_9allocatorIcEEEEE11_NSA_ISF_EEFiSE_EE7__cloneEPNS0_6__baseISH_EE, symObjAddr: 0x1220C, symBinAddr: 0x2F644, symSize: 0x14 }
  - { offsetInCU: 0xC2AA2, offset: 0x160E35, size: 0x8, addend: 0x0, symName: __ZNSt3__110__function6__funcIZN5agora3rtc9extension29FUExtensionDelegateAPIBindingEPNS4_19FUExtensionDelegateEEUlRKNS_12basic_stringIcNS_11char_traitsIcEENS_9allocatorIcEEEEE11_NSA_ISF_EEFiSE_EE7destroyEv, symObjAddr: 0x12220, symBinAddr: 0x2F658, symSize: 0x4 }
  - { offsetInCU: 0xC2AF5, offset: 0x160E88, size: 0x8, addend: 0x0, symName: __ZNSt3__110__function6__funcIZN5agora3rtc9extension29FUExtensionDelegateAPIBindingEPNS4_19FUExtensionDelegateEEUlRKNS_12basic_stringIcNS_11char_traitsIcEENS_9allocatorIcEEEEE11_NSA_ISF_EEFiSE_EE18destroy_deallocateEv, symObjAddr: 0x12224, symBinAddr: 0x2F65C, symSize: 0x4 }
  - { offsetInCU: 0xC2B2A, offset: 0x160EBD, size: 0x8, addend: 0x0, symName: __ZNSt3__110__function6__funcIZN5agora3rtc9extension29FUExtensionDelegateAPIBindingEPNS4_19FUExtensionDelegateEEUlRKNS_12basic_stringIcNS_11char_traitsIcEENS_9allocatorIcEEEEE11_NSA_ISF_EEFiSE_EE18destroy_deallocateEv, symObjAddr: 0x12224, symBinAddr: 0x2F65C, symSize: 0x4 }
  - { offsetInCU: 0xC2B4C, offset: 0x160EDF, size: 0x8, addend: 0x0, symName: __ZNSt3__110__function6__funcIZN5agora3rtc9extension29FUExtensionDelegateAPIBindingEPNS4_19FUExtensionDelegateEEUlRKNS_12basic_stringIcNS_11char_traitsIcEENS_9allocatorIcEEEEE11_NSA_ISF_EEFiSE_EE18destroy_deallocateEv, symObjAddr: 0x12224, symBinAddr: 0x2F65C, symSize: 0x4 }
  - { offsetInCU: 0xC2B77, offset: 0x160F0A, size: 0x8, addend: 0x0, symName: __ZNSt3__110__function6__funcIZN5agora3rtc9extension29FUExtensionDelegateAPIBindingEPNS4_19FUExtensionDelegateEEUlRKNS_12basic_stringIcNS_11char_traitsIcEENS_9allocatorIcEEEEE11_NSA_ISF_EEFiSE_EE18destroy_deallocateEv, symObjAddr: 0x12224, symBinAddr: 0x2F65C, symSize: 0x4 }
  - { offsetInCU: 0xC2B9D, offset: 0x160F30, size: 0x8, addend: 0x0, symName: __ZNSt3__110__function6__funcIZN5agora3rtc9extension29FUExtensionDelegateAPIBindingEPNS4_19FUExtensionDelegateEEUlRKNS_12basic_stringIcNS_11char_traitsIcEENS_9allocatorIcEEEEE11_NSA_ISF_EEFiSE_EE18destroy_deallocateEv, symObjAddr: 0x12224, symBinAddr: 0x2F65C, symSize: 0x4 }
  - { offsetInCU: 0xC2C18, offset: 0x160FAB, size: 0x8, addend: 0x0, symName: __ZNSt3__110__function6__funcIZN5agora3rtc9extension29FUExtensionDelegateAPIBindingEPNS4_19FUExtensionDelegateEEUlRKNS_12basic_stringIcNS_11char_traitsIcEENS_9allocatorIcEEEEE11_NSA_ISF_EEFiSE_EEclESE_, symObjAddr: 0x12228, symBinAddr: 0x2F660, symSize: 0x8 }
  - { offsetInCU: 0xC2CD5, offset: 0x161068, size: 0x8, addend: 0x0, symName: __ZZN5agora3rtc9extension29FUExtensionDelegateAPIBindingEPNS1_19FUExtensionDelegateEENKUlRKNSt3__112basic_stringIcNS4_11char_traitsIcEENS4_9allocatorIcEEEEE11_clESC_, symObjAddr: 0x12278, symBinAddr: 0x2F6B0, symSize: 0x178 }
  - { offsetInCU: 0xC312B, offset: 0x1614BE, size: 0x8, addend: 0x0, symName: __ZNKSt3__110__function6__funcIZN5agora3rtc9extension29FUExtensionDelegateAPIBindingEPNS4_19FUExtensionDelegateEEUlRKNS_12basic_stringIcNS_11char_traitsIcEENS_9allocatorIcEEEEE11_NSA_ISF_EEFiSE_EE6targetERKSt9type_info, symObjAddr: 0x12230, symBinAddr: 0x2F668, symSize: 0x3C }
  - { offsetInCU: 0xC3179, offset: 0x16150C, size: 0x8, addend: 0x0, symName: __ZNKSt3__110__function6__funcIZN5agora3rtc9extension29FUExtensionDelegateAPIBindingEPNS4_19FUExtensionDelegateEEUlRKNS_12basic_stringIcNS_11char_traitsIcEENS_9allocatorIcEEEEE11_NSA_ISF_EEFiSE_EE11target_typeEv, symObjAddr: 0x1226C, symBinAddr: 0x2F6A4, symSize: 0xC }
  - { offsetInCU: 0xC31A2, offset: 0x161535, size: 0x8, addend: 0x0, symName: __ZNSt3__110__function6__funcIZN5agora3rtc9extension29FUExtensionDelegateAPIBindingEPNS4_19FUExtensionDelegateEEUlRKNS_12basic_stringIcNS_11char_traitsIcEENS_9allocatorIcEEEEE12_NSA_ISF_EEFiSE_EED1Ev, symObjAddr: 0x123F0, symBinAddr: 0x2F828, symSize: 0x4 }
  - { offsetInCU: 0xC31CE, offset: 0x161561, size: 0x8, addend: 0x0, symName: __ZNSt3__110__function6__funcIZN5agora3rtc9extension29FUExtensionDelegateAPIBindingEPNS4_19FUExtensionDelegateEEUlRKNS_12basic_stringIcNS_11char_traitsIcEENS_9allocatorIcEEEEE12_NSA_ISF_EEFiSE_EED0Ev, symObjAddr: 0x123F4, symBinAddr: 0x2F82C, symSize: 0x4 }
  - { offsetInCU: 0xC33D2, offset: 0x161765, size: 0x8, addend: 0x0, symName: __ZNKSt3__110__function6__funcIZN5agora3rtc9extension29FUExtensionDelegateAPIBindingEPNS4_19FUExtensionDelegateEEUlRKNS_12basic_stringIcNS_11char_traitsIcEENS_9allocatorIcEEEEE12_NSA_ISF_EEFiSE_EE7__cloneEv, symObjAddr: 0x123F8, symBinAddr: 0x2F830, symSize: 0x34 }
  - { offsetInCU: 0xC36C5, offset: 0x161A58, size: 0x8, addend: 0x0, symName: __ZNKSt3__110__function6__funcIZN5agora3rtc9extension29FUExtensionDelegateAPIBindingEPNS4_19FUExtensionDelegateEEUlRKNS_12basic_stringIcNS_11char_traitsIcEENS_9allocatorIcEEEEE12_NSA_ISF_EEFiSE_EE7__cloneEPNS0_6__baseISH_EE, symObjAddr: 0x1242C, symBinAddr: 0x2F864, symSize: 0x14 }
  - { offsetInCU: 0xC36FC, offset: 0x161A8F, size: 0x8, addend: 0x0, symName: __ZNKSt3__110__function6__funcIZN5agora3rtc9extension29FUExtensionDelegateAPIBindingEPNS4_19FUExtensionDelegateEEUlRKNS_12basic_stringIcNS_11char_traitsIcEENS_9allocatorIcEEEEE12_NSA_ISF_EEFiSE_EE7__cloneEPNS0_6__baseISH_EE, symObjAddr: 0x1242C, symBinAddr: 0x2F864, symSize: 0x14 }
  - { offsetInCU: 0xC372A, offset: 0x161ABD, size: 0x8, addend: 0x0, symName: __ZNKSt3__110__function6__funcIZN5agora3rtc9extension29FUExtensionDelegateAPIBindingEPNS4_19FUExtensionDelegateEEUlRKNS_12basic_stringIcNS_11char_traitsIcEENS_9allocatorIcEEEEE12_NSA_ISF_EEFiSE_EE7__cloneEPNS0_6__baseISH_EE, symObjAddr: 0x1242C, symBinAddr: 0x2F864, symSize: 0x14 }
  - { offsetInCU: 0xC3758, offset: 0x161AEB, size: 0x8, addend: 0x0, symName: __ZNKSt3__110__function6__funcIZN5agora3rtc9extension29FUExtensionDelegateAPIBindingEPNS4_19FUExtensionDelegateEEUlRKNS_12basic_stringIcNS_11char_traitsIcEENS_9allocatorIcEEEEE12_NSA_ISF_EEFiSE_EE7__cloneEPNS0_6__baseISH_EE, symObjAddr: 0x1242C, symBinAddr: 0x2F864, symSize: 0x14 }
  - { offsetInCU: 0xC376D, offset: 0x161B00, size: 0x8, addend: 0x0, symName: __ZNKSt3__110__function6__funcIZN5agora3rtc9extension29FUExtensionDelegateAPIBindingEPNS4_19FUExtensionDelegateEEUlRKNS_12basic_stringIcNS_11char_traitsIcEENS_9allocatorIcEEEEE12_NSA_ISF_EEFiSE_EE7__cloneEPNS0_6__baseISH_EE, symObjAddr: 0x1242C, symBinAddr: 0x2F864, symSize: 0x14 }
  - { offsetInCU: 0xC3781, offset: 0x161B14, size: 0x8, addend: 0x0, symName: __ZNKSt3__110__function6__funcIZN5agora3rtc9extension29FUExtensionDelegateAPIBindingEPNS4_19FUExtensionDelegateEEUlRKNS_12basic_stringIcNS_11char_traitsIcEENS_9allocatorIcEEEEE12_NSA_ISF_EEFiSE_EE7__cloneEPNS0_6__baseISH_EE, symObjAddr: 0x1242C, symBinAddr: 0x2F864, symSize: 0x14 }
  - { offsetInCU: 0xC3795, offset: 0x161B28, size: 0x8, addend: 0x0, symName: __ZNKSt3__110__function6__funcIZN5agora3rtc9extension29FUExtensionDelegateAPIBindingEPNS4_19FUExtensionDelegateEEUlRKNS_12basic_stringIcNS_11char_traitsIcEENS_9allocatorIcEEEEE12_NSA_ISF_EEFiSE_EE7__cloneEPNS0_6__baseISH_EE, symObjAddr: 0x1242C, symBinAddr: 0x2F864, symSize: 0x14 }
  - { offsetInCU: 0xC37A9, offset: 0x161B3C, size: 0x8, addend: 0x0, symName: __ZNKSt3__110__function6__funcIZN5agora3rtc9extension29FUExtensionDelegateAPIBindingEPNS4_19FUExtensionDelegateEEUlRKNS_12basic_stringIcNS_11char_traitsIcEENS_9allocatorIcEEEEE12_NSA_ISF_EEFiSE_EE7__cloneEPNS0_6__baseISH_EE, symObjAddr: 0x1242C, symBinAddr: 0x2F864, symSize: 0x14 }
  - { offsetInCU: 0xC37C2, offset: 0x161B55, size: 0x8, addend: 0x0, symName: __ZNSt3__110__function6__funcIZN5agora3rtc9extension29FUExtensionDelegateAPIBindingEPNS4_19FUExtensionDelegateEEUlRKNS_12basic_stringIcNS_11char_traitsIcEENS_9allocatorIcEEEEE12_NSA_ISF_EEFiSE_EE7destroyEv, symObjAddr: 0x12440, symBinAddr: 0x2F878, symSize: 0x4 }
  - { offsetInCU: 0xC3815, offset: 0x161BA8, size: 0x8, addend: 0x0, symName: __ZNSt3__110__function6__funcIZN5agora3rtc9extension29FUExtensionDelegateAPIBindingEPNS4_19FUExtensionDelegateEEUlRKNS_12basic_stringIcNS_11char_traitsIcEENS_9allocatorIcEEEEE12_NSA_ISF_EEFiSE_EE18destroy_deallocateEv, symObjAddr: 0x12444, symBinAddr: 0x2F87C, symSize: 0x4 }
  - { offsetInCU: 0xC384A, offset: 0x161BDD, size: 0x8, addend: 0x0, symName: __ZNSt3__110__function6__funcIZN5agora3rtc9extension29FUExtensionDelegateAPIBindingEPNS4_19FUExtensionDelegateEEUlRKNS_12basic_stringIcNS_11char_traitsIcEENS_9allocatorIcEEEEE12_NSA_ISF_EEFiSE_EE18destroy_deallocateEv, symObjAddr: 0x12444, symBinAddr: 0x2F87C, symSize: 0x4 }
  - { offsetInCU: 0xC386C, offset: 0x161BFF, size: 0x8, addend: 0x0, symName: __ZNSt3__110__function6__funcIZN5agora3rtc9extension29FUExtensionDelegateAPIBindingEPNS4_19FUExtensionDelegateEEUlRKNS_12basic_stringIcNS_11char_traitsIcEENS_9allocatorIcEEEEE12_NSA_ISF_EEFiSE_EE18destroy_deallocateEv, symObjAddr: 0x12444, symBinAddr: 0x2F87C, symSize: 0x4 }
  - { offsetInCU: 0xC3897, offset: 0x161C2A, size: 0x8, addend: 0x0, symName: __ZNSt3__110__function6__funcIZN5agora3rtc9extension29FUExtensionDelegateAPIBindingEPNS4_19FUExtensionDelegateEEUlRKNS_12basic_stringIcNS_11char_traitsIcEENS_9allocatorIcEEEEE12_NSA_ISF_EEFiSE_EE18destroy_deallocateEv, symObjAddr: 0x12444, symBinAddr: 0x2F87C, symSize: 0x4 }
  - { offsetInCU: 0xC38BD, offset: 0x161C50, size: 0x8, addend: 0x0, symName: __ZNSt3__110__function6__funcIZN5agora3rtc9extension29FUExtensionDelegateAPIBindingEPNS4_19FUExtensionDelegateEEUlRKNS_12basic_stringIcNS_11char_traitsIcEENS_9allocatorIcEEEEE12_NSA_ISF_EEFiSE_EE18destroy_deallocateEv, symObjAddr: 0x12444, symBinAddr: 0x2F87C, symSize: 0x4 }
  - { offsetInCU: 0xC3908, offset: 0x161C9B, size: 0x8, addend: 0x0, symName: __ZNSt3__110__function6__funcIZN5agora3rtc9extension29FUExtensionDelegateAPIBindingEPNS4_19FUExtensionDelegateEEUlRKNS_12basic_stringIcNS_11char_traitsIcEENS_9allocatorIcEEEEE12_NSA_ISF_EEFiSE_EEclESE_, symObjAddr: 0x12448, symBinAddr: 0x2F880, symSize: 0x8 }
  - { offsetInCU: 0xC3979, offset: 0x161D0C, size: 0x8, addend: 0x0, symName: __ZNSt3__128__invoke_void_return_wrapperIiLb0EE6__callIJRZN5agora3rtc9extension29FUExtensionDelegateAPIBindingEPNS5_19FUExtensionDelegateEEUlRKNS_12basic_stringIcNS_11char_traitsIcEENS_9allocatorIcEEEEE12_SF_EEEiDpOT_, symObjAddr: 0x12498, symBinAddr: 0x2F8D0, symSize: 0xF0 }
  - { offsetInCU: 0xC3C0A, offset: 0x161F9D, size: 0x8, addend: 0x0, symName: __ZNKSt3__110__function6__funcIZN5agora3rtc9extension29FUExtensionDelegateAPIBindingEPNS4_19FUExtensionDelegateEEUlRKNS_12basic_stringIcNS_11char_traitsIcEENS_9allocatorIcEEEEE12_NSA_ISF_EEFiSE_EE6targetERKSt9type_info, symObjAddr: 0x12450, symBinAddr: 0x2F888, symSize: 0x3C }
  - { offsetInCU: 0xC3C58, offset: 0x161FEB, size: 0x8, addend: 0x0, symName: __ZNKSt3__110__function6__funcIZN5agora3rtc9extension29FUExtensionDelegateAPIBindingEPNS4_19FUExtensionDelegateEEUlRKNS_12basic_stringIcNS_11char_traitsIcEENS_9allocatorIcEEEEE12_NSA_ISF_EEFiSE_EE11target_typeEv, symObjAddr: 0x1248C, symBinAddr: 0x2F8C4, symSize: 0xC }
  - { offsetInCU: 0xC3CBD, offset: 0x162050, size: 0x8, addend: 0x0, symName: __ZNSt3__110__function6__funcIZN5agora3rtc9extension29FUExtensionDelegateAPIBindingEPNS4_19FUExtensionDelegateEEUlRKNS_12basic_stringIcNS_11char_traitsIcEENS_9allocatorIcEEEEE13_NSA_ISF_EEFiSE_EED1Ev, symObjAddr: 0x12588, symBinAddr: 0x2F9C0, symSize: 0x4 }
  - { offsetInCU: 0xC3CE9, offset: 0x16207C, size: 0x8, addend: 0x0, symName: __ZNSt3__110__function6__funcIZN5agora3rtc9extension29FUExtensionDelegateAPIBindingEPNS4_19FUExtensionDelegateEEUlRKNS_12basic_stringIcNS_11char_traitsIcEENS_9allocatorIcEEEEE13_NSA_ISF_EEFiSE_EED0Ev, symObjAddr: 0x1258C, symBinAddr: 0x2F9C4, symSize: 0x4 }
  - { offsetInCU: 0xC3EED, offset: 0x162280, size: 0x8, addend: 0x0, symName: __ZNKSt3__110__function6__funcIZN5agora3rtc9extension29FUExtensionDelegateAPIBindingEPNS4_19FUExtensionDelegateEEUlRKNS_12basic_stringIcNS_11char_traitsIcEENS_9allocatorIcEEEEE13_NSA_ISF_EEFiSE_EE7__cloneEv, symObjAddr: 0x12590, symBinAddr: 0x2F9C8, symSize: 0x34 }
  - { offsetInCU: 0xC41E0, offset: 0x162573, size: 0x8, addend: 0x0, symName: __ZNKSt3__110__function6__funcIZN5agora3rtc9extension29FUExtensionDelegateAPIBindingEPNS4_19FUExtensionDelegateEEUlRKNS_12basic_stringIcNS_11char_traitsIcEENS_9allocatorIcEEEEE13_NSA_ISF_EEFiSE_EE7__cloneEPNS0_6__baseISH_EE, symObjAddr: 0x125C4, symBinAddr: 0x2F9FC, symSize: 0x14 }
  - { offsetInCU: 0xC4217, offset: 0x1625AA, size: 0x8, addend: 0x0, symName: __ZNKSt3__110__function6__funcIZN5agora3rtc9extension29FUExtensionDelegateAPIBindingEPNS4_19FUExtensionDelegateEEUlRKNS_12basic_stringIcNS_11char_traitsIcEENS_9allocatorIcEEEEE13_NSA_ISF_EEFiSE_EE7__cloneEPNS0_6__baseISH_EE, symObjAddr: 0x125C4, symBinAddr: 0x2F9FC, symSize: 0x14 }
  - { offsetInCU: 0xC4245, offset: 0x1625D8, size: 0x8, addend: 0x0, symName: __ZNKSt3__110__function6__funcIZN5agora3rtc9extension29FUExtensionDelegateAPIBindingEPNS4_19FUExtensionDelegateEEUlRKNS_12basic_stringIcNS_11char_traitsIcEENS_9allocatorIcEEEEE13_NSA_ISF_EEFiSE_EE7__cloneEPNS0_6__baseISH_EE, symObjAddr: 0x125C4, symBinAddr: 0x2F9FC, symSize: 0x14 }
  - { offsetInCU: 0xC4273, offset: 0x162606, size: 0x8, addend: 0x0, symName: __ZNKSt3__110__function6__funcIZN5agora3rtc9extension29FUExtensionDelegateAPIBindingEPNS4_19FUExtensionDelegateEEUlRKNS_12basic_stringIcNS_11char_traitsIcEENS_9allocatorIcEEEEE13_NSA_ISF_EEFiSE_EE7__cloneEPNS0_6__baseISH_EE, symObjAddr: 0x125C4, symBinAddr: 0x2F9FC, symSize: 0x14 }
  - { offsetInCU: 0xC4288, offset: 0x16261B, size: 0x8, addend: 0x0, symName: __ZNKSt3__110__function6__funcIZN5agora3rtc9extension29FUExtensionDelegateAPIBindingEPNS4_19FUExtensionDelegateEEUlRKNS_12basic_stringIcNS_11char_traitsIcEENS_9allocatorIcEEEEE13_NSA_ISF_EEFiSE_EE7__cloneEPNS0_6__baseISH_EE, symObjAddr: 0x125C4, symBinAddr: 0x2F9FC, symSize: 0x14 }
  - { offsetInCU: 0xC429C, offset: 0x16262F, size: 0x8, addend: 0x0, symName: __ZNKSt3__110__function6__funcIZN5agora3rtc9extension29FUExtensionDelegateAPIBindingEPNS4_19FUExtensionDelegateEEUlRKNS_12basic_stringIcNS_11char_traitsIcEENS_9allocatorIcEEEEE13_NSA_ISF_EEFiSE_EE7__cloneEPNS0_6__baseISH_EE, symObjAddr: 0x125C4, symBinAddr: 0x2F9FC, symSize: 0x14 }
  - { offsetInCU: 0xC42B0, offset: 0x162643, size: 0x8, addend: 0x0, symName: __ZNKSt3__110__function6__funcIZN5agora3rtc9extension29FUExtensionDelegateAPIBindingEPNS4_19FUExtensionDelegateEEUlRKNS_12basic_stringIcNS_11char_traitsIcEENS_9allocatorIcEEEEE13_NSA_ISF_EEFiSE_EE7__cloneEPNS0_6__baseISH_EE, symObjAddr: 0x125C4, symBinAddr: 0x2F9FC, symSize: 0x14 }
  - { offsetInCU: 0xC42C4, offset: 0x162657, size: 0x8, addend: 0x0, symName: __ZNKSt3__110__function6__funcIZN5agora3rtc9extension29FUExtensionDelegateAPIBindingEPNS4_19FUExtensionDelegateEEUlRKNS_12basic_stringIcNS_11char_traitsIcEENS_9allocatorIcEEEEE13_NSA_ISF_EEFiSE_EE7__cloneEPNS0_6__baseISH_EE, symObjAddr: 0x125C4, symBinAddr: 0x2F9FC, symSize: 0x14 }
  - { offsetInCU: 0xC42DD, offset: 0x162670, size: 0x8, addend: 0x0, symName: __ZNSt3__110__function6__funcIZN5agora3rtc9extension29FUExtensionDelegateAPIBindingEPNS4_19FUExtensionDelegateEEUlRKNS_12basic_stringIcNS_11char_traitsIcEENS_9allocatorIcEEEEE13_NSA_ISF_EEFiSE_EE7destroyEv, symObjAddr: 0x125D8, symBinAddr: 0x2FA10, symSize: 0x4 }
  - { offsetInCU: 0xC4330, offset: 0x1626C3, size: 0x8, addend: 0x0, symName: __ZNSt3__110__function6__funcIZN5agora3rtc9extension29FUExtensionDelegateAPIBindingEPNS4_19FUExtensionDelegateEEUlRKNS_12basic_stringIcNS_11char_traitsIcEENS_9allocatorIcEEEEE13_NSA_ISF_EEFiSE_EE18destroy_deallocateEv, symObjAddr: 0x125DC, symBinAddr: 0x2FA14, symSize: 0x4 }
  - { offsetInCU: 0xC4365, offset: 0x1626F8, size: 0x8, addend: 0x0, symName: __ZNSt3__110__function6__funcIZN5agora3rtc9extension29FUExtensionDelegateAPIBindingEPNS4_19FUExtensionDelegateEEUlRKNS_12basic_stringIcNS_11char_traitsIcEENS_9allocatorIcEEEEE13_NSA_ISF_EEFiSE_EE18destroy_deallocateEv, symObjAddr: 0x125DC, symBinAddr: 0x2FA14, symSize: 0x4 }
  - { offsetInCU: 0xC4387, offset: 0x16271A, size: 0x8, addend: 0x0, symName: __ZNSt3__110__function6__funcIZN5agora3rtc9extension29FUExtensionDelegateAPIBindingEPNS4_19FUExtensionDelegateEEUlRKNS_12basic_stringIcNS_11char_traitsIcEENS_9allocatorIcEEEEE13_NSA_ISF_EEFiSE_EE18destroy_deallocateEv, symObjAddr: 0x125DC, symBinAddr: 0x2FA14, symSize: 0x4 }
  - { offsetInCU: 0xC43B2, offset: 0x162745, size: 0x8, addend: 0x0, symName: __ZNSt3__110__function6__funcIZN5agora3rtc9extension29FUExtensionDelegateAPIBindingEPNS4_19FUExtensionDelegateEEUlRKNS_12basic_stringIcNS_11char_traitsIcEENS_9allocatorIcEEEEE13_NSA_ISF_EEFiSE_EE18destroy_deallocateEv, symObjAddr: 0x125DC, symBinAddr: 0x2FA14, symSize: 0x4 }
  - { offsetInCU: 0xC43D8, offset: 0x16276B, size: 0x8, addend: 0x0, symName: __ZNSt3__110__function6__funcIZN5agora3rtc9extension29FUExtensionDelegateAPIBindingEPNS4_19FUExtensionDelegateEEUlRKNS_12basic_stringIcNS_11char_traitsIcEENS_9allocatorIcEEEEE13_NSA_ISF_EEFiSE_EE18destroy_deallocateEv, symObjAddr: 0x125DC, symBinAddr: 0x2FA14, symSize: 0x4 }
  - { offsetInCU: 0xC4423, offset: 0x1627B6, size: 0x8, addend: 0x0, symName: __ZNSt3__110__function6__funcIZN5agora3rtc9extension29FUExtensionDelegateAPIBindingEPNS4_19FUExtensionDelegateEEUlRKNS_12basic_stringIcNS_11char_traitsIcEENS_9allocatorIcEEEEE13_NSA_ISF_EEFiSE_EEclESE_, symObjAddr: 0x125E0, symBinAddr: 0x2FA18, symSize: 0x8 }
  - { offsetInCU: 0xC4494, offset: 0x162827, size: 0x8, addend: 0x0, symName: __ZNSt3__128__invoke_void_return_wrapperIiLb0EE6__callIJRZN5agora3rtc9extension29FUExtensionDelegateAPIBindingEPNS5_19FUExtensionDelegateEEUlRKNS_12basic_stringIcNS_11char_traitsIcEENS_9allocatorIcEEEEE13_SF_EEEiDpOT_, symObjAddr: 0x12630, symBinAddr: 0x2FA68, symSize: 0x10C }
  - { offsetInCU: 0xC477B, offset: 0x162B0E, size: 0x8, addend: 0x0, symName: __ZNKSt3__110__function6__funcIZN5agora3rtc9extension29FUExtensionDelegateAPIBindingEPNS4_19FUExtensionDelegateEEUlRKNS_12basic_stringIcNS_11char_traitsIcEENS_9allocatorIcEEEEE13_NSA_ISF_EEFiSE_EE6targetERKSt9type_info, symObjAddr: 0x125E8, symBinAddr: 0x2FA20, symSize: 0x3C }
  - { offsetInCU: 0xC47C9, offset: 0x162B5C, size: 0x8, addend: 0x0, symName: __ZNKSt3__110__function6__funcIZN5agora3rtc9extension29FUExtensionDelegateAPIBindingEPNS4_19FUExtensionDelegateEEUlRKNS_12basic_stringIcNS_11char_traitsIcEENS_9allocatorIcEEEEE13_NSA_ISF_EEFiSE_EE11target_typeEv, symObjAddr: 0x12624, symBinAddr: 0x2FA5C, symSize: 0xC }
  - { offsetInCU: 0xC482E, offset: 0x162BC1, size: 0x8, addend: 0x0, symName: __ZNSt3__110__function6__funcIZN5agora3rtc9extension29FUExtensionDelegateAPIBindingEPNS4_19FUExtensionDelegateEEUlRKNS_12basic_stringIcNS_11char_traitsIcEENS_9allocatorIcEEEEE14_NSA_ISF_EEFiSE_EED1Ev, symObjAddr: 0x1273C, symBinAddr: 0x2FB74, symSize: 0x4 }
  - { offsetInCU: 0xC485A, offset: 0x162BED, size: 0x8, addend: 0x0, symName: __ZNSt3__110__function6__funcIZN5agora3rtc9extension29FUExtensionDelegateAPIBindingEPNS4_19FUExtensionDelegateEEUlRKNS_12basic_stringIcNS_11char_traitsIcEENS_9allocatorIcEEEEE14_NSA_ISF_EEFiSE_EED0Ev, symObjAddr: 0x12740, symBinAddr: 0x2FB78, symSize: 0x4 }
  - { offsetInCU: 0xC4A5E, offset: 0x162DF1, size: 0x8, addend: 0x0, symName: __ZNKSt3__110__function6__funcIZN5agora3rtc9extension29FUExtensionDelegateAPIBindingEPNS4_19FUExtensionDelegateEEUlRKNS_12basic_stringIcNS_11char_traitsIcEENS_9allocatorIcEEEEE14_NSA_ISF_EEFiSE_EE7__cloneEv, symObjAddr: 0x12744, symBinAddr: 0x2FB7C, symSize: 0x34 }
  - { offsetInCU: 0xC4D51, offset: 0x1630E4, size: 0x8, addend: 0x0, symName: __ZNKSt3__110__function6__funcIZN5agora3rtc9extension29FUExtensionDelegateAPIBindingEPNS4_19FUExtensionDelegateEEUlRKNS_12basic_stringIcNS_11char_traitsIcEENS_9allocatorIcEEEEE14_NSA_ISF_EEFiSE_EE7__cloneEPNS0_6__baseISH_EE, symObjAddr: 0x12778, symBinAddr: 0x2FBB0, symSize: 0x14 }
  - { offsetInCU: 0xC4D88, offset: 0x16311B, size: 0x8, addend: 0x0, symName: __ZNKSt3__110__function6__funcIZN5agora3rtc9extension29FUExtensionDelegateAPIBindingEPNS4_19FUExtensionDelegateEEUlRKNS_12basic_stringIcNS_11char_traitsIcEENS_9allocatorIcEEEEE14_NSA_ISF_EEFiSE_EE7__cloneEPNS0_6__baseISH_EE, symObjAddr: 0x12778, symBinAddr: 0x2FBB0, symSize: 0x14 }
  - { offsetInCU: 0xC4DB6, offset: 0x163149, size: 0x8, addend: 0x0, symName: __ZNKSt3__110__function6__funcIZN5agora3rtc9extension29FUExtensionDelegateAPIBindingEPNS4_19FUExtensionDelegateEEUlRKNS_12basic_stringIcNS_11char_traitsIcEENS_9allocatorIcEEEEE14_NSA_ISF_EEFiSE_EE7__cloneEPNS0_6__baseISH_EE, symObjAddr: 0x12778, symBinAddr: 0x2FBB0, symSize: 0x14 }
  - { offsetInCU: 0xC4DE4, offset: 0x163177, size: 0x8, addend: 0x0, symName: __ZNKSt3__110__function6__funcIZN5agora3rtc9extension29FUExtensionDelegateAPIBindingEPNS4_19FUExtensionDelegateEEUlRKNS_12basic_stringIcNS_11char_traitsIcEENS_9allocatorIcEEEEE14_NSA_ISF_EEFiSE_EE7__cloneEPNS0_6__baseISH_EE, symObjAddr: 0x12778, symBinAddr: 0x2FBB0, symSize: 0x14 }
  - { offsetInCU: 0xC4DF9, offset: 0x16318C, size: 0x8, addend: 0x0, symName: __ZNKSt3__110__function6__funcIZN5agora3rtc9extension29FUExtensionDelegateAPIBindingEPNS4_19FUExtensionDelegateEEUlRKNS_12basic_stringIcNS_11char_traitsIcEENS_9allocatorIcEEEEE14_NSA_ISF_EEFiSE_EE7__cloneEPNS0_6__baseISH_EE, symObjAddr: 0x12778, symBinAddr: 0x2FBB0, symSize: 0x14 }
  - { offsetInCU: 0xC4E0D, offset: 0x1631A0, size: 0x8, addend: 0x0, symName: __ZNKSt3__110__function6__funcIZN5agora3rtc9extension29FUExtensionDelegateAPIBindingEPNS4_19FUExtensionDelegateEEUlRKNS_12basic_stringIcNS_11char_traitsIcEENS_9allocatorIcEEEEE14_NSA_ISF_EEFiSE_EE7__cloneEPNS0_6__baseISH_EE, symObjAddr: 0x12778, symBinAddr: 0x2FBB0, symSize: 0x14 }
  - { offsetInCU: 0xC4E21, offset: 0x1631B4, size: 0x8, addend: 0x0, symName: __ZNKSt3__110__function6__funcIZN5agora3rtc9extension29FUExtensionDelegateAPIBindingEPNS4_19FUExtensionDelegateEEUlRKNS_12basic_stringIcNS_11char_traitsIcEENS_9allocatorIcEEEEE14_NSA_ISF_EEFiSE_EE7__cloneEPNS0_6__baseISH_EE, symObjAddr: 0x12778, symBinAddr: 0x2FBB0, symSize: 0x14 }
  - { offsetInCU: 0xC4E35, offset: 0x1631C8, size: 0x8, addend: 0x0, symName: __ZNKSt3__110__function6__funcIZN5agora3rtc9extension29FUExtensionDelegateAPIBindingEPNS4_19FUExtensionDelegateEEUlRKNS_12basic_stringIcNS_11char_traitsIcEENS_9allocatorIcEEEEE14_NSA_ISF_EEFiSE_EE7__cloneEPNS0_6__baseISH_EE, symObjAddr: 0x12778, symBinAddr: 0x2FBB0, symSize: 0x14 }
  - { offsetInCU: 0xC4E4E, offset: 0x1631E1, size: 0x8, addend: 0x0, symName: __ZNSt3__110__function6__funcIZN5agora3rtc9extension29FUExtensionDelegateAPIBindingEPNS4_19FUExtensionDelegateEEUlRKNS_12basic_stringIcNS_11char_traitsIcEENS_9allocatorIcEEEEE14_NSA_ISF_EEFiSE_EE7destroyEv, symObjAddr: 0x1278C, symBinAddr: 0x2FBC4, symSize: 0x4 }
  - { offsetInCU: 0xC4EA1, offset: 0x163234, size: 0x8, addend: 0x0, symName: __ZNSt3__110__function6__funcIZN5agora3rtc9extension29FUExtensionDelegateAPIBindingEPNS4_19FUExtensionDelegateEEUlRKNS_12basic_stringIcNS_11char_traitsIcEENS_9allocatorIcEEEEE14_NSA_ISF_EEFiSE_EE18destroy_deallocateEv, symObjAddr: 0x12790, symBinAddr: 0x2FBC8, symSize: 0x4 }
  - { offsetInCU: 0xC4ED6, offset: 0x163269, size: 0x8, addend: 0x0, symName: __ZNSt3__110__function6__funcIZN5agora3rtc9extension29FUExtensionDelegateAPIBindingEPNS4_19FUExtensionDelegateEEUlRKNS_12basic_stringIcNS_11char_traitsIcEENS_9allocatorIcEEEEE14_NSA_ISF_EEFiSE_EE18destroy_deallocateEv, symObjAddr: 0x12790, symBinAddr: 0x2FBC8, symSize: 0x4 }
  - { offsetInCU: 0xC4EF8, offset: 0x16328B, size: 0x8, addend: 0x0, symName: __ZNSt3__110__function6__funcIZN5agora3rtc9extension29FUExtensionDelegateAPIBindingEPNS4_19FUExtensionDelegateEEUlRKNS_12basic_stringIcNS_11char_traitsIcEENS_9allocatorIcEEEEE14_NSA_ISF_EEFiSE_EE18destroy_deallocateEv, symObjAddr: 0x12790, symBinAddr: 0x2FBC8, symSize: 0x4 }
  - { offsetInCU: 0xC4F23, offset: 0x1632B6, size: 0x8, addend: 0x0, symName: __ZNSt3__110__function6__funcIZN5agora3rtc9extension29FUExtensionDelegateAPIBindingEPNS4_19FUExtensionDelegateEEUlRKNS_12basic_stringIcNS_11char_traitsIcEENS_9allocatorIcEEEEE14_NSA_ISF_EEFiSE_EE18destroy_deallocateEv, symObjAddr: 0x12790, symBinAddr: 0x2FBC8, symSize: 0x4 }
  - { offsetInCU: 0xC4F49, offset: 0x1632DC, size: 0x8, addend: 0x0, symName: __ZNSt3__110__function6__funcIZN5agora3rtc9extension29FUExtensionDelegateAPIBindingEPNS4_19FUExtensionDelegateEEUlRKNS_12basic_stringIcNS_11char_traitsIcEENS_9allocatorIcEEEEE14_NSA_ISF_EEFiSE_EE18destroy_deallocateEv, symObjAddr: 0x12790, symBinAddr: 0x2FBC8, symSize: 0x4 }
  - { offsetInCU: 0xC4FC4, offset: 0x163357, size: 0x8, addend: 0x0, symName: __ZNSt3__110__function6__funcIZN5agora3rtc9extension29FUExtensionDelegateAPIBindingEPNS4_19FUExtensionDelegateEEUlRKNS_12basic_stringIcNS_11char_traitsIcEENS_9allocatorIcEEEEE14_NSA_ISF_EEFiSE_EEclESE_, symObjAddr: 0x12794, symBinAddr: 0x2FBCC, symSize: 0x8 }
  - { offsetInCU: 0xC5081, offset: 0x163414, size: 0x8, addend: 0x0, symName: __ZZN5agora3rtc9extension29FUExtensionDelegateAPIBindingEPNS1_19FUExtensionDelegateEENKUlRKNSt3__112basic_stringIcNS4_11char_traitsIcEENS4_9allocatorIcEEEEE14_clESC_, symObjAddr: 0x127E4, symBinAddr: 0x2FC1C, symSize: 0x170 }
  - { offsetInCU: 0xC54FE, offset: 0x163891, size: 0x8, addend: 0x0, symName: __ZNKSt3__110__function6__funcIZN5agora3rtc9extension29FUExtensionDelegateAPIBindingEPNS4_19FUExtensionDelegateEEUlRKNS_12basic_stringIcNS_11char_traitsIcEENS_9allocatorIcEEEEE14_NSA_ISF_EEFiSE_EE6targetERKSt9type_info, symObjAddr: 0x1279C, symBinAddr: 0x2FBD4, symSize: 0x3C }
  - { offsetInCU: 0xC554C, offset: 0x1638DF, size: 0x8, addend: 0x0, symName: __ZNKSt3__110__function6__funcIZN5agora3rtc9extension29FUExtensionDelegateAPIBindingEPNS4_19FUExtensionDelegateEEUlRKNS_12basic_stringIcNS_11char_traitsIcEENS_9allocatorIcEEEEE14_NSA_ISF_EEFiSE_EE11target_typeEv, symObjAddr: 0x127D8, symBinAddr: 0x2FC10, symSize: 0xC }
  - { offsetInCU: 0xC558E, offset: 0x163921, size: 0x8, addend: 0x0, symName: __ZN8nlohmann10basic_jsonINSt3__13mapENS1_6vectorENS1_12basic_stringIcNS1_11char_traitsIcEENS1_9allocatorIcEEEEbxydS7_NS_14adl_serializerENS3_IhNS7_IhEEEEE4findIRA11_KcEENS_6detail9iter_implISD_EEOT_, symObjAddr: 0x12954, symBinAddr: 0x2FD8C, symSize: 0x5C }
  - { offsetInCU: 0xC56D7, offset: 0x163A6A, size: 0x8, addend: 0x0, symName: __ZNSt3__16__treeINS_12__value_typeINS_12basic_stringIcNS_11char_traitsIcEENS_9allocatorIcEEEEN8nlohmann10basic_jsonINS_3mapENS_6vectorES7_bxydS5_NS8_14adl_serializerENSB_IhNS5_IhEEEEEEEENS_19__map_value_compareIS7_SG_NS_4lessIvEELb1EEENS5_ISG_EEE4findIA11_cEENS_15__tree_iteratorISG_PNS_11__tree_nodeISG_PvEElEERKT_, symObjAddr: 0x129B0, symBinAddr: 0x2FDE8, symSize: 0x84 }
  - { offsetInCU: 0xC59A3, offset: 0x163D36, size: 0x8, addend: 0x0, symName: __ZNSt3__110__function6__funcIZN5agora3rtc9extension29FUExtensionDelegateAPIBindingEPNS4_19FUExtensionDelegateEEUlRKNS_12basic_stringIcNS_11char_traitsIcEENS_9allocatorIcEEEEE15_NSA_ISF_EEFiSE_EED1Ev, symObjAddr: 0x12A34, symBinAddr: 0x2FE6C, symSize: 0x4 }
  - { offsetInCU: 0xC59CF, offset: 0x163D62, size: 0x8, addend: 0x0, symName: __ZNSt3__110__function6__funcIZN5agora3rtc9extension29FUExtensionDelegateAPIBindingEPNS4_19FUExtensionDelegateEEUlRKNS_12basic_stringIcNS_11char_traitsIcEENS_9allocatorIcEEEEE15_NSA_ISF_EEFiSE_EED0Ev, symObjAddr: 0x12A38, symBinAddr: 0x2FE70, symSize: 0x4 }
  - { offsetInCU: 0xC5BD3, offset: 0x163F66, size: 0x8, addend: 0x0, symName: __ZNKSt3__110__function6__funcIZN5agora3rtc9extension29FUExtensionDelegateAPIBindingEPNS4_19FUExtensionDelegateEEUlRKNS_12basic_stringIcNS_11char_traitsIcEENS_9allocatorIcEEEEE15_NSA_ISF_EEFiSE_EE7__cloneEv, symObjAddr: 0x12A3C, symBinAddr: 0x2FE74, symSize: 0x34 }
  - { offsetInCU: 0xC5EC6, offset: 0x164259, size: 0x8, addend: 0x0, symName: __ZNKSt3__110__function6__funcIZN5agora3rtc9extension29FUExtensionDelegateAPIBindingEPNS4_19FUExtensionDelegateEEUlRKNS_12basic_stringIcNS_11char_traitsIcEENS_9allocatorIcEEEEE15_NSA_ISF_EEFiSE_EE7__cloneEPNS0_6__baseISH_EE, symObjAddr: 0x12A70, symBinAddr: 0x2FEA8, symSize: 0x14 }
  - { offsetInCU: 0xC5EFD, offset: 0x164290, size: 0x8, addend: 0x0, symName: __ZNKSt3__110__function6__funcIZN5agora3rtc9extension29FUExtensionDelegateAPIBindingEPNS4_19FUExtensionDelegateEEUlRKNS_12basic_stringIcNS_11char_traitsIcEENS_9allocatorIcEEEEE15_NSA_ISF_EEFiSE_EE7__cloneEPNS0_6__baseISH_EE, symObjAddr: 0x12A70, symBinAddr: 0x2FEA8, symSize: 0x14 }
  - { offsetInCU: 0xC5F2B, offset: 0x1642BE, size: 0x8, addend: 0x0, symName: __ZNKSt3__110__function6__funcIZN5agora3rtc9extension29FUExtensionDelegateAPIBindingEPNS4_19FUExtensionDelegateEEUlRKNS_12basic_stringIcNS_11char_traitsIcEENS_9allocatorIcEEEEE15_NSA_ISF_EEFiSE_EE7__cloneEPNS0_6__baseISH_EE, symObjAddr: 0x12A70, symBinAddr: 0x2FEA8, symSize: 0x14 }
  - { offsetInCU: 0xC5F59, offset: 0x1642EC, size: 0x8, addend: 0x0, symName: __ZNKSt3__110__function6__funcIZN5agora3rtc9extension29FUExtensionDelegateAPIBindingEPNS4_19FUExtensionDelegateEEUlRKNS_12basic_stringIcNS_11char_traitsIcEENS_9allocatorIcEEEEE15_NSA_ISF_EEFiSE_EE7__cloneEPNS0_6__baseISH_EE, symObjAddr: 0x12A70, symBinAddr: 0x2FEA8, symSize: 0x14 }
  - { offsetInCU: 0xC5F6E, offset: 0x164301, size: 0x8, addend: 0x0, symName: __ZNKSt3__110__function6__funcIZN5agora3rtc9extension29FUExtensionDelegateAPIBindingEPNS4_19FUExtensionDelegateEEUlRKNS_12basic_stringIcNS_11char_traitsIcEENS_9allocatorIcEEEEE15_NSA_ISF_EEFiSE_EE7__cloneEPNS0_6__baseISH_EE, symObjAddr: 0x12A70, symBinAddr: 0x2FEA8, symSize: 0x14 }
  - { offsetInCU: 0xC5F82, offset: 0x164315, size: 0x8, addend: 0x0, symName: __ZNKSt3__110__function6__funcIZN5agora3rtc9extension29FUExtensionDelegateAPIBindingEPNS4_19FUExtensionDelegateEEUlRKNS_12basic_stringIcNS_11char_traitsIcEENS_9allocatorIcEEEEE15_NSA_ISF_EEFiSE_EE7__cloneEPNS0_6__baseISH_EE, symObjAddr: 0x12A70, symBinAddr: 0x2FEA8, symSize: 0x14 }
  - { offsetInCU: 0xC5F96, offset: 0x164329, size: 0x8, addend: 0x0, symName: __ZNKSt3__110__function6__funcIZN5agora3rtc9extension29FUExtensionDelegateAPIBindingEPNS4_19FUExtensionDelegateEEUlRKNS_12basic_stringIcNS_11char_traitsIcEENS_9allocatorIcEEEEE15_NSA_ISF_EEFiSE_EE7__cloneEPNS0_6__baseISH_EE, symObjAddr: 0x12A70, symBinAddr: 0x2FEA8, symSize: 0x14 }
  - { offsetInCU: 0xC5FAA, offset: 0x16433D, size: 0x8, addend: 0x0, symName: __ZNKSt3__110__function6__funcIZN5agora3rtc9extension29FUExtensionDelegateAPIBindingEPNS4_19FUExtensionDelegateEEUlRKNS_12basic_stringIcNS_11char_traitsIcEENS_9allocatorIcEEEEE15_NSA_ISF_EEFiSE_EE7__cloneEPNS0_6__baseISH_EE, symObjAddr: 0x12A70, symBinAddr: 0x2FEA8, symSize: 0x14 }
  - { offsetInCU: 0xC5FC3, offset: 0x164356, size: 0x8, addend: 0x0, symName: __ZNSt3__110__function6__funcIZN5agora3rtc9extension29FUExtensionDelegateAPIBindingEPNS4_19FUExtensionDelegateEEUlRKNS_12basic_stringIcNS_11char_traitsIcEENS_9allocatorIcEEEEE15_NSA_ISF_EEFiSE_EE7destroyEv, symObjAddr: 0x12A84, symBinAddr: 0x2FEBC, symSize: 0x4 }
  - { offsetInCU: 0xC6016, offset: 0x1643A9, size: 0x8, addend: 0x0, symName: __ZNSt3__110__function6__funcIZN5agora3rtc9extension29FUExtensionDelegateAPIBindingEPNS4_19FUExtensionDelegateEEUlRKNS_12basic_stringIcNS_11char_traitsIcEENS_9allocatorIcEEEEE15_NSA_ISF_EEFiSE_EE18destroy_deallocateEv, symObjAddr: 0x12A88, symBinAddr: 0x2FEC0, symSize: 0x4 }
  - { offsetInCU: 0xC604B, offset: 0x1643DE, size: 0x8, addend: 0x0, symName: __ZNSt3__110__function6__funcIZN5agora3rtc9extension29FUExtensionDelegateAPIBindingEPNS4_19FUExtensionDelegateEEUlRKNS_12basic_stringIcNS_11char_traitsIcEENS_9allocatorIcEEEEE15_NSA_ISF_EEFiSE_EE18destroy_deallocateEv, symObjAddr: 0x12A88, symBinAddr: 0x2FEC0, symSize: 0x4 }
  - { offsetInCU: 0xC606D, offset: 0x164400, size: 0x8, addend: 0x0, symName: __ZNSt3__110__function6__funcIZN5agora3rtc9extension29FUExtensionDelegateAPIBindingEPNS4_19FUExtensionDelegateEEUlRKNS_12basic_stringIcNS_11char_traitsIcEENS_9allocatorIcEEEEE15_NSA_ISF_EEFiSE_EE18destroy_deallocateEv, symObjAddr: 0x12A88, symBinAddr: 0x2FEC0, symSize: 0x4 }
  - { offsetInCU: 0xC6098, offset: 0x16442B, size: 0x8, addend: 0x0, symName: __ZNSt3__110__function6__funcIZN5agora3rtc9extension29FUExtensionDelegateAPIBindingEPNS4_19FUExtensionDelegateEEUlRKNS_12basic_stringIcNS_11char_traitsIcEENS_9allocatorIcEEEEE15_NSA_ISF_EEFiSE_EE18destroy_deallocateEv, symObjAddr: 0x12A88, symBinAddr: 0x2FEC0, symSize: 0x4 }
  - { offsetInCU: 0xC60BE, offset: 0x164451, size: 0x8, addend: 0x0, symName: __ZNSt3__110__function6__funcIZN5agora3rtc9extension29FUExtensionDelegateAPIBindingEPNS4_19FUExtensionDelegateEEUlRKNS_12basic_stringIcNS_11char_traitsIcEENS_9allocatorIcEEEEE15_NSA_ISF_EEFiSE_EE18destroy_deallocateEv, symObjAddr: 0x12A88, symBinAddr: 0x2FEC0, symSize: 0x4 }
  - { offsetInCU: 0xC6139, offset: 0x1644CC, size: 0x8, addend: 0x0, symName: __ZNSt3__110__function6__funcIZN5agora3rtc9extension29FUExtensionDelegateAPIBindingEPNS4_19FUExtensionDelegateEEUlRKNS_12basic_stringIcNS_11char_traitsIcEENS_9allocatorIcEEEEE15_NSA_ISF_EEFiSE_EEclESE_, symObjAddr: 0x12A8C, symBinAddr: 0x2FEC4, symSize: 0x8 }
  - { offsetInCU: 0xC61F6, offset: 0x164589, size: 0x8, addend: 0x0, symName: __ZZN5agora3rtc9extension29FUExtensionDelegateAPIBindingEPNS1_19FUExtensionDelegateEENKUlRKNSt3__112basic_stringIcNS4_11char_traitsIcEENS4_9allocatorIcEEEEE15_clESC_, symObjAddr: 0x12ADC, symBinAddr: 0x2FF14, symSize: 0x178 }
  - { offsetInCU: 0xC6652, offset: 0x1649E5, size: 0x8, addend: 0x0, symName: __ZNKSt3__110__function6__funcIZN5agora3rtc9extension29FUExtensionDelegateAPIBindingEPNS4_19FUExtensionDelegateEEUlRKNS_12basic_stringIcNS_11char_traitsIcEENS_9allocatorIcEEEEE15_NSA_ISF_EEFiSE_EE6targetERKSt9type_info, symObjAddr: 0x12A94, symBinAddr: 0x2FECC, symSize: 0x3C }
  - { offsetInCU: 0xC66A0, offset: 0x164A33, size: 0x8, addend: 0x0, symName: __ZNKSt3__110__function6__funcIZN5agora3rtc9extension29FUExtensionDelegateAPIBindingEPNS4_19FUExtensionDelegateEEUlRKNS_12basic_stringIcNS_11char_traitsIcEENS_9allocatorIcEEEEE15_NSA_ISF_EEFiSE_EE11target_typeEv, symObjAddr: 0x12AD0, symBinAddr: 0x2FF08, symSize: 0xC }
  - { offsetInCU: 0xC66C9, offset: 0x164A5C, size: 0x8, addend: 0x0, symName: __ZNSt3__110__function6__funcIZN5agora3rtc9extension29FUExtensionDelegateAPIBindingEPNS4_19FUExtensionDelegateEEUlRKNS_12basic_stringIcNS_11char_traitsIcEENS_9allocatorIcEEEEE16_NSA_ISF_EEFiSE_EED1Ev, symObjAddr: 0x12C54, symBinAddr: 0x3008C, symSize: 0x4 }
  - { offsetInCU: 0xC66F5, offset: 0x164A88, size: 0x8, addend: 0x0, symName: __ZNSt3__110__function6__funcIZN5agora3rtc9extension29FUExtensionDelegateAPIBindingEPNS4_19FUExtensionDelegateEEUlRKNS_12basic_stringIcNS_11char_traitsIcEENS_9allocatorIcEEEEE16_NSA_ISF_EEFiSE_EED0Ev, symObjAddr: 0x12C58, symBinAddr: 0x30090, symSize: 0x4 }
  - { offsetInCU: 0xC68F9, offset: 0x164C8C, size: 0x8, addend: 0x0, symName: __ZNKSt3__110__function6__funcIZN5agora3rtc9extension29FUExtensionDelegateAPIBindingEPNS4_19FUExtensionDelegateEEUlRKNS_12basic_stringIcNS_11char_traitsIcEENS_9allocatorIcEEEEE16_NSA_ISF_EEFiSE_EE7__cloneEv, symObjAddr: 0x12C5C, symBinAddr: 0x30094, symSize: 0x34 }
  - { offsetInCU: 0xC6BEC, offset: 0x164F7F, size: 0x8, addend: 0x0, symName: __ZNKSt3__110__function6__funcIZN5agora3rtc9extension29FUExtensionDelegateAPIBindingEPNS4_19FUExtensionDelegateEEUlRKNS_12basic_stringIcNS_11char_traitsIcEENS_9allocatorIcEEEEE16_NSA_ISF_EEFiSE_EE7__cloneEPNS0_6__baseISH_EE, symObjAddr: 0x12C90, symBinAddr: 0x300C8, symSize: 0x14 }
  - { offsetInCU: 0xC6C23, offset: 0x164FB6, size: 0x8, addend: 0x0, symName: __ZNKSt3__110__function6__funcIZN5agora3rtc9extension29FUExtensionDelegateAPIBindingEPNS4_19FUExtensionDelegateEEUlRKNS_12basic_stringIcNS_11char_traitsIcEENS_9allocatorIcEEEEE16_NSA_ISF_EEFiSE_EE7__cloneEPNS0_6__baseISH_EE, symObjAddr: 0x12C90, symBinAddr: 0x300C8, symSize: 0x14 }
  - { offsetInCU: 0xC6C51, offset: 0x164FE4, size: 0x8, addend: 0x0, symName: __ZNKSt3__110__function6__funcIZN5agora3rtc9extension29FUExtensionDelegateAPIBindingEPNS4_19FUExtensionDelegateEEUlRKNS_12basic_stringIcNS_11char_traitsIcEENS_9allocatorIcEEEEE16_NSA_ISF_EEFiSE_EE7__cloneEPNS0_6__baseISH_EE, symObjAddr: 0x12C90, symBinAddr: 0x300C8, symSize: 0x14 }
  - { offsetInCU: 0xC6C7F, offset: 0x165012, size: 0x8, addend: 0x0, symName: __ZNKSt3__110__function6__funcIZN5agora3rtc9extension29FUExtensionDelegateAPIBindingEPNS4_19FUExtensionDelegateEEUlRKNS_12basic_stringIcNS_11char_traitsIcEENS_9allocatorIcEEEEE16_NSA_ISF_EEFiSE_EE7__cloneEPNS0_6__baseISH_EE, symObjAddr: 0x12C90, symBinAddr: 0x300C8, symSize: 0x14 }
  - { offsetInCU: 0xC6C94, offset: 0x165027, size: 0x8, addend: 0x0, symName: __ZNKSt3__110__function6__funcIZN5agora3rtc9extension29FUExtensionDelegateAPIBindingEPNS4_19FUExtensionDelegateEEUlRKNS_12basic_stringIcNS_11char_traitsIcEENS_9allocatorIcEEEEE16_NSA_ISF_EEFiSE_EE7__cloneEPNS0_6__baseISH_EE, symObjAddr: 0x12C90, symBinAddr: 0x300C8, symSize: 0x14 }
  - { offsetInCU: 0xC6CA8, offset: 0x16503B, size: 0x8, addend: 0x0, symName: __ZNKSt3__110__function6__funcIZN5agora3rtc9extension29FUExtensionDelegateAPIBindingEPNS4_19FUExtensionDelegateEEUlRKNS_12basic_stringIcNS_11char_traitsIcEENS_9allocatorIcEEEEE16_NSA_ISF_EEFiSE_EE7__cloneEPNS0_6__baseISH_EE, symObjAddr: 0x12C90, symBinAddr: 0x300C8, symSize: 0x14 }
  - { offsetInCU: 0xC6CBC, offset: 0x16504F, size: 0x8, addend: 0x0, symName: __ZNKSt3__110__function6__funcIZN5agora3rtc9extension29FUExtensionDelegateAPIBindingEPNS4_19FUExtensionDelegateEEUlRKNS_12basic_stringIcNS_11char_traitsIcEENS_9allocatorIcEEEEE16_NSA_ISF_EEFiSE_EE7__cloneEPNS0_6__baseISH_EE, symObjAddr: 0x12C90, symBinAddr: 0x300C8, symSize: 0x14 }
  - { offsetInCU: 0xC6CD0, offset: 0x165063, size: 0x8, addend: 0x0, symName: __ZNKSt3__110__function6__funcIZN5agora3rtc9extension29FUExtensionDelegateAPIBindingEPNS4_19FUExtensionDelegateEEUlRKNS_12basic_stringIcNS_11char_traitsIcEENS_9allocatorIcEEEEE16_NSA_ISF_EEFiSE_EE7__cloneEPNS0_6__baseISH_EE, symObjAddr: 0x12C90, symBinAddr: 0x300C8, symSize: 0x14 }
  - { offsetInCU: 0xC6CE9, offset: 0x16507C, size: 0x8, addend: 0x0, symName: __ZNSt3__110__function6__funcIZN5agora3rtc9extension29FUExtensionDelegateAPIBindingEPNS4_19FUExtensionDelegateEEUlRKNS_12basic_stringIcNS_11char_traitsIcEENS_9allocatorIcEEEEE16_NSA_ISF_EEFiSE_EE7destroyEv, symObjAddr: 0x12CA4, symBinAddr: 0x300DC, symSize: 0x4 }
  - { offsetInCU: 0xC6D3C, offset: 0x1650CF, size: 0x8, addend: 0x0, symName: __ZNSt3__110__function6__funcIZN5agora3rtc9extension29FUExtensionDelegateAPIBindingEPNS4_19FUExtensionDelegateEEUlRKNS_12basic_stringIcNS_11char_traitsIcEENS_9allocatorIcEEEEE16_NSA_ISF_EEFiSE_EE18destroy_deallocateEv, symObjAddr: 0x12CA8, symBinAddr: 0x300E0, symSize: 0x4 }
  - { offsetInCU: 0xC6D71, offset: 0x165104, size: 0x8, addend: 0x0, symName: __ZNSt3__110__function6__funcIZN5agora3rtc9extension29FUExtensionDelegateAPIBindingEPNS4_19FUExtensionDelegateEEUlRKNS_12basic_stringIcNS_11char_traitsIcEENS_9allocatorIcEEEEE16_NSA_ISF_EEFiSE_EE18destroy_deallocateEv, symObjAddr: 0x12CA8, symBinAddr: 0x300E0, symSize: 0x4 }
  - { offsetInCU: 0xC6D93, offset: 0x165126, size: 0x8, addend: 0x0, symName: __ZNSt3__110__function6__funcIZN5agora3rtc9extension29FUExtensionDelegateAPIBindingEPNS4_19FUExtensionDelegateEEUlRKNS_12basic_stringIcNS_11char_traitsIcEENS_9allocatorIcEEEEE16_NSA_ISF_EEFiSE_EE18destroy_deallocateEv, symObjAddr: 0x12CA8, symBinAddr: 0x300E0, symSize: 0x4 }
  - { offsetInCU: 0xC6DBE, offset: 0x165151, size: 0x8, addend: 0x0, symName: __ZNSt3__110__function6__funcIZN5agora3rtc9extension29FUExtensionDelegateAPIBindingEPNS4_19FUExtensionDelegateEEUlRKNS_12basic_stringIcNS_11char_traitsIcEENS_9allocatorIcEEEEE16_NSA_ISF_EEFiSE_EE18destroy_deallocateEv, symObjAddr: 0x12CA8, symBinAddr: 0x300E0, symSize: 0x4 }
  - { offsetInCU: 0xC6DE4, offset: 0x165177, size: 0x8, addend: 0x0, symName: __ZNSt3__110__function6__funcIZN5agora3rtc9extension29FUExtensionDelegateAPIBindingEPNS4_19FUExtensionDelegateEEUlRKNS_12basic_stringIcNS_11char_traitsIcEENS_9allocatorIcEEEEE16_NSA_ISF_EEFiSE_EE18destroy_deallocateEv, symObjAddr: 0x12CA8, symBinAddr: 0x300E0, symSize: 0x4 }
  - { offsetInCU: 0xC6E5F, offset: 0x1651F2, size: 0x8, addend: 0x0, symName: __ZNSt3__110__function6__funcIZN5agora3rtc9extension29FUExtensionDelegateAPIBindingEPNS4_19FUExtensionDelegateEEUlRKNS_12basic_stringIcNS_11char_traitsIcEENS_9allocatorIcEEEEE16_NSA_ISF_EEFiSE_EEclESE_, symObjAddr: 0x12CAC, symBinAddr: 0x300E4, symSize: 0x8 }
  - { offsetInCU: 0xC6F1C, offset: 0x1652AF, size: 0x8, addend: 0x0, symName: __ZZN5agora3rtc9extension29FUExtensionDelegateAPIBindingEPNS1_19FUExtensionDelegateEENKUlRKNSt3__112basic_stringIcNS4_11char_traitsIcEENS4_9allocatorIcEEEEE16_clESC_, symObjAddr: 0x12CFC, symBinAddr: 0x30134, symSize: 0x168 }
  - { offsetInCU: 0xC7366, offset: 0x1656F9, size: 0x8, addend: 0x0, symName: __ZNKSt3__110__function6__funcIZN5agora3rtc9extension29FUExtensionDelegateAPIBindingEPNS4_19FUExtensionDelegateEEUlRKNS_12basic_stringIcNS_11char_traitsIcEENS_9allocatorIcEEEEE16_NSA_ISF_EEFiSE_EE6targetERKSt9type_info, symObjAddr: 0x12CB4, symBinAddr: 0x300EC, symSize: 0x3C }
  - { offsetInCU: 0xC73B4, offset: 0x165747, size: 0x8, addend: 0x0, symName: __ZNKSt3__110__function6__funcIZN5agora3rtc9extension29FUExtensionDelegateAPIBindingEPNS4_19FUExtensionDelegateEEUlRKNS_12basic_stringIcNS_11char_traitsIcEENS_9allocatorIcEEEEE16_NSA_ISF_EEFiSE_EE11target_typeEv, symObjAddr: 0x12CF0, symBinAddr: 0x30128, symSize: 0xC }
  - { offsetInCU: 0xC73DD, offset: 0x165770, size: 0x8, addend: 0x0, symName: __ZNSt3__110__function6__funcIZN5agora3rtc9extension29FUExtensionDelegateAPIBindingEPNS4_19FUExtensionDelegateEEUlRKNS_12basic_stringIcNS_11char_traitsIcEENS_9allocatorIcEEEEE17_NSA_ISF_EEFiSE_EED1Ev, symObjAddr: 0x12E64, symBinAddr: 0x3029C, symSize: 0x4 }
  - { offsetInCU: 0xC7409, offset: 0x16579C, size: 0x8, addend: 0x0, symName: __ZNSt3__110__function6__funcIZN5agora3rtc9extension29FUExtensionDelegateAPIBindingEPNS4_19FUExtensionDelegateEEUlRKNS_12basic_stringIcNS_11char_traitsIcEENS_9allocatorIcEEEEE17_NSA_ISF_EEFiSE_EED0Ev, symObjAddr: 0x12E68, symBinAddr: 0x302A0, symSize: 0x4 }
  - { offsetInCU: 0xC760D, offset: 0x1659A0, size: 0x8, addend: 0x0, symName: __ZNKSt3__110__function6__funcIZN5agora3rtc9extension29FUExtensionDelegateAPIBindingEPNS4_19FUExtensionDelegateEEUlRKNS_12basic_stringIcNS_11char_traitsIcEENS_9allocatorIcEEEEE17_NSA_ISF_EEFiSE_EE7__cloneEv, symObjAddr: 0x12E6C, symBinAddr: 0x302A4, symSize: 0x34 }
  - { offsetInCU: 0xC7900, offset: 0x165C93, size: 0x8, addend: 0x0, symName: __ZNKSt3__110__function6__funcIZN5agora3rtc9extension29FUExtensionDelegateAPIBindingEPNS4_19FUExtensionDelegateEEUlRKNS_12basic_stringIcNS_11char_traitsIcEENS_9allocatorIcEEEEE17_NSA_ISF_EEFiSE_EE7__cloneEPNS0_6__baseISH_EE, symObjAddr: 0x12EA0, symBinAddr: 0x302D8, symSize: 0x14 }
  - { offsetInCU: 0xC7937, offset: 0x165CCA, size: 0x8, addend: 0x0, symName: __ZNKSt3__110__function6__funcIZN5agora3rtc9extension29FUExtensionDelegateAPIBindingEPNS4_19FUExtensionDelegateEEUlRKNS_12basic_stringIcNS_11char_traitsIcEENS_9allocatorIcEEEEE17_NSA_ISF_EEFiSE_EE7__cloneEPNS0_6__baseISH_EE, symObjAddr: 0x12EA0, symBinAddr: 0x302D8, symSize: 0x14 }
  - { offsetInCU: 0xC7965, offset: 0x165CF8, size: 0x8, addend: 0x0, symName: __ZNKSt3__110__function6__funcIZN5agora3rtc9extension29FUExtensionDelegateAPIBindingEPNS4_19FUExtensionDelegateEEUlRKNS_12basic_stringIcNS_11char_traitsIcEENS_9allocatorIcEEEEE17_NSA_ISF_EEFiSE_EE7__cloneEPNS0_6__baseISH_EE, symObjAddr: 0x12EA0, symBinAddr: 0x302D8, symSize: 0x14 }
  - { offsetInCU: 0xC7993, offset: 0x165D26, size: 0x8, addend: 0x0, symName: __ZNKSt3__110__function6__funcIZN5agora3rtc9extension29FUExtensionDelegateAPIBindingEPNS4_19FUExtensionDelegateEEUlRKNS_12basic_stringIcNS_11char_traitsIcEENS_9allocatorIcEEEEE17_NSA_ISF_EEFiSE_EE7__cloneEPNS0_6__baseISH_EE, symObjAddr: 0x12EA0, symBinAddr: 0x302D8, symSize: 0x14 }
  - { offsetInCU: 0xC79A8, offset: 0x165D3B, size: 0x8, addend: 0x0, symName: __ZNKSt3__110__function6__funcIZN5agora3rtc9extension29FUExtensionDelegateAPIBindingEPNS4_19FUExtensionDelegateEEUlRKNS_12basic_stringIcNS_11char_traitsIcEENS_9allocatorIcEEEEE17_NSA_ISF_EEFiSE_EE7__cloneEPNS0_6__baseISH_EE, symObjAddr: 0x12EA0, symBinAddr: 0x302D8, symSize: 0x14 }
  - { offsetInCU: 0xC79BC, offset: 0x165D4F, size: 0x8, addend: 0x0, symName: __ZNKSt3__110__function6__funcIZN5agora3rtc9extension29FUExtensionDelegateAPIBindingEPNS4_19FUExtensionDelegateEEUlRKNS_12basic_stringIcNS_11char_traitsIcEENS_9allocatorIcEEEEE17_NSA_ISF_EEFiSE_EE7__cloneEPNS0_6__baseISH_EE, symObjAddr: 0x12EA0, symBinAddr: 0x302D8, symSize: 0x14 }
  - { offsetInCU: 0xC79D0, offset: 0x165D63, size: 0x8, addend: 0x0, symName: __ZNKSt3__110__function6__funcIZN5agora3rtc9extension29FUExtensionDelegateAPIBindingEPNS4_19FUExtensionDelegateEEUlRKNS_12basic_stringIcNS_11char_traitsIcEENS_9allocatorIcEEEEE17_NSA_ISF_EEFiSE_EE7__cloneEPNS0_6__baseISH_EE, symObjAddr: 0x12EA0, symBinAddr: 0x302D8, symSize: 0x14 }
  - { offsetInCU: 0xC79E4, offset: 0x165D77, size: 0x8, addend: 0x0, symName: __ZNKSt3__110__function6__funcIZN5agora3rtc9extension29FUExtensionDelegateAPIBindingEPNS4_19FUExtensionDelegateEEUlRKNS_12basic_stringIcNS_11char_traitsIcEENS_9allocatorIcEEEEE17_NSA_ISF_EEFiSE_EE7__cloneEPNS0_6__baseISH_EE, symObjAddr: 0x12EA0, symBinAddr: 0x302D8, symSize: 0x14 }
  - { offsetInCU: 0xC79FD, offset: 0x165D90, size: 0x8, addend: 0x0, symName: __ZNSt3__110__function6__funcIZN5agora3rtc9extension29FUExtensionDelegateAPIBindingEPNS4_19FUExtensionDelegateEEUlRKNS_12basic_stringIcNS_11char_traitsIcEENS_9allocatorIcEEEEE17_NSA_ISF_EEFiSE_EE7destroyEv, symObjAddr: 0x12EB4, symBinAddr: 0x302EC, symSize: 0x4 }
  - { offsetInCU: 0xC7A50, offset: 0x165DE3, size: 0x8, addend: 0x0, symName: __ZNSt3__110__function6__funcIZN5agora3rtc9extension29FUExtensionDelegateAPIBindingEPNS4_19FUExtensionDelegateEEUlRKNS_12basic_stringIcNS_11char_traitsIcEENS_9allocatorIcEEEEE17_NSA_ISF_EEFiSE_EE18destroy_deallocateEv, symObjAddr: 0x12EB8, symBinAddr: 0x302F0, symSize: 0x4 }
  - { offsetInCU: 0xC7A85, offset: 0x165E18, size: 0x8, addend: 0x0, symName: __ZNSt3__110__function6__funcIZN5agora3rtc9extension29FUExtensionDelegateAPIBindingEPNS4_19FUExtensionDelegateEEUlRKNS_12basic_stringIcNS_11char_traitsIcEENS_9allocatorIcEEEEE17_NSA_ISF_EEFiSE_EE18destroy_deallocateEv, symObjAddr: 0x12EB8, symBinAddr: 0x302F0, symSize: 0x4 }
  - { offsetInCU: 0xC7AA7, offset: 0x165E3A, size: 0x8, addend: 0x0, symName: __ZNSt3__110__function6__funcIZN5agora3rtc9extension29FUExtensionDelegateAPIBindingEPNS4_19FUExtensionDelegateEEUlRKNS_12basic_stringIcNS_11char_traitsIcEENS_9allocatorIcEEEEE17_NSA_ISF_EEFiSE_EE18destroy_deallocateEv, symObjAddr: 0x12EB8, symBinAddr: 0x302F0, symSize: 0x4 }
  - { offsetInCU: 0xC7AD2, offset: 0x165E65, size: 0x8, addend: 0x0, symName: __ZNSt3__110__function6__funcIZN5agora3rtc9extension29FUExtensionDelegateAPIBindingEPNS4_19FUExtensionDelegateEEUlRKNS_12basic_stringIcNS_11char_traitsIcEENS_9allocatorIcEEEEE17_NSA_ISF_EEFiSE_EE18destroy_deallocateEv, symObjAddr: 0x12EB8, symBinAddr: 0x302F0, symSize: 0x4 }
  - { offsetInCU: 0xC7AF8, offset: 0x165E8B, size: 0x8, addend: 0x0, symName: __ZNSt3__110__function6__funcIZN5agora3rtc9extension29FUExtensionDelegateAPIBindingEPNS4_19FUExtensionDelegateEEUlRKNS_12basic_stringIcNS_11char_traitsIcEENS_9allocatorIcEEEEE17_NSA_ISF_EEFiSE_EE18destroy_deallocateEv, symObjAddr: 0x12EB8, symBinAddr: 0x302F0, symSize: 0x4 }
  - { offsetInCU: 0xC7B73, offset: 0x165F06, size: 0x8, addend: 0x0, symName: __ZNSt3__110__function6__funcIZN5agora3rtc9extension29FUExtensionDelegateAPIBindingEPNS4_19FUExtensionDelegateEEUlRKNS_12basic_stringIcNS_11char_traitsIcEENS_9allocatorIcEEEEE17_NSA_ISF_EEFiSE_EEclESE_, symObjAddr: 0x12EBC, symBinAddr: 0x302F4, symSize: 0x8 }
  - { offsetInCU: 0xC7C30, offset: 0x165FC3, size: 0x8, addend: 0x0, symName: __ZZN5agora3rtc9extension29FUExtensionDelegateAPIBindingEPNS1_19FUExtensionDelegateEENKUlRKNSt3__112basic_stringIcNS4_11char_traitsIcEENS4_9allocatorIcEEEEE17_clESC_, symObjAddr: 0x12F0C, symBinAddr: 0x30344, symSize: 0x168 }
  - { offsetInCU: 0xC807A, offset: 0x16640D, size: 0x8, addend: 0x0, symName: __ZNKSt3__110__function6__funcIZN5agora3rtc9extension29FUExtensionDelegateAPIBindingEPNS4_19FUExtensionDelegateEEUlRKNS_12basic_stringIcNS_11char_traitsIcEENS_9allocatorIcEEEEE17_NSA_ISF_EEFiSE_EE6targetERKSt9type_info, symObjAddr: 0x12EC4, symBinAddr: 0x302FC, symSize: 0x3C }
  - { offsetInCU: 0xC80C8, offset: 0x16645B, size: 0x8, addend: 0x0, symName: __ZNKSt3__110__function6__funcIZN5agora3rtc9extension29FUExtensionDelegateAPIBindingEPNS4_19FUExtensionDelegateEEUlRKNS_12basic_stringIcNS_11char_traitsIcEENS_9allocatorIcEEEEE17_NSA_ISF_EEFiSE_EE11target_typeEv, symObjAddr: 0x12F00, symBinAddr: 0x30338, symSize: 0xC }
  - { offsetInCU: 0xC80F1, offset: 0x166484, size: 0x8, addend: 0x0, symName: __ZNSt3__110__function6__funcIZN5agora3rtc9extension29FUExtensionDelegateAPIBindingEPNS4_19FUExtensionDelegateEEUlRKNS_12basic_stringIcNS_11char_traitsIcEENS_9allocatorIcEEEEE18_NSA_ISF_EEFiSE_EED1Ev, symObjAddr: 0x13074, symBinAddr: 0x304AC, symSize: 0x4 }
  - { offsetInCU: 0xC811D, offset: 0x1664B0, size: 0x8, addend: 0x0, symName: __ZNSt3__110__function6__funcIZN5agora3rtc9extension29FUExtensionDelegateAPIBindingEPNS4_19FUExtensionDelegateEEUlRKNS_12basic_stringIcNS_11char_traitsIcEENS_9allocatorIcEEEEE18_NSA_ISF_EEFiSE_EED0Ev, symObjAddr: 0x13078, symBinAddr: 0x304B0, symSize: 0x4 }
  - { offsetInCU: 0xC8321, offset: 0x1666B4, size: 0x8, addend: 0x0, symName: __ZNKSt3__110__function6__funcIZN5agora3rtc9extension29FUExtensionDelegateAPIBindingEPNS4_19FUExtensionDelegateEEUlRKNS_12basic_stringIcNS_11char_traitsIcEENS_9allocatorIcEEEEE18_NSA_ISF_EEFiSE_EE7__cloneEv, symObjAddr: 0x1307C, symBinAddr: 0x304B4, symSize: 0x34 }
  - { offsetInCU: 0xC8614, offset: 0x1669A7, size: 0x8, addend: 0x0, symName: __ZNKSt3__110__function6__funcIZN5agora3rtc9extension29FUExtensionDelegateAPIBindingEPNS4_19FUExtensionDelegateEEUlRKNS_12basic_stringIcNS_11char_traitsIcEENS_9allocatorIcEEEEE18_NSA_ISF_EEFiSE_EE7__cloneEPNS0_6__baseISH_EE, symObjAddr: 0x130B0, symBinAddr: 0x304E8, symSize: 0x14 }
  - { offsetInCU: 0xC864B, offset: 0x1669DE, size: 0x8, addend: 0x0, symName: __ZNKSt3__110__function6__funcIZN5agora3rtc9extension29FUExtensionDelegateAPIBindingEPNS4_19FUExtensionDelegateEEUlRKNS_12basic_stringIcNS_11char_traitsIcEENS_9allocatorIcEEEEE18_NSA_ISF_EEFiSE_EE7__cloneEPNS0_6__baseISH_EE, symObjAddr: 0x130B0, symBinAddr: 0x304E8, symSize: 0x14 }
  - { offsetInCU: 0xC8679, offset: 0x166A0C, size: 0x8, addend: 0x0, symName: __ZNKSt3__110__function6__funcIZN5agora3rtc9extension29FUExtensionDelegateAPIBindingEPNS4_19FUExtensionDelegateEEUlRKNS_12basic_stringIcNS_11char_traitsIcEENS_9allocatorIcEEEEE18_NSA_ISF_EEFiSE_EE7__cloneEPNS0_6__baseISH_EE, symObjAddr: 0x130B0, symBinAddr: 0x304E8, symSize: 0x14 }
  - { offsetInCU: 0xC86A7, offset: 0x166A3A, size: 0x8, addend: 0x0, symName: __ZNKSt3__110__function6__funcIZN5agora3rtc9extension29FUExtensionDelegateAPIBindingEPNS4_19FUExtensionDelegateEEUlRKNS_12basic_stringIcNS_11char_traitsIcEENS_9allocatorIcEEEEE18_NSA_ISF_EEFiSE_EE7__cloneEPNS0_6__baseISH_EE, symObjAddr: 0x130B0, symBinAddr: 0x304E8, symSize: 0x14 }
  - { offsetInCU: 0xC86BC, offset: 0x166A4F, size: 0x8, addend: 0x0, symName: __ZNKSt3__110__function6__funcIZN5agora3rtc9extension29FUExtensionDelegateAPIBindingEPNS4_19FUExtensionDelegateEEUlRKNS_12basic_stringIcNS_11char_traitsIcEENS_9allocatorIcEEEEE18_NSA_ISF_EEFiSE_EE7__cloneEPNS0_6__baseISH_EE, symObjAddr: 0x130B0, symBinAddr: 0x304E8, symSize: 0x14 }
  - { offsetInCU: 0xC86D0, offset: 0x166A63, size: 0x8, addend: 0x0, symName: __ZNKSt3__110__function6__funcIZN5agora3rtc9extension29FUExtensionDelegateAPIBindingEPNS4_19FUExtensionDelegateEEUlRKNS_12basic_stringIcNS_11char_traitsIcEENS_9allocatorIcEEEEE18_NSA_ISF_EEFiSE_EE7__cloneEPNS0_6__baseISH_EE, symObjAddr: 0x130B0, symBinAddr: 0x304E8, symSize: 0x14 }
  - { offsetInCU: 0xC86E4, offset: 0x166A77, size: 0x8, addend: 0x0, symName: __ZNKSt3__110__function6__funcIZN5agora3rtc9extension29FUExtensionDelegateAPIBindingEPNS4_19FUExtensionDelegateEEUlRKNS_12basic_stringIcNS_11char_traitsIcEENS_9allocatorIcEEEEE18_NSA_ISF_EEFiSE_EE7__cloneEPNS0_6__baseISH_EE, symObjAddr: 0x130B0, symBinAddr: 0x304E8, symSize: 0x14 }
  - { offsetInCU: 0xC86F8, offset: 0x166A8B, size: 0x8, addend: 0x0, symName: __ZNKSt3__110__function6__funcIZN5agora3rtc9extension29FUExtensionDelegateAPIBindingEPNS4_19FUExtensionDelegateEEUlRKNS_12basic_stringIcNS_11char_traitsIcEENS_9allocatorIcEEEEE18_NSA_ISF_EEFiSE_EE7__cloneEPNS0_6__baseISH_EE, symObjAddr: 0x130B0, symBinAddr: 0x304E8, symSize: 0x14 }
  - { offsetInCU: 0xC8711, offset: 0x166AA4, size: 0x8, addend: 0x0, symName: __ZNSt3__110__function6__funcIZN5agora3rtc9extension29FUExtensionDelegateAPIBindingEPNS4_19FUExtensionDelegateEEUlRKNS_12basic_stringIcNS_11char_traitsIcEENS_9allocatorIcEEEEE18_NSA_ISF_EEFiSE_EE7destroyEv, symObjAddr: 0x130C4, symBinAddr: 0x304FC, symSize: 0x4 }
  - { offsetInCU: 0xC8764, offset: 0x166AF7, size: 0x8, addend: 0x0, symName: __ZNSt3__110__function6__funcIZN5agora3rtc9extension29FUExtensionDelegateAPIBindingEPNS4_19FUExtensionDelegateEEUlRKNS_12basic_stringIcNS_11char_traitsIcEENS_9allocatorIcEEEEE18_NSA_ISF_EEFiSE_EE18destroy_deallocateEv, symObjAddr: 0x130C8, symBinAddr: 0x30500, symSize: 0x4 }
  - { offsetInCU: 0xC8799, offset: 0x166B2C, size: 0x8, addend: 0x0, symName: __ZNSt3__110__function6__funcIZN5agora3rtc9extension29FUExtensionDelegateAPIBindingEPNS4_19FUExtensionDelegateEEUlRKNS_12basic_stringIcNS_11char_traitsIcEENS_9allocatorIcEEEEE18_NSA_ISF_EEFiSE_EE18destroy_deallocateEv, symObjAddr: 0x130C8, symBinAddr: 0x30500, symSize: 0x4 }
  - { offsetInCU: 0xC87BB, offset: 0x166B4E, size: 0x8, addend: 0x0, symName: __ZNSt3__110__function6__funcIZN5agora3rtc9extension29FUExtensionDelegateAPIBindingEPNS4_19FUExtensionDelegateEEUlRKNS_12basic_stringIcNS_11char_traitsIcEENS_9allocatorIcEEEEE18_NSA_ISF_EEFiSE_EE18destroy_deallocateEv, symObjAddr: 0x130C8, symBinAddr: 0x30500, symSize: 0x4 }
  - { offsetInCU: 0xC87E6, offset: 0x166B79, size: 0x8, addend: 0x0, symName: __ZNSt3__110__function6__funcIZN5agora3rtc9extension29FUExtensionDelegateAPIBindingEPNS4_19FUExtensionDelegateEEUlRKNS_12basic_stringIcNS_11char_traitsIcEENS_9allocatorIcEEEEE18_NSA_ISF_EEFiSE_EE18destroy_deallocateEv, symObjAddr: 0x130C8, symBinAddr: 0x30500, symSize: 0x4 }
  - { offsetInCU: 0xC880C, offset: 0x166B9F, size: 0x8, addend: 0x0, symName: __ZNSt3__110__function6__funcIZN5agora3rtc9extension29FUExtensionDelegateAPIBindingEPNS4_19FUExtensionDelegateEEUlRKNS_12basic_stringIcNS_11char_traitsIcEENS_9allocatorIcEEEEE18_NSA_ISF_EEFiSE_EE18destroy_deallocateEv, symObjAddr: 0x130C8, symBinAddr: 0x30500, symSize: 0x4 }
  - { offsetInCU: 0xC8887, offset: 0x166C1A, size: 0x8, addend: 0x0, symName: __ZNSt3__110__function6__funcIZN5agora3rtc9extension29FUExtensionDelegateAPIBindingEPNS4_19FUExtensionDelegateEEUlRKNS_12basic_stringIcNS_11char_traitsIcEENS_9allocatorIcEEEEE18_NSA_ISF_EEFiSE_EEclESE_, symObjAddr: 0x130CC, symBinAddr: 0x30504, symSize: 0x8 }
  - { offsetInCU: 0xC8944, offset: 0x166CD7, size: 0x8, addend: 0x0, symName: __ZZN5agora3rtc9extension29FUExtensionDelegateAPIBindingEPNS1_19FUExtensionDelegateEENKUlRKNSt3__112basic_stringIcNS4_11char_traitsIcEENS4_9allocatorIcEEEEE18_clESC_, symObjAddr: 0x1311C, symBinAddr: 0x30554, symSize: 0x168 }
  - { offsetInCU: 0xC8D8E, offset: 0x167121, size: 0x8, addend: 0x0, symName: __ZNKSt3__110__function6__funcIZN5agora3rtc9extension29FUExtensionDelegateAPIBindingEPNS4_19FUExtensionDelegateEEUlRKNS_12basic_stringIcNS_11char_traitsIcEENS_9allocatorIcEEEEE18_NSA_ISF_EEFiSE_EE6targetERKSt9type_info, symObjAddr: 0x130D4, symBinAddr: 0x3050C, symSize: 0x3C }
  - { offsetInCU: 0xC8DDC, offset: 0x16716F, size: 0x8, addend: 0x0, symName: __ZNKSt3__110__function6__funcIZN5agora3rtc9extension29FUExtensionDelegateAPIBindingEPNS4_19FUExtensionDelegateEEUlRKNS_12basic_stringIcNS_11char_traitsIcEENS_9allocatorIcEEEEE18_NSA_ISF_EEFiSE_EE11target_typeEv, symObjAddr: 0x13110, symBinAddr: 0x30548, symSize: 0xC }
  - { offsetInCU: 0xC8E05, offset: 0x167198, size: 0x8, addend: 0x0, symName: __ZNSt3__110__function6__funcIZN5agora3rtc9extension29FUExtensionDelegateAPIBindingEPNS4_19FUExtensionDelegateEEUlRKNS_12basic_stringIcNS_11char_traitsIcEENS_9allocatorIcEEEEE19_NSA_ISF_EEFiSE_EED1Ev, symObjAddr: 0x13284, symBinAddr: 0x306BC, symSize: 0x4 }
  - { offsetInCU: 0xC8E31, offset: 0x1671C4, size: 0x8, addend: 0x0, symName: __ZNSt3__110__function6__funcIZN5agora3rtc9extension29FUExtensionDelegateAPIBindingEPNS4_19FUExtensionDelegateEEUlRKNS_12basic_stringIcNS_11char_traitsIcEENS_9allocatorIcEEEEE19_NSA_ISF_EEFiSE_EED0Ev, symObjAddr: 0x13288, symBinAddr: 0x306C0, symSize: 0x4 }
  - { offsetInCU: 0xC9035, offset: 0x1673C8, size: 0x8, addend: 0x0, symName: __ZNKSt3__110__function6__funcIZN5agora3rtc9extension29FUExtensionDelegateAPIBindingEPNS4_19FUExtensionDelegateEEUlRKNS_12basic_stringIcNS_11char_traitsIcEENS_9allocatorIcEEEEE19_NSA_ISF_EEFiSE_EE7__cloneEv, symObjAddr: 0x1328C, symBinAddr: 0x306C4, symSize: 0x34 }
  - { offsetInCU: 0xC9328, offset: 0x1676BB, size: 0x8, addend: 0x0, symName: __ZNKSt3__110__function6__funcIZN5agora3rtc9extension29FUExtensionDelegateAPIBindingEPNS4_19FUExtensionDelegateEEUlRKNS_12basic_stringIcNS_11char_traitsIcEENS_9allocatorIcEEEEE19_NSA_ISF_EEFiSE_EE7__cloneEPNS0_6__baseISH_EE, symObjAddr: 0x132C0, symBinAddr: 0x306F8, symSize: 0x14 }
  - { offsetInCU: 0xC935F, offset: 0x1676F2, size: 0x8, addend: 0x0, symName: __ZNKSt3__110__function6__funcIZN5agora3rtc9extension29FUExtensionDelegateAPIBindingEPNS4_19FUExtensionDelegateEEUlRKNS_12basic_stringIcNS_11char_traitsIcEENS_9allocatorIcEEEEE19_NSA_ISF_EEFiSE_EE7__cloneEPNS0_6__baseISH_EE, symObjAddr: 0x132C0, symBinAddr: 0x306F8, symSize: 0x14 }
  - { offsetInCU: 0xC938D, offset: 0x167720, size: 0x8, addend: 0x0, symName: __ZNKSt3__110__function6__funcIZN5agora3rtc9extension29FUExtensionDelegateAPIBindingEPNS4_19FUExtensionDelegateEEUlRKNS_12basic_stringIcNS_11char_traitsIcEENS_9allocatorIcEEEEE19_NSA_ISF_EEFiSE_EE7__cloneEPNS0_6__baseISH_EE, symObjAddr: 0x132C0, symBinAddr: 0x306F8, symSize: 0x14 }
  - { offsetInCU: 0xC93BB, offset: 0x16774E, size: 0x8, addend: 0x0, symName: __ZNKSt3__110__function6__funcIZN5agora3rtc9extension29FUExtensionDelegateAPIBindingEPNS4_19FUExtensionDelegateEEUlRKNS_12basic_stringIcNS_11char_traitsIcEENS_9allocatorIcEEEEE19_NSA_ISF_EEFiSE_EE7__cloneEPNS0_6__baseISH_EE, symObjAddr: 0x132C0, symBinAddr: 0x306F8, symSize: 0x14 }
  - { offsetInCU: 0xC93D0, offset: 0x167763, size: 0x8, addend: 0x0, symName: __ZNKSt3__110__function6__funcIZN5agora3rtc9extension29FUExtensionDelegateAPIBindingEPNS4_19FUExtensionDelegateEEUlRKNS_12basic_stringIcNS_11char_traitsIcEENS_9allocatorIcEEEEE19_NSA_ISF_EEFiSE_EE7__cloneEPNS0_6__baseISH_EE, symObjAddr: 0x132C0, symBinAddr: 0x306F8, symSize: 0x14 }
  - { offsetInCU: 0xC93E4, offset: 0x167777, size: 0x8, addend: 0x0, symName: __ZNKSt3__110__function6__funcIZN5agora3rtc9extension29FUExtensionDelegateAPIBindingEPNS4_19FUExtensionDelegateEEUlRKNS_12basic_stringIcNS_11char_traitsIcEENS_9allocatorIcEEEEE19_NSA_ISF_EEFiSE_EE7__cloneEPNS0_6__baseISH_EE, symObjAddr: 0x132C0, symBinAddr: 0x306F8, symSize: 0x14 }
  - { offsetInCU: 0xC93F8, offset: 0x16778B, size: 0x8, addend: 0x0, symName: __ZNKSt3__110__function6__funcIZN5agora3rtc9extension29FUExtensionDelegateAPIBindingEPNS4_19FUExtensionDelegateEEUlRKNS_12basic_stringIcNS_11char_traitsIcEENS_9allocatorIcEEEEE19_NSA_ISF_EEFiSE_EE7__cloneEPNS0_6__baseISH_EE, symObjAddr: 0x132C0, symBinAddr: 0x306F8, symSize: 0x14 }
  - { offsetInCU: 0xC940C, offset: 0x16779F, size: 0x8, addend: 0x0, symName: __ZNKSt3__110__function6__funcIZN5agora3rtc9extension29FUExtensionDelegateAPIBindingEPNS4_19FUExtensionDelegateEEUlRKNS_12basic_stringIcNS_11char_traitsIcEENS_9allocatorIcEEEEE19_NSA_ISF_EEFiSE_EE7__cloneEPNS0_6__baseISH_EE, symObjAddr: 0x132C0, symBinAddr: 0x306F8, symSize: 0x14 }
  - { offsetInCU: 0xC9425, offset: 0x1677B8, size: 0x8, addend: 0x0, symName: __ZNSt3__110__function6__funcIZN5agora3rtc9extension29FUExtensionDelegateAPIBindingEPNS4_19FUExtensionDelegateEEUlRKNS_12basic_stringIcNS_11char_traitsIcEENS_9allocatorIcEEEEE19_NSA_ISF_EEFiSE_EE7destroyEv, symObjAddr: 0x132D4, symBinAddr: 0x3070C, symSize: 0x4 }
  - { offsetInCU: 0xC9478, offset: 0x16780B, size: 0x8, addend: 0x0, symName: __ZNSt3__110__function6__funcIZN5agora3rtc9extension29FUExtensionDelegateAPIBindingEPNS4_19FUExtensionDelegateEEUlRKNS_12basic_stringIcNS_11char_traitsIcEENS_9allocatorIcEEEEE19_NSA_ISF_EEFiSE_EE18destroy_deallocateEv, symObjAddr: 0x132D8, symBinAddr: 0x30710, symSize: 0x4 }
  - { offsetInCU: 0xC94AD, offset: 0x167840, size: 0x8, addend: 0x0, symName: __ZNSt3__110__function6__funcIZN5agora3rtc9extension29FUExtensionDelegateAPIBindingEPNS4_19FUExtensionDelegateEEUlRKNS_12basic_stringIcNS_11char_traitsIcEENS_9allocatorIcEEEEE19_NSA_ISF_EEFiSE_EE18destroy_deallocateEv, symObjAddr: 0x132D8, symBinAddr: 0x30710, symSize: 0x4 }
  - { offsetInCU: 0xC94CF, offset: 0x167862, size: 0x8, addend: 0x0, symName: __ZNSt3__110__function6__funcIZN5agora3rtc9extension29FUExtensionDelegateAPIBindingEPNS4_19FUExtensionDelegateEEUlRKNS_12basic_stringIcNS_11char_traitsIcEENS_9allocatorIcEEEEE19_NSA_ISF_EEFiSE_EE18destroy_deallocateEv, symObjAddr: 0x132D8, symBinAddr: 0x30710, symSize: 0x4 }
  - { offsetInCU: 0xC94FA, offset: 0x16788D, size: 0x8, addend: 0x0, symName: __ZNSt3__110__function6__funcIZN5agora3rtc9extension29FUExtensionDelegateAPIBindingEPNS4_19FUExtensionDelegateEEUlRKNS_12basic_stringIcNS_11char_traitsIcEENS_9allocatorIcEEEEE19_NSA_ISF_EEFiSE_EE18destroy_deallocateEv, symObjAddr: 0x132D8, symBinAddr: 0x30710, symSize: 0x4 }
  - { offsetInCU: 0xC9520, offset: 0x1678B3, size: 0x8, addend: 0x0, symName: __ZNSt3__110__function6__funcIZN5agora3rtc9extension29FUExtensionDelegateAPIBindingEPNS4_19FUExtensionDelegateEEUlRKNS_12basic_stringIcNS_11char_traitsIcEENS_9allocatorIcEEEEE19_NSA_ISF_EEFiSE_EE18destroy_deallocateEv, symObjAddr: 0x132D8, symBinAddr: 0x30710, symSize: 0x4 }
  - { offsetInCU: 0xC956B, offset: 0x1678FE, size: 0x8, addend: 0x0, symName: __ZNSt3__110__function6__funcIZN5agora3rtc9extension29FUExtensionDelegateAPIBindingEPNS4_19FUExtensionDelegateEEUlRKNS_12basic_stringIcNS_11char_traitsIcEENS_9allocatorIcEEEEE19_NSA_ISF_EEFiSE_EEclESE_, symObjAddr: 0x132DC, symBinAddr: 0x30714, symSize: 0x8 }
  - { offsetInCU: 0xC95DC, offset: 0x16796F, size: 0x8, addend: 0x0, symName: __ZNSt3__128__invoke_void_return_wrapperIiLb0EE6__callIJRZN5agora3rtc9extension29FUExtensionDelegateAPIBindingEPNS5_19FUExtensionDelegateEEUlRKNS_12basic_stringIcNS_11char_traitsIcEENS_9allocatorIcEEEEE19_SF_EEEiDpOT_, symObjAddr: 0x1332C, symBinAddr: 0x30764, symSize: 0xF0 }
  - { offsetInCU: 0xC986D, offset: 0x167C00, size: 0x8, addend: 0x0, symName: __ZNKSt3__110__function6__funcIZN5agora3rtc9extension29FUExtensionDelegateAPIBindingEPNS4_19FUExtensionDelegateEEUlRKNS_12basic_stringIcNS_11char_traitsIcEENS_9allocatorIcEEEEE19_NSA_ISF_EEFiSE_EE6targetERKSt9type_info, symObjAddr: 0x132E4, symBinAddr: 0x3071C, symSize: 0x3C }
  - { offsetInCU: 0xC98BB, offset: 0x167C4E, size: 0x8, addend: 0x0, symName: __ZNKSt3__110__function6__funcIZN5agora3rtc9extension29FUExtensionDelegateAPIBindingEPNS4_19FUExtensionDelegateEEUlRKNS_12basic_stringIcNS_11char_traitsIcEENS_9allocatorIcEEEEE19_NSA_ISF_EEFiSE_EE11target_typeEv, symObjAddr: 0x13320, symBinAddr: 0x30758, symSize: 0xC }
  - { offsetInCU: 0xC9920, offset: 0x167CB3, size: 0x8, addend: 0x0, symName: __ZNSt3__110__function6__funcIZN5agora3rtc9extension29FUExtensionDelegateAPIBindingEPNS4_19FUExtensionDelegateEEUlRKNS_12basic_stringIcNS_11char_traitsIcEENS_9allocatorIcEEEEE20_NSA_ISF_EEFiSE_EED1Ev, symObjAddr: 0x1341C, symBinAddr: 0x30854, symSize: 0x4 }
  - { offsetInCU: 0xC994C, offset: 0x167CDF, size: 0x8, addend: 0x0, symName: __ZNSt3__110__function6__funcIZN5agora3rtc9extension29FUExtensionDelegateAPIBindingEPNS4_19FUExtensionDelegateEEUlRKNS_12basic_stringIcNS_11char_traitsIcEENS_9allocatorIcEEEEE20_NSA_ISF_EEFiSE_EED0Ev, symObjAddr: 0x13420, symBinAddr: 0x30858, symSize: 0x4 }
  - { offsetInCU: 0xC9B50, offset: 0x167EE3, size: 0x8, addend: 0x0, symName: __ZNKSt3__110__function6__funcIZN5agora3rtc9extension29FUExtensionDelegateAPIBindingEPNS4_19FUExtensionDelegateEEUlRKNS_12basic_stringIcNS_11char_traitsIcEENS_9allocatorIcEEEEE20_NSA_ISF_EEFiSE_EE7__cloneEv, symObjAddr: 0x13424, symBinAddr: 0x3085C, symSize: 0x34 }
  - { offsetInCU: 0xC9E43, offset: 0x1681D6, size: 0x8, addend: 0x0, symName: __ZNKSt3__110__function6__funcIZN5agora3rtc9extension29FUExtensionDelegateAPIBindingEPNS4_19FUExtensionDelegateEEUlRKNS_12basic_stringIcNS_11char_traitsIcEENS_9allocatorIcEEEEE20_NSA_ISF_EEFiSE_EE7__cloneEPNS0_6__baseISH_EE, symObjAddr: 0x13458, symBinAddr: 0x30890, symSize: 0x14 }
  - { offsetInCU: 0xC9E7A, offset: 0x16820D, size: 0x8, addend: 0x0, symName: __ZNKSt3__110__function6__funcIZN5agora3rtc9extension29FUExtensionDelegateAPIBindingEPNS4_19FUExtensionDelegateEEUlRKNS_12basic_stringIcNS_11char_traitsIcEENS_9allocatorIcEEEEE20_NSA_ISF_EEFiSE_EE7__cloneEPNS0_6__baseISH_EE, symObjAddr: 0x13458, symBinAddr: 0x30890, symSize: 0x14 }
  - { offsetInCU: 0xC9EA8, offset: 0x16823B, size: 0x8, addend: 0x0, symName: __ZNKSt3__110__function6__funcIZN5agora3rtc9extension29FUExtensionDelegateAPIBindingEPNS4_19FUExtensionDelegateEEUlRKNS_12basic_stringIcNS_11char_traitsIcEENS_9allocatorIcEEEEE20_NSA_ISF_EEFiSE_EE7__cloneEPNS0_6__baseISH_EE, symObjAddr: 0x13458, symBinAddr: 0x30890, symSize: 0x14 }
  - { offsetInCU: 0xC9ED6, offset: 0x168269, size: 0x8, addend: 0x0, symName: __ZNKSt3__110__function6__funcIZN5agora3rtc9extension29FUExtensionDelegateAPIBindingEPNS4_19FUExtensionDelegateEEUlRKNS_12basic_stringIcNS_11char_traitsIcEENS_9allocatorIcEEEEE20_NSA_ISF_EEFiSE_EE7__cloneEPNS0_6__baseISH_EE, symObjAddr: 0x13458, symBinAddr: 0x30890, symSize: 0x14 }
  - { offsetInCU: 0xC9EEB, offset: 0x16827E, size: 0x8, addend: 0x0, symName: __ZNKSt3__110__function6__funcIZN5agora3rtc9extension29FUExtensionDelegateAPIBindingEPNS4_19FUExtensionDelegateEEUlRKNS_12basic_stringIcNS_11char_traitsIcEENS_9allocatorIcEEEEE20_NSA_ISF_EEFiSE_EE7__cloneEPNS0_6__baseISH_EE, symObjAddr: 0x13458, symBinAddr: 0x30890, symSize: 0x14 }
  - { offsetInCU: 0xC9EFF, offset: 0x168292, size: 0x8, addend: 0x0, symName: __ZNKSt3__110__function6__funcIZN5agora3rtc9extension29FUExtensionDelegateAPIBindingEPNS4_19FUExtensionDelegateEEUlRKNS_12basic_stringIcNS_11char_traitsIcEENS_9allocatorIcEEEEE20_NSA_ISF_EEFiSE_EE7__cloneEPNS0_6__baseISH_EE, symObjAddr: 0x13458, symBinAddr: 0x30890, symSize: 0x14 }
  - { offsetInCU: 0xC9F13, offset: 0x1682A6, size: 0x8, addend: 0x0, symName: __ZNKSt3__110__function6__funcIZN5agora3rtc9extension29FUExtensionDelegateAPIBindingEPNS4_19FUExtensionDelegateEEUlRKNS_12basic_stringIcNS_11char_traitsIcEENS_9allocatorIcEEEEE20_NSA_ISF_EEFiSE_EE7__cloneEPNS0_6__baseISH_EE, symObjAddr: 0x13458, symBinAddr: 0x30890, symSize: 0x14 }
  - { offsetInCU: 0xC9F27, offset: 0x1682BA, size: 0x8, addend: 0x0, symName: __ZNKSt3__110__function6__funcIZN5agora3rtc9extension29FUExtensionDelegateAPIBindingEPNS4_19FUExtensionDelegateEEUlRKNS_12basic_stringIcNS_11char_traitsIcEENS_9allocatorIcEEEEE20_NSA_ISF_EEFiSE_EE7__cloneEPNS0_6__baseISH_EE, symObjAddr: 0x13458, symBinAddr: 0x30890, symSize: 0x14 }
  - { offsetInCU: 0xC9F40, offset: 0x1682D3, size: 0x8, addend: 0x0, symName: __ZNSt3__110__function6__funcIZN5agora3rtc9extension29FUExtensionDelegateAPIBindingEPNS4_19FUExtensionDelegateEEUlRKNS_12basic_stringIcNS_11char_traitsIcEENS_9allocatorIcEEEEE20_NSA_ISF_EEFiSE_EE7destroyEv, symObjAddr: 0x1346C, symBinAddr: 0x308A4, symSize: 0x4 }
  - { offsetInCU: 0xC9F93, offset: 0x168326, size: 0x8, addend: 0x0, symName: __ZNSt3__110__function6__funcIZN5agora3rtc9extension29FUExtensionDelegateAPIBindingEPNS4_19FUExtensionDelegateEEUlRKNS_12basic_stringIcNS_11char_traitsIcEENS_9allocatorIcEEEEE20_NSA_ISF_EEFiSE_EE18destroy_deallocateEv, symObjAddr: 0x13470, symBinAddr: 0x308A8, symSize: 0x4 }
  - { offsetInCU: 0xC9FC8, offset: 0x16835B, size: 0x8, addend: 0x0, symName: __ZNSt3__110__function6__funcIZN5agora3rtc9extension29FUExtensionDelegateAPIBindingEPNS4_19FUExtensionDelegateEEUlRKNS_12basic_stringIcNS_11char_traitsIcEENS_9allocatorIcEEEEE20_NSA_ISF_EEFiSE_EE18destroy_deallocateEv, symObjAddr: 0x13470, symBinAddr: 0x308A8, symSize: 0x4 }
  - { offsetInCU: 0xC9FEA, offset: 0x16837D, size: 0x8, addend: 0x0, symName: __ZNSt3__110__function6__funcIZN5agora3rtc9extension29FUExtensionDelegateAPIBindingEPNS4_19FUExtensionDelegateEEUlRKNS_12basic_stringIcNS_11char_traitsIcEENS_9allocatorIcEEEEE20_NSA_ISF_EEFiSE_EE18destroy_deallocateEv, symObjAddr: 0x13470, symBinAddr: 0x308A8, symSize: 0x4 }
  - { offsetInCU: 0xCA015, offset: 0x1683A8, size: 0x8, addend: 0x0, symName: __ZNSt3__110__function6__funcIZN5agora3rtc9extension29FUExtensionDelegateAPIBindingEPNS4_19FUExtensionDelegateEEUlRKNS_12basic_stringIcNS_11char_traitsIcEENS_9allocatorIcEEEEE20_NSA_ISF_EEFiSE_EE18destroy_deallocateEv, symObjAddr: 0x13470, symBinAddr: 0x308A8, symSize: 0x4 }
  - { offsetInCU: 0xCA03B, offset: 0x1683CE, size: 0x8, addend: 0x0, symName: __ZNSt3__110__function6__funcIZN5agora3rtc9extension29FUExtensionDelegateAPIBindingEPNS4_19FUExtensionDelegateEEUlRKNS_12basic_stringIcNS_11char_traitsIcEENS_9allocatorIcEEEEE20_NSA_ISF_EEFiSE_EE18destroy_deallocateEv, symObjAddr: 0x13470, symBinAddr: 0x308A8, symSize: 0x4 }
  - { offsetInCU: 0xCA0B6, offset: 0x168449, size: 0x8, addend: 0x0, symName: __ZNSt3__110__function6__funcIZN5agora3rtc9extension29FUExtensionDelegateAPIBindingEPNS4_19FUExtensionDelegateEEUlRKNS_12basic_stringIcNS_11char_traitsIcEENS_9allocatorIcEEEEE20_NSA_ISF_EEFiSE_EEclESE_, symObjAddr: 0x13474, symBinAddr: 0x308AC, symSize: 0x8 }
  - { offsetInCU: 0xCA173, offset: 0x168506, size: 0x8, addend: 0x0, symName: __ZZN5agora3rtc9extension29FUExtensionDelegateAPIBindingEPNS1_19FUExtensionDelegateEENKUlRKNSt3__112basic_stringIcNS4_11char_traitsIcEENS4_9allocatorIcEEEEE20_clESC_, symObjAddr: 0x134C4, symBinAddr: 0x308FC, symSize: 0x170 }
  - { offsetInCU: 0xCA5F1, offset: 0x168984, size: 0x8, addend: 0x0, symName: __ZNKSt3__110__function6__funcIZN5agora3rtc9extension29FUExtensionDelegateAPIBindingEPNS4_19FUExtensionDelegateEEUlRKNS_12basic_stringIcNS_11char_traitsIcEENS_9allocatorIcEEEEE20_NSA_ISF_EEFiSE_EE6targetERKSt9type_info, symObjAddr: 0x1347C, symBinAddr: 0x308B4, symSize: 0x3C }
  - { offsetInCU: 0xCA63F, offset: 0x1689D2, size: 0x8, addend: 0x0, symName: __ZNKSt3__110__function6__funcIZN5agora3rtc9extension29FUExtensionDelegateAPIBindingEPNS4_19FUExtensionDelegateEEUlRKNS_12basic_stringIcNS_11char_traitsIcEENS_9allocatorIcEEEEE20_NSA_ISF_EEFiSE_EE11target_typeEv, symObjAddr: 0x134B8, symBinAddr: 0x308F0, symSize: 0xC }
  - { offsetInCU: 0xCA668, offset: 0x1689FB, size: 0x8, addend: 0x0, symName: __ZNSt3__110__function6__funcIZN5agora3rtc9extension29FUExtensionDelegateAPIBindingEPNS4_19FUExtensionDelegateEEUlRKNS_12basic_stringIcNS_11char_traitsIcEENS_9allocatorIcEEEEE21_NSA_ISF_EEFiSE_EED1Ev, symObjAddr: 0x13634, symBinAddr: 0x30A6C, symSize: 0x4 }
  - { offsetInCU: 0xCA694, offset: 0x168A27, size: 0x8, addend: 0x0, symName: __ZNSt3__110__function6__funcIZN5agora3rtc9extension29FUExtensionDelegateAPIBindingEPNS4_19FUExtensionDelegateEEUlRKNS_12basic_stringIcNS_11char_traitsIcEENS_9allocatorIcEEEEE21_NSA_ISF_EEFiSE_EED0Ev, symObjAddr: 0x13638, symBinAddr: 0x30A70, symSize: 0x4 }
  - { offsetInCU: 0xCA898, offset: 0x168C2B, size: 0x8, addend: 0x0, symName: __ZNKSt3__110__function6__funcIZN5agora3rtc9extension29FUExtensionDelegateAPIBindingEPNS4_19FUExtensionDelegateEEUlRKNS_12basic_stringIcNS_11char_traitsIcEENS_9allocatorIcEEEEE21_NSA_ISF_EEFiSE_EE7__cloneEv, symObjAddr: 0x1363C, symBinAddr: 0x30A74, symSize: 0x34 }
  - { offsetInCU: 0xCAB8B, offset: 0x168F1E, size: 0x8, addend: 0x0, symName: __ZNKSt3__110__function6__funcIZN5agora3rtc9extension29FUExtensionDelegateAPIBindingEPNS4_19FUExtensionDelegateEEUlRKNS_12basic_stringIcNS_11char_traitsIcEENS_9allocatorIcEEEEE21_NSA_ISF_EEFiSE_EE7__cloneEPNS0_6__baseISH_EE, symObjAddr: 0x13670, symBinAddr: 0x30AA8, symSize: 0x14 }
  - { offsetInCU: 0xCABC2, offset: 0x168F55, size: 0x8, addend: 0x0, symName: __ZNKSt3__110__function6__funcIZN5agora3rtc9extension29FUExtensionDelegateAPIBindingEPNS4_19FUExtensionDelegateEEUlRKNS_12basic_stringIcNS_11char_traitsIcEENS_9allocatorIcEEEEE21_NSA_ISF_EEFiSE_EE7__cloneEPNS0_6__baseISH_EE, symObjAddr: 0x13670, symBinAddr: 0x30AA8, symSize: 0x14 }
  - { offsetInCU: 0xCABF0, offset: 0x168F83, size: 0x8, addend: 0x0, symName: __ZNKSt3__110__function6__funcIZN5agora3rtc9extension29FUExtensionDelegateAPIBindingEPNS4_19FUExtensionDelegateEEUlRKNS_12basic_stringIcNS_11char_traitsIcEENS_9allocatorIcEEEEE21_NSA_ISF_EEFiSE_EE7__cloneEPNS0_6__baseISH_EE, symObjAddr: 0x13670, symBinAddr: 0x30AA8, symSize: 0x14 }
  - { offsetInCU: 0xCAC1E, offset: 0x168FB1, size: 0x8, addend: 0x0, symName: __ZNKSt3__110__function6__funcIZN5agora3rtc9extension29FUExtensionDelegateAPIBindingEPNS4_19FUExtensionDelegateEEUlRKNS_12basic_stringIcNS_11char_traitsIcEENS_9allocatorIcEEEEE21_NSA_ISF_EEFiSE_EE7__cloneEPNS0_6__baseISH_EE, symObjAddr: 0x13670, symBinAddr: 0x30AA8, symSize: 0x14 }
  - { offsetInCU: 0xCAC33, offset: 0x168FC6, size: 0x8, addend: 0x0, symName: __ZNKSt3__110__function6__funcIZN5agora3rtc9extension29FUExtensionDelegateAPIBindingEPNS4_19FUExtensionDelegateEEUlRKNS_12basic_stringIcNS_11char_traitsIcEENS_9allocatorIcEEEEE21_NSA_ISF_EEFiSE_EE7__cloneEPNS0_6__baseISH_EE, symObjAddr: 0x13670, symBinAddr: 0x30AA8, symSize: 0x14 }
  - { offsetInCU: 0xCAC47, offset: 0x168FDA, size: 0x8, addend: 0x0, symName: __ZNKSt3__110__function6__funcIZN5agora3rtc9extension29FUExtensionDelegateAPIBindingEPNS4_19FUExtensionDelegateEEUlRKNS_12basic_stringIcNS_11char_traitsIcEENS_9allocatorIcEEEEE21_NSA_ISF_EEFiSE_EE7__cloneEPNS0_6__baseISH_EE, symObjAddr: 0x13670, symBinAddr: 0x30AA8, symSize: 0x14 }
  - { offsetInCU: 0xCAC5B, offset: 0x168FEE, size: 0x8, addend: 0x0, symName: __ZNKSt3__110__function6__funcIZN5agora3rtc9extension29FUExtensionDelegateAPIBindingEPNS4_19FUExtensionDelegateEEUlRKNS_12basic_stringIcNS_11char_traitsIcEENS_9allocatorIcEEEEE21_NSA_ISF_EEFiSE_EE7__cloneEPNS0_6__baseISH_EE, symObjAddr: 0x13670, symBinAddr: 0x30AA8, symSize: 0x14 }
  - { offsetInCU: 0xCAC6F, offset: 0x169002, size: 0x8, addend: 0x0, symName: __ZNKSt3__110__function6__funcIZN5agora3rtc9extension29FUExtensionDelegateAPIBindingEPNS4_19FUExtensionDelegateEEUlRKNS_12basic_stringIcNS_11char_traitsIcEENS_9allocatorIcEEEEE21_NSA_ISF_EEFiSE_EE7__cloneEPNS0_6__baseISH_EE, symObjAddr: 0x13670, symBinAddr: 0x30AA8, symSize: 0x14 }
  - { offsetInCU: 0xCAC88, offset: 0x16901B, size: 0x8, addend: 0x0, symName: __ZNSt3__110__function6__funcIZN5agora3rtc9extension29FUExtensionDelegateAPIBindingEPNS4_19FUExtensionDelegateEEUlRKNS_12basic_stringIcNS_11char_traitsIcEENS_9allocatorIcEEEEE21_NSA_ISF_EEFiSE_EE7destroyEv, symObjAddr: 0x13684, symBinAddr: 0x30ABC, symSize: 0x4 }
  - { offsetInCU: 0xCACDB, offset: 0x16906E, size: 0x8, addend: 0x0, symName: __ZNSt3__110__function6__funcIZN5agora3rtc9extension29FUExtensionDelegateAPIBindingEPNS4_19FUExtensionDelegateEEUlRKNS_12basic_stringIcNS_11char_traitsIcEENS_9allocatorIcEEEEE21_NSA_ISF_EEFiSE_EE18destroy_deallocateEv, symObjAddr: 0x13688, symBinAddr: 0x30AC0, symSize: 0x4 }
  - { offsetInCU: 0xCAD10, offset: 0x1690A3, size: 0x8, addend: 0x0, symName: __ZNSt3__110__function6__funcIZN5agora3rtc9extension29FUExtensionDelegateAPIBindingEPNS4_19FUExtensionDelegateEEUlRKNS_12basic_stringIcNS_11char_traitsIcEENS_9allocatorIcEEEEE21_NSA_ISF_EEFiSE_EE18destroy_deallocateEv, symObjAddr: 0x13688, symBinAddr: 0x30AC0, symSize: 0x4 }
  - { offsetInCU: 0xCAD32, offset: 0x1690C5, size: 0x8, addend: 0x0, symName: __ZNSt3__110__function6__funcIZN5agora3rtc9extension29FUExtensionDelegateAPIBindingEPNS4_19FUExtensionDelegateEEUlRKNS_12basic_stringIcNS_11char_traitsIcEENS_9allocatorIcEEEEE21_NSA_ISF_EEFiSE_EE18destroy_deallocateEv, symObjAddr: 0x13688, symBinAddr: 0x30AC0, symSize: 0x4 }
  - { offsetInCU: 0xCAD5D, offset: 0x1690F0, size: 0x8, addend: 0x0, symName: __ZNSt3__110__function6__funcIZN5agora3rtc9extension29FUExtensionDelegateAPIBindingEPNS4_19FUExtensionDelegateEEUlRKNS_12basic_stringIcNS_11char_traitsIcEENS_9allocatorIcEEEEE21_NSA_ISF_EEFiSE_EE18destroy_deallocateEv, symObjAddr: 0x13688, symBinAddr: 0x30AC0, symSize: 0x4 }
  - { offsetInCU: 0xCAD83, offset: 0x169116, size: 0x8, addend: 0x0, symName: __ZNSt3__110__function6__funcIZN5agora3rtc9extension29FUExtensionDelegateAPIBindingEPNS4_19FUExtensionDelegateEEUlRKNS_12basic_stringIcNS_11char_traitsIcEENS_9allocatorIcEEEEE21_NSA_ISF_EEFiSE_EE18destroy_deallocateEv, symObjAddr: 0x13688, symBinAddr: 0x30AC0, symSize: 0x4 }
  - { offsetInCU: 0xCADFE, offset: 0x169191, size: 0x8, addend: 0x0, symName: __ZNSt3__110__function6__funcIZN5agora3rtc9extension29FUExtensionDelegateAPIBindingEPNS4_19FUExtensionDelegateEEUlRKNS_12basic_stringIcNS_11char_traitsIcEENS_9allocatorIcEEEEE21_NSA_ISF_EEFiSE_EEclESE_, symObjAddr: 0x1368C, symBinAddr: 0x30AC4, symSize: 0x8 }
  - { offsetInCU: 0xCAEBB, offset: 0x16924E, size: 0x8, addend: 0x0, symName: __ZZN5agora3rtc9extension29FUExtensionDelegateAPIBindingEPNS1_19FUExtensionDelegateEENKUlRKNSt3__112basic_stringIcNS4_11char_traitsIcEENS4_9allocatorIcEEEEE21_clESC_, symObjAddr: 0x136DC, symBinAddr: 0x30B14, symSize: 0x168 }
  - { offsetInCU: 0xCB305, offset: 0x169698, size: 0x8, addend: 0x0, symName: __ZNKSt3__110__function6__funcIZN5agora3rtc9extension29FUExtensionDelegateAPIBindingEPNS4_19FUExtensionDelegateEEUlRKNS_12basic_stringIcNS_11char_traitsIcEENS_9allocatorIcEEEEE21_NSA_ISF_EEFiSE_EE6targetERKSt9type_info, symObjAddr: 0x13694, symBinAddr: 0x30ACC, symSize: 0x3C }
  - { offsetInCU: 0xCB353, offset: 0x1696E6, size: 0x8, addend: 0x0, symName: __ZNKSt3__110__function6__funcIZN5agora3rtc9extension29FUExtensionDelegateAPIBindingEPNS4_19FUExtensionDelegateEEUlRKNS_12basic_stringIcNS_11char_traitsIcEENS_9allocatorIcEEEEE21_NSA_ISF_EEFiSE_EE11target_typeEv, symObjAddr: 0x136D0, symBinAddr: 0x30B08, symSize: 0xC }
  - { offsetInCU: 0xCB37C, offset: 0x16970F, size: 0x8, addend: 0x0, symName: __ZNSt3__110__function6__funcIZN5agora3rtc9extension29FUExtensionDelegateAPIBindingEPNS4_19FUExtensionDelegateEEUlRKNS_12basic_stringIcNS_11char_traitsIcEENS_9allocatorIcEEEEE22_NSA_ISF_EEFiSE_EED1Ev, symObjAddr: 0x13844, symBinAddr: 0x30C7C, symSize: 0x4 }
  - { offsetInCU: 0xCB3A8, offset: 0x16973B, size: 0x8, addend: 0x0, symName: __ZNSt3__110__function6__funcIZN5agora3rtc9extension29FUExtensionDelegateAPIBindingEPNS4_19FUExtensionDelegateEEUlRKNS_12basic_stringIcNS_11char_traitsIcEENS_9allocatorIcEEEEE22_NSA_ISF_EEFiSE_EED0Ev, symObjAddr: 0x13848, symBinAddr: 0x30C80, symSize: 0x4 }
  - { offsetInCU: 0xCB5AC, offset: 0x16993F, size: 0x8, addend: 0x0, symName: __ZNKSt3__110__function6__funcIZN5agora3rtc9extension29FUExtensionDelegateAPIBindingEPNS4_19FUExtensionDelegateEEUlRKNS_12basic_stringIcNS_11char_traitsIcEENS_9allocatorIcEEEEE22_NSA_ISF_EEFiSE_EE7__cloneEv, symObjAddr: 0x1384C, symBinAddr: 0x30C84, symSize: 0x34 }
  - { offsetInCU: 0xCB89F, offset: 0x169C32, size: 0x8, addend: 0x0, symName: __ZNKSt3__110__function6__funcIZN5agora3rtc9extension29FUExtensionDelegateAPIBindingEPNS4_19FUExtensionDelegateEEUlRKNS_12basic_stringIcNS_11char_traitsIcEENS_9allocatorIcEEEEE22_NSA_ISF_EEFiSE_EE7__cloneEPNS0_6__baseISH_EE, symObjAddr: 0x13880, symBinAddr: 0x30CB8, symSize: 0x14 }
  - { offsetInCU: 0xCB8D6, offset: 0x169C69, size: 0x8, addend: 0x0, symName: __ZNKSt3__110__function6__funcIZN5agora3rtc9extension29FUExtensionDelegateAPIBindingEPNS4_19FUExtensionDelegateEEUlRKNS_12basic_stringIcNS_11char_traitsIcEENS_9allocatorIcEEEEE22_NSA_ISF_EEFiSE_EE7__cloneEPNS0_6__baseISH_EE, symObjAddr: 0x13880, symBinAddr: 0x30CB8, symSize: 0x14 }
  - { offsetInCU: 0xCB904, offset: 0x169C97, size: 0x8, addend: 0x0, symName: __ZNKSt3__110__function6__funcIZN5agora3rtc9extension29FUExtensionDelegateAPIBindingEPNS4_19FUExtensionDelegateEEUlRKNS_12basic_stringIcNS_11char_traitsIcEENS_9allocatorIcEEEEE22_NSA_ISF_EEFiSE_EE7__cloneEPNS0_6__baseISH_EE, symObjAddr: 0x13880, symBinAddr: 0x30CB8, symSize: 0x14 }
  - { offsetInCU: 0xCB932, offset: 0x169CC5, size: 0x8, addend: 0x0, symName: __ZNKSt3__110__function6__funcIZN5agora3rtc9extension29FUExtensionDelegateAPIBindingEPNS4_19FUExtensionDelegateEEUlRKNS_12basic_stringIcNS_11char_traitsIcEENS_9allocatorIcEEEEE22_NSA_ISF_EEFiSE_EE7__cloneEPNS0_6__baseISH_EE, symObjAddr: 0x13880, symBinAddr: 0x30CB8, symSize: 0x14 }
  - { offsetInCU: 0xCB947, offset: 0x169CDA, size: 0x8, addend: 0x0, symName: __ZNKSt3__110__function6__funcIZN5agora3rtc9extension29FUExtensionDelegateAPIBindingEPNS4_19FUExtensionDelegateEEUlRKNS_12basic_stringIcNS_11char_traitsIcEENS_9allocatorIcEEEEE22_NSA_ISF_EEFiSE_EE7__cloneEPNS0_6__baseISH_EE, symObjAddr: 0x13880, symBinAddr: 0x30CB8, symSize: 0x14 }
  - { offsetInCU: 0xCB95B, offset: 0x169CEE, size: 0x8, addend: 0x0, symName: __ZNKSt3__110__function6__funcIZN5agora3rtc9extension29FUExtensionDelegateAPIBindingEPNS4_19FUExtensionDelegateEEUlRKNS_12basic_stringIcNS_11char_traitsIcEENS_9allocatorIcEEEEE22_NSA_ISF_EEFiSE_EE7__cloneEPNS0_6__baseISH_EE, symObjAddr: 0x13880, symBinAddr: 0x30CB8, symSize: 0x14 }
  - { offsetInCU: 0xCB96F, offset: 0x169D02, size: 0x8, addend: 0x0, symName: __ZNKSt3__110__function6__funcIZN5agora3rtc9extension29FUExtensionDelegateAPIBindingEPNS4_19FUExtensionDelegateEEUlRKNS_12basic_stringIcNS_11char_traitsIcEENS_9allocatorIcEEEEE22_NSA_ISF_EEFiSE_EE7__cloneEPNS0_6__baseISH_EE, symObjAddr: 0x13880, symBinAddr: 0x30CB8, symSize: 0x14 }
  - { offsetInCU: 0xCB983, offset: 0x169D16, size: 0x8, addend: 0x0, symName: __ZNKSt3__110__function6__funcIZN5agora3rtc9extension29FUExtensionDelegateAPIBindingEPNS4_19FUExtensionDelegateEEUlRKNS_12basic_stringIcNS_11char_traitsIcEENS_9allocatorIcEEEEE22_NSA_ISF_EEFiSE_EE7__cloneEPNS0_6__baseISH_EE, symObjAddr: 0x13880, symBinAddr: 0x30CB8, symSize: 0x14 }
  - { offsetInCU: 0xCB99C, offset: 0x169D2F, size: 0x8, addend: 0x0, symName: __ZNSt3__110__function6__funcIZN5agora3rtc9extension29FUExtensionDelegateAPIBindingEPNS4_19FUExtensionDelegateEEUlRKNS_12basic_stringIcNS_11char_traitsIcEENS_9allocatorIcEEEEE22_NSA_ISF_EEFiSE_EE7destroyEv, symObjAddr: 0x13894, symBinAddr: 0x30CCC, symSize: 0x4 }
  - { offsetInCU: 0xCB9EF, offset: 0x169D82, size: 0x8, addend: 0x0, symName: __ZNSt3__110__function6__funcIZN5agora3rtc9extension29FUExtensionDelegateAPIBindingEPNS4_19FUExtensionDelegateEEUlRKNS_12basic_stringIcNS_11char_traitsIcEENS_9allocatorIcEEEEE22_NSA_ISF_EEFiSE_EE18destroy_deallocateEv, symObjAddr: 0x13898, symBinAddr: 0x30CD0, symSize: 0x4 }
  - { offsetInCU: 0xCBA24, offset: 0x169DB7, size: 0x8, addend: 0x0, symName: __ZNSt3__110__function6__funcIZN5agora3rtc9extension29FUExtensionDelegateAPIBindingEPNS4_19FUExtensionDelegateEEUlRKNS_12basic_stringIcNS_11char_traitsIcEENS_9allocatorIcEEEEE22_NSA_ISF_EEFiSE_EE18destroy_deallocateEv, symObjAddr: 0x13898, symBinAddr: 0x30CD0, symSize: 0x4 }
  - { offsetInCU: 0xCBA46, offset: 0x169DD9, size: 0x8, addend: 0x0, symName: __ZNSt3__110__function6__funcIZN5agora3rtc9extension29FUExtensionDelegateAPIBindingEPNS4_19FUExtensionDelegateEEUlRKNS_12basic_stringIcNS_11char_traitsIcEENS_9allocatorIcEEEEE22_NSA_ISF_EEFiSE_EE18destroy_deallocateEv, symObjAddr: 0x13898, symBinAddr: 0x30CD0, symSize: 0x4 }
  - { offsetInCU: 0xCBA71, offset: 0x169E04, size: 0x8, addend: 0x0, symName: __ZNSt3__110__function6__funcIZN5agora3rtc9extension29FUExtensionDelegateAPIBindingEPNS4_19FUExtensionDelegateEEUlRKNS_12basic_stringIcNS_11char_traitsIcEENS_9allocatorIcEEEEE22_NSA_ISF_EEFiSE_EE18destroy_deallocateEv, symObjAddr: 0x13898, symBinAddr: 0x30CD0, symSize: 0x4 }
  - { offsetInCU: 0xCBA97, offset: 0x169E2A, size: 0x8, addend: 0x0, symName: __ZNSt3__110__function6__funcIZN5agora3rtc9extension29FUExtensionDelegateAPIBindingEPNS4_19FUExtensionDelegateEEUlRKNS_12basic_stringIcNS_11char_traitsIcEENS_9allocatorIcEEEEE22_NSA_ISF_EEFiSE_EE18destroy_deallocateEv, symObjAddr: 0x13898, symBinAddr: 0x30CD0, symSize: 0x4 }
  - { offsetInCU: 0xCBB12, offset: 0x169EA5, size: 0x8, addend: 0x0, symName: __ZNSt3__110__function6__funcIZN5agora3rtc9extension29FUExtensionDelegateAPIBindingEPNS4_19FUExtensionDelegateEEUlRKNS_12basic_stringIcNS_11char_traitsIcEENS_9allocatorIcEEEEE22_NSA_ISF_EEFiSE_EEclESE_, symObjAddr: 0x1389C, symBinAddr: 0x30CD4, symSize: 0x8 }
  - { offsetInCU: 0xCBBCF, offset: 0x169F62, size: 0x8, addend: 0x0, symName: __ZZN5agora3rtc9extension29FUExtensionDelegateAPIBindingEPNS1_19FUExtensionDelegateEENKUlRKNSt3__112basic_stringIcNS4_11char_traitsIcEENS4_9allocatorIcEEEEE22_clESC_, symObjAddr: 0x138EC, symBinAddr: 0x30D24, symSize: 0x168 }
  - { offsetInCU: 0xCC019, offset: 0x16A3AC, size: 0x8, addend: 0x0, symName: __ZNKSt3__110__function6__funcIZN5agora3rtc9extension29FUExtensionDelegateAPIBindingEPNS4_19FUExtensionDelegateEEUlRKNS_12basic_stringIcNS_11char_traitsIcEENS_9allocatorIcEEEEE22_NSA_ISF_EEFiSE_EE6targetERKSt9type_info, symObjAddr: 0x138A4, symBinAddr: 0x30CDC, symSize: 0x3C }
  - { offsetInCU: 0xCC067, offset: 0x16A3FA, size: 0x8, addend: 0x0, symName: __ZNKSt3__110__function6__funcIZN5agora3rtc9extension29FUExtensionDelegateAPIBindingEPNS4_19FUExtensionDelegateEEUlRKNS_12basic_stringIcNS_11char_traitsIcEENS_9allocatorIcEEEEE22_NSA_ISF_EEFiSE_EE11target_typeEv, symObjAddr: 0x138E0, symBinAddr: 0x30D18, symSize: 0xC }
  - { offsetInCU: 0xCC090, offset: 0x16A423, size: 0x8, addend: 0x0, symName: __ZNSt3__110__function6__funcIZN5agora3rtc9extension29FUExtensionDelegateAPIBindingEPNS4_19FUExtensionDelegateEEUlRKNS_12basic_stringIcNS_11char_traitsIcEENS_9allocatorIcEEEEE23_NSA_ISF_EEFiSE_EED1Ev, symObjAddr: 0x13A54, symBinAddr: 0x30E8C, symSize: 0x4 }
  - { offsetInCU: 0xCC0BC, offset: 0x16A44F, size: 0x8, addend: 0x0, symName: __ZNSt3__110__function6__funcIZN5agora3rtc9extension29FUExtensionDelegateAPIBindingEPNS4_19FUExtensionDelegateEEUlRKNS_12basic_stringIcNS_11char_traitsIcEENS_9allocatorIcEEEEE23_NSA_ISF_EEFiSE_EED0Ev, symObjAddr: 0x13A58, symBinAddr: 0x30E90, symSize: 0x4 }
  - { offsetInCU: 0xCC2C0, offset: 0x16A653, size: 0x8, addend: 0x0, symName: __ZNKSt3__110__function6__funcIZN5agora3rtc9extension29FUExtensionDelegateAPIBindingEPNS4_19FUExtensionDelegateEEUlRKNS_12basic_stringIcNS_11char_traitsIcEENS_9allocatorIcEEEEE23_NSA_ISF_EEFiSE_EE7__cloneEv, symObjAddr: 0x13A5C, symBinAddr: 0x30E94, symSize: 0x34 }
  - { offsetInCU: 0xCC5B3, offset: 0x16A946, size: 0x8, addend: 0x0, symName: __ZNKSt3__110__function6__funcIZN5agora3rtc9extension29FUExtensionDelegateAPIBindingEPNS4_19FUExtensionDelegateEEUlRKNS_12basic_stringIcNS_11char_traitsIcEENS_9allocatorIcEEEEE23_NSA_ISF_EEFiSE_EE7__cloneEPNS0_6__baseISH_EE, symObjAddr: 0x13A90, symBinAddr: 0x30EC8, symSize: 0x14 }
  - { offsetInCU: 0xCC5EA, offset: 0x16A97D, size: 0x8, addend: 0x0, symName: __ZNKSt3__110__function6__funcIZN5agora3rtc9extension29FUExtensionDelegateAPIBindingEPNS4_19FUExtensionDelegateEEUlRKNS_12basic_stringIcNS_11char_traitsIcEENS_9allocatorIcEEEEE23_NSA_ISF_EEFiSE_EE7__cloneEPNS0_6__baseISH_EE, symObjAddr: 0x13A90, symBinAddr: 0x30EC8, symSize: 0x14 }
  - { offsetInCU: 0xCC618, offset: 0x16A9AB, size: 0x8, addend: 0x0, symName: __ZNKSt3__110__function6__funcIZN5agora3rtc9extension29FUExtensionDelegateAPIBindingEPNS4_19FUExtensionDelegateEEUlRKNS_12basic_stringIcNS_11char_traitsIcEENS_9allocatorIcEEEEE23_NSA_ISF_EEFiSE_EE7__cloneEPNS0_6__baseISH_EE, symObjAddr: 0x13A90, symBinAddr: 0x30EC8, symSize: 0x14 }
  - { offsetInCU: 0xCC646, offset: 0x16A9D9, size: 0x8, addend: 0x0, symName: __ZNKSt3__110__function6__funcIZN5agora3rtc9extension29FUExtensionDelegateAPIBindingEPNS4_19FUExtensionDelegateEEUlRKNS_12basic_stringIcNS_11char_traitsIcEENS_9allocatorIcEEEEE23_NSA_ISF_EEFiSE_EE7__cloneEPNS0_6__baseISH_EE, symObjAddr: 0x13A90, symBinAddr: 0x30EC8, symSize: 0x14 }
  - { offsetInCU: 0xCC65B, offset: 0x16A9EE, size: 0x8, addend: 0x0, symName: __ZNKSt3__110__function6__funcIZN5agora3rtc9extension29FUExtensionDelegateAPIBindingEPNS4_19FUExtensionDelegateEEUlRKNS_12basic_stringIcNS_11char_traitsIcEENS_9allocatorIcEEEEE23_NSA_ISF_EEFiSE_EE7__cloneEPNS0_6__baseISH_EE, symObjAddr: 0x13A90, symBinAddr: 0x30EC8, symSize: 0x14 }
  - { offsetInCU: 0xCC66F, offset: 0x16AA02, size: 0x8, addend: 0x0, symName: __ZNKSt3__110__function6__funcIZN5agora3rtc9extension29FUExtensionDelegateAPIBindingEPNS4_19FUExtensionDelegateEEUlRKNS_12basic_stringIcNS_11char_traitsIcEENS_9allocatorIcEEEEE23_NSA_ISF_EEFiSE_EE7__cloneEPNS0_6__baseISH_EE, symObjAddr: 0x13A90, symBinAddr: 0x30EC8, symSize: 0x14 }
  - { offsetInCU: 0xCC683, offset: 0x16AA16, size: 0x8, addend: 0x0, symName: __ZNKSt3__110__function6__funcIZN5agora3rtc9extension29FUExtensionDelegateAPIBindingEPNS4_19FUExtensionDelegateEEUlRKNS_12basic_stringIcNS_11char_traitsIcEENS_9allocatorIcEEEEE23_NSA_ISF_EEFiSE_EE7__cloneEPNS0_6__baseISH_EE, symObjAddr: 0x13A90, symBinAddr: 0x30EC8, symSize: 0x14 }
  - { offsetInCU: 0xCC697, offset: 0x16AA2A, size: 0x8, addend: 0x0, symName: __ZNKSt3__110__function6__funcIZN5agora3rtc9extension29FUExtensionDelegateAPIBindingEPNS4_19FUExtensionDelegateEEUlRKNS_12basic_stringIcNS_11char_traitsIcEENS_9allocatorIcEEEEE23_NSA_ISF_EEFiSE_EE7__cloneEPNS0_6__baseISH_EE, symObjAddr: 0x13A90, symBinAddr: 0x30EC8, symSize: 0x14 }
  - { offsetInCU: 0xCC6B0, offset: 0x16AA43, size: 0x8, addend: 0x0, symName: __ZNSt3__110__function6__funcIZN5agora3rtc9extension29FUExtensionDelegateAPIBindingEPNS4_19FUExtensionDelegateEEUlRKNS_12basic_stringIcNS_11char_traitsIcEENS_9allocatorIcEEEEE23_NSA_ISF_EEFiSE_EE7destroyEv, symObjAddr: 0x13AA4, symBinAddr: 0x30EDC, symSize: 0x4 }
  - { offsetInCU: 0xCC703, offset: 0x16AA96, size: 0x8, addend: 0x0, symName: __ZNSt3__110__function6__funcIZN5agora3rtc9extension29FUExtensionDelegateAPIBindingEPNS4_19FUExtensionDelegateEEUlRKNS_12basic_stringIcNS_11char_traitsIcEENS_9allocatorIcEEEEE23_NSA_ISF_EEFiSE_EE18destroy_deallocateEv, symObjAddr: 0x13AA8, symBinAddr: 0x30EE0, symSize: 0x4 }
  - { offsetInCU: 0xCC738, offset: 0x16AACB, size: 0x8, addend: 0x0, symName: __ZNSt3__110__function6__funcIZN5agora3rtc9extension29FUExtensionDelegateAPIBindingEPNS4_19FUExtensionDelegateEEUlRKNS_12basic_stringIcNS_11char_traitsIcEENS_9allocatorIcEEEEE23_NSA_ISF_EEFiSE_EE18destroy_deallocateEv, symObjAddr: 0x13AA8, symBinAddr: 0x30EE0, symSize: 0x4 }
  - { offsetInCU: 0xCC75A, offset: 0x16AAED, size: 0x8, addend: 0x0, symName: __ZNSt3__110__function6__funcIZN5agora3rtc9extension29FUExtensionDelegateAPIBindingEPNS4_19FUExtensionDelegateEEUlRKNS_12basic_stringIcNS_11char_traitsIcEENS_9allocatorIcEEEEE23_NSA_ISF_EEFiSE_EE18destroy_deallocateEv, symObjAddr: 0x13AA8, symBinAddr: 0x30EE0, symSize: 0x4 }
  - { offsetInCU: 0xCC785, offset: 0x16AB18, size: 0x8, addend: 0x0, symName: __ZNSt3__110__function6__funcIZN5agora3rtc9extension29FUExtensionDelegateAPIBindingEPNS4_19FUExtensionDelegateEEUlRKNS_12basic_stringIcNS_11char_traitsIcEENS_9allocatorIcEEEEE23_NSA_ISF_EEFiSE_EE18destroy_deallocateEv, symObjAddr: 0x13AA8, symBinAddr: 0x30EE0, symSize: 0x4 }
  - { offsetInCU: 0xCC7AB, offset: 0x16AB3E, size: 0x8, addend: 0x0, symName: __ZNSt3__110__function6__funcIZN5agora3rtc9extension29FUExtensionDelegateAPIBindingEPNS4_19FUExtensionDelegateEEUlRKNS_12basic_stringIcNS_11char_traitsIcEENS_9allocatorIcEEEEE23_NSA_ISF_EEFiSE_EE18destroy_deallocateEv, symObjAddr: 0x13AA8, symBinAddr: 0x30EE0, symSize: 0x4 }
  - { offsetInCU: 0xCC826, offset: 0x16ABB9, size: 0x8, addend: 0x0, symName: __ZNSt3__110__function6__funcIZN5agora3rtc9extension29FUExtensionDelegateAPIBindingEPNS4_19FUExtensionDelegateEEUlRKNS_12basic_stringIcNS_11char_traitsIcEENS_9allocatorIcEEEEE23_NSA_ISF_EEFiSE_EEclESE_, symObjAddr: 0x13AAC, symBinAddr: 0x30EE4, symSize: 0x8 }
  - { offsetInCU: 0xCC8E3, offset: 0x16AC76, size: 0x8, addend: 0x0, symName: __ZZN5agora3rtc9extension29FUExtensionDelegateAPIBindingEPNS1_19FUExtensionDelegateEENKUlRKNSt3__112basic_stringIcNS4_11char_traitsIcEENS4_9allocatorIcEEEEE23_clESC_, symObjAddr: 0x13AFC, symBinAddr: 0x30F34, symSize: 0x168 }
  - { offsetInCU: 0xCCD2D, offset: 0x16B0C0, size: 0x8, addend: 0x0, symName: __ZNKSt3__110__function6__funcIZN5agora3rtc9extension29FUExtensionDelegateAPIBindingEPNS4_19FUExtensionDelegateEEUlRKNS_12basic_stringIcNS_11char_traitsIcEENS_9allocatorIcEEEEE23_NSA_ISF_EEFiSE_EE6targetERKSt9type_info, symObjAddr: 0x13AB4, symBinAddr: 0x30EEC, symSize: 0x3C }
  - { offsetInCU: 0xCCD7B, offset: 0x16B10E, size: 0x8, addend: 0x0, symName: __ZNKSt3__110__function6__funcIZN5agora3rtc9extension29FUExtensionDelegateAPIBindingEPNS4_19FUExtensionDelegateEEUlRKNS_12basic_stringIcNS_11char_traitsIcEENS_9allocatorIcEEEEE23_NSA_ISF_EEFiSE_EE11target_typeEv, symObjAddr: 0x13AF0, symBinAddr: 0x30F28, symSize: 0xC }
  - { offsetInCU: 0xCCDA4, offset: 0x16B137, size: 0x8, addend: 0x0, symName: __ZNSt3__110__function6__funcIZN5agora3rtc9extension29FUExtensionDelegateAPIBindingEPNS4_19FUExtensionDelegateEEUlRKNS_12basic_stringIcNS_11char_traitsIcEENS_9allocatorIcEEEEE24_NSA_ISF_EEFiSE_EED1Ev, symObjAddr: 0x13C64, symBinAddr: 0x3109C, symSize: 0x4 }
  - { offsetInCU: 0xCCDD0, offset: 0x16B163, size: 0x8, addend: 0x0, symName: __ZNSt3__110__function6__funcIZN5agora3rtc9extension29FUExtensionDelegateAPIBindingEPNS4_19FUExtensionDelegateEEUlRKNS_12basic_stringIcNS_11char_traitsIcEENS_9allocatorIcEEEEE24_NSA_ISF_EEFiSE_EED0Ev, symObjAddr: 0x13C68, symBinAddr: 0x310A0, symSize: 0x4 }
  - { offsetInCU: 0xCCFD4, offset: 0x16B367, size: 0x8, addend: 0x0, symName: __ZNKSt3__110__function6__funcIZN5agora3rtc9extension29FUExtensionDelegateAPIBindingEPNS4_19FUExtensionDelegateEEUlRKNS_12basic_stringIcNS_11char_traitsIcEENS_9allocatorIcEEEEE24_NSA_ISF_EEFiSE_EE7__cloneEv, symObjAddr: 0x13C6C, symBinAddr: 0x310A4, symSize: 0x34 }
  - { offsetInCU: 0xCD2C7, offset: 0x16B65A, size: 0x8, addend: 0x0, symName: __ZNKSt3__110__function6__funcIZN5agora3rtc9extension29FUExtensionDelegateAPIBindingEPNS4_19FUExtensionDelegateEEUlRKNS_12basic_stringIcNS_11char_traitsIcEENS_9allocatorIcEEEEE24_NSA_ISF_EEFiSE_EE7__cloneEPNS0_6__baseISH_EE, symObjAddr: 0x13CA0, symBinAddr: 0x310D8, symSize: 0x14 }
  - { offsetInCU: 0xCD2FE, offset: 0x16B691, size: 0x8, addend: 0x0, symName: __ZNKSt3__110__function6__funcIZN5agora3rtc9extension29FUExtensionDelegateAPIBindingEPNS4_19FUExtensionDelegateEEUlRKNS_12basic_stringIcNS_11char_traitsIcEENS_9allocatorIcEEEEE24_NSA_ISF_EEFiSE_EE7__cloneEPNS0_6__baseISH_EE, symObjAddr: 0x13CA0, symBinAddr: 0x310D8, symSize: 0x14 }
  - { offsetInCU: 0xCD32C, offset: 0x16B6BF, size: 0x8, addend: 0x0, symName: __ZNKSt3__110__function6__funcIZN5agora3rtc9extension29FUExtensionDelegateAPIBindingEPNS4_19FUExtensionDelegateEEUlRKNS_12basic_stringIcNS_11char_traitsIcEENS_9allocatorIcEEEEE24_NSA_ISF_EEFiSE_EE7__cloneEPNS0_6__baseISH_EE, symObjAddr: 0x13CA0, symBinAddr: 0x310D8, symSize: 0x14 }
  - { offsetInCU: 0xCD35A, offset: 0x16B6ED, size: 0x8, addend: 0x0, symName: __ZNKSt3__110__function6__funcIZN5agora3rtc9extension29FUExtensionDelegateAPIBindingEPNS4_19FUExtensionDelegateEEUlRKNS_12basic_stringIcNS_11char_traitsIcEENS_9allocatorIcEEEEE24_NSA_ISF_EEFiSE_EE7__cloneEPNS0_6__baseISH_EE, symObjAddr: 0x13CA0, symBinAddr: 0x310D8, symSize: 0x14 }
  - { offsetInCU: 0xCD36F, offset: 0x16B702, size: 0x8, addend: 0x0, symName: __ZNKSt3__110__function6__funcIZN5agora3rtc9extension29FUExtensionDelegateAPIBindingEPNS4_19FUExtensionDelegateEEUlRKNS_12basic_stringIcNS_11char_traitsIcEENS_9allocatorIcEEEEE24_NSA_ISF_EEFiSE_EE7__cloneEPNS0_6__baseISH_EE, symObjAddr: 0x13CA0, symBinAddr: 0x310D8, symSize: 0x14 }
  - { offsetInCU: 0xCD383, offset: 0x16B716, size: 0x8, addend: 0x0, symName: __ZNKSt3__110__function6__funcIZN5agora3rtc9extension29FUExtensionDelegateAPIBindingEPNS4_19FUExtensionDelegateEEUlRKNS_12basic_stringIcNS_11char_traitsIcEENS_9allocatorIcEEEEE24_NSA_ISF_EEFiSE_EE7__cloneEPNS0_6__baseISH_EE, symObjAddr: 0x13CA0, symBinAddr: 0x310D8, symSize: 0x14 }
  - { offsetInCU: 0xCD397, offset: 0x16B72A, size: 0x8, addend: 0x0, symName: __ZNKSt3__110__function6__funcIZN5agora3rtc9extension29FUExtensionDelegateAPIBindingEPNS4_19FUExtensionDelegateEEUlRKNS_12basic_stringIcNS_11char_traitsIcEENS_9allocatorIcEEEEE24_NSA_ISF_EEFiSE_EE7__cloneEPNS0_6__baseISH_EE, symObjAddr: 0x13CA0, symBinAddr: 0x310D8, symSize: 0x14 }
  - { offsetInCU: 0xCD3AB, offset: 0x16B73E, size: 0x8, addend: 0x0, symName: __ZNKSt3__110__function6__funcIZN5agora3rtc9extension29FUExtensionDelegateAPIBindingEPNS4_19FUExtensionDelegateEEUlRKNS_12basic_stringIcNS_11char_traitsIcEENS_9allocatorIcEEEEE24_NSA_ISF_EEFiSE_EE7__cloneEPNS0_6__baseISH_EE, symObjAddr: 0x13CA0, symBinAddr: 0x310D8, symSize: 0x14 }
  - { offsetInCU: 0xCD3C4, offset: 0x16B757, size: 0x8, addend: 0x0, symName: __ZNSt3__110__function6__funcIZN5agora3rtc9extension29FUExtensionDelegateAPIBindingEPNS4_19FUExtensionDelegateEEUlRKNS_12basic_stringIcNS_11char_traitsIcEENS_9allocatorIcEEEEE24_NSA_ISF_EEFiSE_EE7destroyEv, symObjAddr: 0x13CB4, symBinAddr: 0x310EC, symSize: 0x4 }
  - { offsetInCU: 0xCD417, offset: 0x16B7AA, size: 0x8, addend: 0x0, symName: __ZNSt3__110__function6__funcIZN5agora3rtc9extension29FUExtensionDelegateAPIBindingEPNS4_19FUExtensionDelegateEEUlRKNS_12basic_stringIcNS_11char_traitsIcEENS_9allocatorIcEEEEE24_NSA_ISF_EEFiSE_EE18destroy_deallocateEv, symObjAddr: 0x13CB8, symBinAddr: 0x310F0, symSize: 0x4 }
  - { offsetInCU: 0xCD44C, offset: 0x16B7DF, size: 0x8, addend: 0x0, symName: __ZNSt3__110__function6__funcIZN5agora3rtc9extension29FUExtensionDelegateAPIBindingEPNS4_19FUExtensionDelegateEEUlRKNS_12basic_stringIcNS_11char_traitsIcEENS_9allocatorIcEEEEE24_NSA_ISF_EEFiSE_EE18destroy_deallocateEv, symObjAddr: 0x13CB8, symBinAddr: 0x310F0, symSize: 0x4 }
  - { offsetInCU: 0xCD46E, offset: 0x16B801, size: 0x8, addend: 0x0, symName: __ZNSt3__110__function6__funcIZN5agora3rtc9extension29FUExtensionDelegateAPIBindingEPNS4_19FUExtensionDelegateEEUlRKNS_12basic_stringIcNS_11char_traitsIcEENS_9allocatorIcEEEEE24_NSA_ISF_EEFiSE_EE18destroy_deallocateEv, symObjAddr: 0x13CB8, symBinAddr: 0x310F0, symSize: 0x4 }
  - { offsetInCU: 0xCD499, offset: 0x16B82C, size: 0x8, addend: 0x0, symName: __ZNSt3__110__function6__funcIZN5agora3rtc9extension29FUExtensionDelegateAPIBindingEPNS4_19FUExtensionDelegateEEUlRKNS_12basic_stringIcNS_11char_traitsIcEENS_9allocatorIcEEEEE24_NSA_ISF_EEFiSE_EE18destroy_deallocateEv, symObjAddr: 0x13CB8, symBinAddr: 0x310F0, symSize: 0x4 }
  - { offsetInCU: 0xCD4BF, offset: 0x16B852, size: 0x8, addend: 0x0, symName: __ZNSt3__110__function6__funcIZN5agora3rtc9extension29FUExtensionDelegateAPIBindingEPNS4_19FUExtensionDelegateEEUlRKNS_12basic_stringIcNS_11char_traitsIcEENS_9allocatorIcEEEEE24_NSA_ISF_EEFiSE_EE18destroy_deallocateEv, symObjAddr: 0x13CB8, symBinAddr: 0x310F0, symSize: 0x4 }
  - { offsetInCU: 0xCD53A, offset: 0x16B8CD, size: 0x8, addend: 0x0, symName: __ZNSt3__110__function6__funcIZN5agora3rtc9extension29FUExtensionDelegateAPIBindingEPNS4_19FUExtensionDelegateEEUlRKNS_12basic_stringIcNS_11char_traitsIcEENS_9allocatorIcEEEEE24_NSA_ISF_EEFiSE_EEclESE_, symObjAddr: 0x13CBC, symBinAddr: 0x310F4, symSize: 0x8 }
  - { offsetInCU: 0xCD5F7, offset: 0x16B98A, size: 0x8, addend: 0x0, symName: __ZZN5agora3rtc9extension29FUExtensionDelegateAPIBindingEPNS1_19FUExtensionDelegateEENKUlRKNSt3__112basic_stringIcNS4_11char_traitsIcEENS4_9allocatorIcEEEEE24_clESC_, symObjAddr: 0x13D0C, symBinAddr: 0x31144, symSize: 0x168 }
  - { offsetInCU: 0xCDA41, offset: 0x16BDD4, size: 0x8, addend: 0x0, symName: __ZNKSt3__110__function6__funcIZN5agora3rtc9extension29FUExtensionDelegateAPIBindingEPNS4_19FUExtensionDelegateEEUlRKNS_12basic_stringIcNS_11char_traitsIcEENS_9allocatorIcEEEEE24_NSA_ISF_EEFiSE_EE6targetERKSt9type_info, symObjAddr: 0x13CC4, symBinAddr: 0x310FC, symSize: 0x3C }
  - { offsetInCU: 0xCDA8F, offset: 0x16BE22, size: 0x8, addend: 0x0, symName: __ZNKSt3__110__function6__funcIZN5agora3rtc9extension29FUExtensionDelegateAPIBindingEPNS4_19FUExtensionDelegateEEUlRKNS_12basic_stringIcNS_11char_traitsIcEENS_9allocatorIcEEEEE24_NSA_ISF_EEFiSE_EE11target_typeEv, symObjAddr: 0x13D00, symBinAddr: 0x31138, symSize: 0xC }
  - { offsetInCU: 0xCDAB8, offset: 0x16BE4B, size: 0x8, addend: 0x0, symName: __ZNSt3__110__function6__funcIZN5agora3rtc9extension29FUExtensionDelegateAPIBindingEPNS4_19FUExtensionDelegateEEUlRKNS_12basic_stringIcNS_11char_traitsIcEENS_9allocatorIcEEEEE25_NSA_ISF_EEFiSE_EED1Ev, symObjAddr: 0x13E74, symBinAddr: 0x312AC, symSize: 0x4 }
  - { offsetInCU: 0xCDAE4, offset: 0x16BE77, size: 0x8, addend: 0x0, symName: __ZNSt3__110__function6__funcIZN5agora3rtc9extension29FUExtensionDelegateAPIBindingEPNS4_19FUExtensionDelegateEEUlRKNS_12basic_stringIcNS_11char_traitsIcEENS_9allocatorIcEEEEE25_NSA_ISF_EEFiSE_EED0Ev, symObjAddr: 0x13E78, symBinAddr: 0x312B0, symSize: 0x4 }
  - { offsetInCU: 0xCDCE8, offset: 0x16C07B, size: 0x8, addend: 0x0, symName: __ZNKSt3__110__function6__funcIZN5agora3rtc9extension29FUExtensionDelegateAPIBindingEPNS4_19FUExtensionDelegateEEUlRKNS_12basic_stringIcNS_11char_traitsIcEENS_9allocatorIcEEEEE25_NSA_ISF_EEFiSE_EE7__cloneEv, symObjAddr: 0x13E7C, symBinAddr: 0x312B4, symSize: 0x34 }
  - { offsetInCU: 0xCDFDB, offset: 0x16C36E, size: 0x8, addend: 0x0, symName: __ZNKSt3__110__function6__funcIZN5agora3rtc9extension29FUExtensionDelegateAPIBindingEPNS4_19FUExtensionDelegateEEUlRKNS_12basic_stringIcNS_11char_traitsIcEENS_9allocatorIcEEEEE25_NSA_ISF_EEFiSE_EE7__cloneEPNS0_6__baseISH_EE, symObjAddr: 0x13EB0, symBinAddr: 0x312E8, symSize: 0x14 }
  - { offsetInCU: 0xCE012, offset: 0x16C3A5, size: 0x8, addend: 0x0, symName: __ZNKSt3__110__function6__funcIZN5agora3rtc9extension29FUExtensionDelegateAPIBindingEPNS4_19FUExtensionDelegateEEUlRKNS_12basic_stringIcNS_11char_traitsIcEENS_9allocatorIcEEEEE25_NSA_ISF_EEFiSE_EE7__cloneEPNS0_6__baseISH_EE, symObjAddr: 0x13EB0, symBinAddr: 0x312E8, symSize: 0x14 }
  - { offsetInCU: 0xCE040, offset: 0x16C3D3, size: 0x8, addend: 0x0, symName: __ZNKSt3__110__function6__funcIZN5agora3rtc9extension29FUExtensionDelegateAPIBindingEPNS4_19FUExtensionDelegateEEUlRKNS_12basic_stringIcNS_11char_traitsIcEENS_9allocatorIcEEEEE25_NSA_ISF_EEFiSE_EE7__cloneEPNS0_6__baseISH_EE, symObjAddr: 0x13EB0, symBinAddr: 0x312E8, symSize: 0x14 }
  - { offsetInCU: 0xCE06E, offset: 0x16C401, size: 0x8, addend: 0x0, symName: __ZNKSt3__110__function6__funcIZN5agora3rtc9extension29FUExtensionDelegateAPIBindingEPNS4_19FUExtensionDelegateEEUlRKNS_12basic_stringIcNS_11char_traitsIcEENS_9allocatorIcEEEEE25_NSA_ISF_EEFiSE_EE7__cloneEPNS0_6__baseISH_EE, symObjAddr: 0x13EB0, symBinAddr: 0x312E8, symSize: 0x14 }
  - { offsetInCU: 0xCE083, offset: 0x16C416, size: 0x8, addend: 0x0, symName: __ZNKSt3__110__function6__funcIZN5agora3rtc9extension29FUExtensionDelegateAPIBindingEPNS4_19FUExtensionDelegateEEUlRKNS_12basic_stringIcNS_11char_traitsIcEENS_9allocatorIcEEEEE25_NSA_ISF_EEFiSE_EE7__cloneEPNS0_6__baseISH_EE, symObjAddr: 0x13EB0, symBinAddr: 0x312E8, symSize: 0x14 }
  - { offsetInCU: 0xCE097, offset: 0x16C42A, size: 0x8, addend: 0x0, symName: __ZNKSt3__110__function6__funcIZN5agora3rtc9extension29FUExtensionDelegateAPIBindingEPNS4_19FUExtensionDelegateEEUlRKNS_12basic_stringIcNS_11char_traitsIcEENS_9allocatorIcEEEEE25_NSA_ISF_EEFiSE_EE7__cloneEPNS0_6__baseISH_EE, symObjAddr: 0x13EB0, symBinAddr: 0x312E8, symSize: 0x14 }
  - { offsetInCU: 0xCE0AB, offset: 0x16C43E, size: 0x8, addend: 0x0, symName: __ZNKSt3__110__function6__funcIZN5agora3rtc9extension29FUExtensionDelegateAPIBindingEPNS4_19FUExtensionDelegateEEUlRKNS_12basic_stringIcNS_11char_traitsIcEENS_9allocatorIcEEEEE25_NSA_ISF_EEFiSE_EE7__cloneEPNS0_6__baseISH_EE, symObjAddr: 0x13EB0, symBinAddr: 0x312E8, symSize: 0x14 }
  - { offsetInCU: 0xCE0BF, offset: 0x16C452, size: 0x8, addend: 0x0, symName: __ZNKSt3__110__function6__funcIZN5agora3rtc9extension29FUExtensionDelegateAPIBindingEPNS4_19FUExtensionDelegateEEUlRKNS_12basic_stringIcNS_11char_traitsIcEENS_9allocatorIcEEEEE25_NSA_ISF_EEFiSE_EE7__cloneEPNS0_6__baseISH_EE, symObjAddr: 0x13EB0, symBinAddr: 0x312E8, symSize: 0x14 }
  - { offsetInCU: 0xCE0D8, offset: 0x16C46B, size: 0x8, addend: 0x0, symName: __ZNSt3__110__function6__funcIZN5agora3rtc9extension29FUExtensionDelegateAPIBindingEPNS4_19FUExtensionDelegateEEUlRKNS_12basic_stringIcNS_11char_traitsIcEENS_9allocatorIcEEEEE25_NSA_ISF_EEFiSE_EE7destroyEv, symObjAddr: 0x13EC4, symBinAddr: 0x312FC, symSize: 0x4 }
  - { offsetInCU: 0xCE12B, offset: 0x16C4BE, size: 0x8, addend: 0x0, symName: __ZNSt3__110__function6__funcIZN5agora3rtc9extension29FUExtensionDelegateAPIBindingEPNS4_19FUExtensionDelegateEEUlRKNS_12basic_stringIcNS_11char_traitsIcEENS_9allocatorIcEEEEE25_NSA_ISF_EEFiSE_EE18destroy_deallocateEv, symObjAddr: 0x13EC8, symBinAddr: 0x31300, symSize: 0x4 }
  - { offsetInCU: 0xCE160, offset: 0x16C4F3, size: 0x8, addend: 0x0, symName: __ZNSt3__110__function6__funcIZN5agora3rtc9extension29FUExtensionDelegateAPIBindingEPNS4_19FUExtensionDelegateEEUlRKNS_12basic_stringIcNS_11char_traitsIcEENS_9allocatorIcEEEEE25_NSA_ISF_EEFiSE_EE18destroy_deallocateEv, symObjAddr: 0x13EC8, symBinAddr: 0x31300, symSize: 0x4 }
  - { offsetInCU: 0xCE182, offset: 0x16C515, size: 0x8, addend: 0x0, symName: __ZNSt3__110__function6__funcIZN5agora3rtc9extension29FUExtensionDelegateAPIBindingEPNS4_19FUExtensionDelegateEEUlRKNS_12basic_stringIcNS_11char_traitsIcEENS_9allocatorIcEEEEE25_NSA_ISF_EEFiSE_EE18destroy_deallocateEv, symObjAddr: 0x13EC8, symBinAddr: 0x31300, symSize: 0x4 }
  - { offsetInCU: 0xCE1AD, offset: 0x16C540, size: 0x8, addend: 0x0, symName: __ZNSt3__110__function6__funcIZN5agora3rtc9extension29FUExtensionDelegateAPIBindingEPNS4_19FUExtensionDelegateEEUlRKNS_12basic_stringIcNS_11char_traitsIcEENS_9allocatorIcEEEEE25_NSA_ISF_EEFiSE_EE18destroy_deallocateEv, symObjAddr: 0x13EC8, symBinAddr: 0x31300, symSize: 0x4 }
  - { offsetInCU: 0xCE1D3, offset: 0x16C566, size: 0x8, addend: 0x0, symName: __ZNSt3__110__function6__funcIZN5agora3rtc9extension29FUExtensionDelegateAPIBindingEPNS4_19FUExtensionDelegateEEUlRKNS_12basic_stringIcNS_11char_traitsIcEENS_9allocatorIcEEEEE25_NSA_ISF_EEFiSE_EE18destroy_deallocateEv, symObjAddr: 0x13EC8, symBinAddr: 0x31300, symSize: 0x4 }
  - { offsetInCU: 0xCE24E, offset: 0x16C5E1, size: 0x8, addend: 0x0, symName: __ZNSt3__110__function6__funcIZN5agora3rtc9extension29FUExtensionDelegateAPIBindingEPNS4_19FUExtensionDelegateEEUlRKNS_12basic_stringIcNS_11char_traitsIcEENS_9allocatorIcEEEEE25_NSA_ISF_EEFiSE_EEclESE_, symObjAddr: 0x13ECC, symBinAddr: 0x31304, symSize: 0x8 }
  - { offsetInCU: 0xCE30B, offset: 0x16C69E, size: 0x8, addend: 0x0, symName: __ZZN5agora3rtc9extension29FUExtensionDelegateAPIBindingEPNS1_19FUExtensionDelegateEENKUlRKNSt3__112basic_stringIcNS4_11char_traitsIcEENS4_9allocatorIcEEEEE25_clESC_, symObjAddr: 0x13F1C, symBinAddr: 0x31354, symSize: 0x168 }
  - { offsetInCU: 0xCE755, offset: 0x16CAE8, size: 0x8, addend: 0x0, symName: __ZNKSt3__110__function6__funcIZN5agora3rtc9extension29FUExtensionDelegateAPIBindingEPNS4_19FUExtensionDelegateEEUlRKNS_12basic_stringIcNS_11char_traitsIcEENS_9allocatorIcEEEEE25_NSA_ISF_EEFiSE_EE6targetERKSt9type_info, symObjAddr: 0x13ED4, symBinAddr: 0x3130C, symSize: 0x3C }
  - { offsetInCU: 0xCE7A3, offset: 0x16CB36, size: 0x8, addend: 0x0, symName: __ZNKSt3__110__function6__funcIZN5agora3rtc9extension29FUExtensionDelegateAPIBindingEPNS4_19FUExtensionDelegateEEUlRKNS_12basic_stringIcNS_11char_traitsIcEENS_9allocatorIcEEEEE25_NSA_ISF_EEFiSE_EE11target_typeEv, symObjAddr: 0x13F10, symBinAddr: 0x31348, symSize: 0xC }
  - { offsetInCU: 0xCE7CC, offset: 0x16CB5F, size: 0x8, addend: 0x0, symName: __ZNSt3__110__function6__funcIZN5agora3rtc9extension29FUExtensionDelegateAPIBindingEPNS4_19FUExtensionDelegateEEUlRKNS_12basic_stringIcNS_11char_traitsIcEENS_9allocatorIcEEEEE26_NSA_ISF_EEFiSE_EED1Ev, symObjAddr: 0x14084, symBinAddr: 0x314BC, symSize: 0x4 }
  - { offsetInCU: 0xCE7F8, offset: 0x16CB8B, size: 0x8, addend: 0x0, symName: __ZNSt3__110__function6__funcIZN5agora3rtc9extension29FUExtensionDelegateAPIBindingEPNS4_19FUExtensionDelegateEEUlRKNS_12basic_stringIcNS_11char_traitsIcEENS_9allocatorIcEEEEE26_NSA_ISF_EEFiSE_EED0Ev, symObjAddr: 0x14088, symBinAddr: 0x314C0, symSize: 0x4 }
  - { offsetInCU: 0xCE9FC, offset: 0x16CD8F, size: 0x8, addend: 0x0, symName: __ZNKSt3__110__function6__funcIZN5agora3rtc9extension29FUExtensionDelegateAPIBindingEPNS4_19FUExtensionDelegateEEUlRKNS_12basic_stringIcNS_11char_traitsIcEENS_9allocatorIcEEEEE26_NSA_ISF_EEFiSE_EE7__cloneEv, symObjAddr: 0x1408C, symBinAddr: 0x314C4, symSize: 0x34 }
  - { offsetInCU: 0xCECEF, offset: 0x16D082, size: 0x8, addend: 0x0, symName: __ZNKSt3__110__function6__funcIZN5agora3rtc9extension29FUExtensionDelegateAPIBindingEPNS4_19FUExtensionDelegateEEUlRKNS_12basic_stringIcNS_11char_traitsIcEENS_9allocatorIcEEEEE26_NSA_ISF_EEFiSE_EE7__cloneEPNS0_6__baseISH_EE, symObjAddr: 0x140C0, symBinAddr: 0x314F8, symSize: 0x14 }
  - { offsetInCU: 0xCED26, offset: 0x16D0B9, size: 0x8, addend: 0x0, symName: __ZNKSt3__110__function6__funcIZN5agora3rtc9extension29FUExtensionDelegateAPIBindingEPNS4_19FUExtensionDelegateEEUlRKNS_12basic_stringIcNS_11char_traitsIcEENS_9allocatorIcEEEEE26_NSA_ISF_EEFiSE_EE7__cloneEPNS0_6__baseISH_EE, symObjAddr: 0x140C0, symBinAddr: 0x314F8, symSize: 0x14 }
  - { offsetInCU: 0xCED54, offset: 0x16D0E7, size: 0x8, addend: 0x0, symName: __ZNKSt3__110__function6__funcIZN5agora3rtc9extension29FUExtensionDelegateAPIBindingEPNS4_19FUExtensionDelegateEEUlRKNS_12basic_stringIcNS_11char_traitsIcEENS_9allocatorIcEEEEE26_NSA_ISF_EEFiSE_EE7__cloneEPNS0_6__baseISH_EE, symObjAddr: 0x140C0, symBinAddr: 0x314F8, symSize: 0x14 }
  - { offsetInCU: 0xCED82, offset: 0x16D115, size: 0x8, addend: 0x0, symName: __ZNKSt3__110__function6__funcIZN5agora3rtc9extension29FUExtensionDelegateAPIBindingEPNS4_19FUExtensionDelegateEEUlRKNS_12basic_stringIcNS_11char_traitsIcEENS_9allocatorIcEEEEE26_NSA_ISF_EEFiSE_EE7__cloneEPNS0_6__baseISH_EE, symObjAddr: 0x140C0, symBinAddr: 0x314F8, symSize: 0x14 }
  - { offsetInCU: 0xCED97, offset: 0x16D12A, size: 0x8, addend: 0x0, symName: __ZNKSt3__110__function6__funcIZN5agora3rtc9extension29FUExtensionDelegateAPIBindingEPNS4_19FUExtensionDelegateEEUlRKNS_12basic_stringIcNS_11char_traitsIcEENS_9allocatorIcEEEEE26_NSA_ISF_EEFiSE_EE7__cloneEPNS0_6__baseISH_EE, symObjAddr: 0x140C0, symBinAddr: 0x314F8, symSize: 0x14 }
  - { offsetInCU: 0xCEDAB, offset: 0x16D13E, size: 0x8, addend: 0x0, symName: __ZNKSt3__110__function6__funcIZN5agora3rtc9extension29FUExtensionDelegateAPIBindingEPNS4_19FUExtensionDelegateEEUlRKNS_12basic_stringIcNS_11char_traitsIcEENS_9allocatorIcEEEEE26_NSA_ISF_EEFiSE_EE7__cloneEPNS0_6__baseISH_EE, symObjAddr: 0x140C0, symBinAddr: 0x314F8, symSize: 0x14 }
  - { offsetInCU: 0xCEDBF, offset: 0x16D152, size: 0x8, addend: 0x0, symName: __ZNKSt3__110__function6__funcIZN5agora3rtc9extension29FUExtensionDelegateAPIBindingEPNS4_19FUExtensionDelegateEEUlRKNS_12basic_stringIcNS_11char_traitsIcEENS_9allocatorIcEEEEE26_NSA_ISF_EEFiSE_EE7__cloneEPNS0_6__baseISH_EE, symObjAddr: 0x140C0, symBinAddr: 0x314F8, symSize: 0x14 }
  - { offsetInCU: 0xCEDD3, offset: 0x16D166, size: 0x8, addend: 0x0, symName: __ZNKSt3__110__function6__funcIZN5agora3rtc9extension29FUExtensionDelegateAPIBindingEPNS4_19FUExtensionDelegateEEUlRKNS_12basic_stringIcNS_11char_traitsIcEENS_9allocatorIcEEEEE26_NSA_ISF_EEFiSE_EE7__cloneEPNS0_6__baseISH_EE, symObjAddr: 0x140C0, symBinAddr: 0x314F8, symSize: 0x14 }
  - { offsetInCU: 0xCEDEC, offset: 0x16D17F, size: 0x8, addend: 0x0, symName: __ZNSt3__110__function6__funcIZN5agora3rtc9extension29FUExtensionDelegateAPIBindingEPNS4_19FUExtensionDelegateEEUlRKNS_12basic_stringIcNS_11char_traitsIcEENS_9allocatorIcEEEEE26_NSA_ISF_EEFiSE_EE7destroyEv, symObjAddr: 0x140D4, symBinAddr: 0x3150C, symSize: 0x4 }
  - { offsetInCU: 0xCEE3F, offset: 0x16D1D2, size: 0x8, addend: 0x0, symName: __ZNSt3__110__function6__funcIZN5agora3rtc9extension29FUExtensionDelegateAPIBindingEPNS4_19FUExtensionDelegateEEUlRKNS_12basic_stringIcNS_11char_traitsIcEENS_9allocatorIcEEEEE26_NSA_ISF_EEFiSE_EE18destroy_deallocateEv, symObjAddr: 0x140D8, symBinAddr: 0x31510, symSize: 0x4 }
  - { offsetInCU: 0xCEE74, offset: 0x16D207, size: 0x8, addend: 0x0, symName: __ZNSt3__110__function6__funcIZN5agora3rtc9extension29FUExtensionDelegateAPIBindingEPNS4_19FUExtensionDelegateEEUlRKNS_12basic_stringIcNS_11char_traitsIcEENS_9allocatorIcEEEEE26_NSA_ISF_EEFiSE_EE18destroy_deallocateEv, symObjAddr: 0x140D8, symBinAddr: 0x31510, symSize: 0x4 }
  - { offsetInCU: 0xCEE96, offset: 0x16D229, size: 0x8, addend: 0x0, symName: __ZNSt3__110__function6__funcIZN5agora3rtc9extension29FUExtensionDelegateAPIBindingEPNS4_19FUExtensionDelegateEEUlRKNS_12basic_stringIcNS_11char_traitsIcEENS_9allocatorIcEEEEE26_NSA_ISF_EEFiSE_EE18destroy_deallocateEv, symObjAddr: 0x140D8, symBinAddr: 0x31510, symSize: 0x4 }
  - { offsetInCU: 0xCEEC1, offset: 0x16D254, size: 0x8, addend: 0x0, symName: __ZNSt3__110__function6__funcIZN5agora3rtc9extension29FUExtensionDelegateAPIBindingEPNS4_19FUExtensionDelegateEEUlRKNS_12basic_stringIcNS_11char_traitsIcEENS_9allocatorIcEEEEE26_NSA_ISF_EEFiSE_EE18destroy_deallocateEv, symObjAddr: 0x140D8, symBinAddr: 0x31510, symSize: 0x4 }
  - { offsetInCU: 0xCEEE7, offset: 0x16D27A, size: 0x8, addend: 0x0, symName: __ZNSt3__110__function6__funcIZN5agora3rtc9extension29FUExtensionDelegateAPIBindingEPNS4_19FUExtensionDelegateEEUlRKNS_12basic_stringIcNS_11char_traitsIcEENS_9allocatorIcEEEEE26_NSA_ISF_EEFiSE_EE18destroy_deallocateEv, symObjAddr: 0x140D8, symBinAddr: 0x31510, symSize: 0x4 }
  - { offsetInCU: 0xCEF62, offset: 0x16D2F5, size: 0x8, addend: 0x0, symName: __ZNSt3__110__function6__funcIZN5agora3rtc9extension29FUExtensionDelegateAPIBindingEPNS4_19FUExtensionDelegateEEUlRKNS_12basic_stringIcNS_11char_traitsIcEENS_9allocatorIcEEEEE26_NSA_ISF_EEFiSE_EEclESE_, symObjAddr: 0x140DC, symBinAddr: 0x31514, symSize: 0x8 }
  - { offsetInCU: 0xCF01F, offset: 0x16D3B2, size: 0x8, addend: 0x0, symName: __ZZN5agora3rtc9extension29FUExtensionDelegateAPIBindingEPNS1_19FUExtensionDelegateEENKUlRKNSt3__112basic_stringIcNS4_11char_traitsIcEENS4_9allocatorIcEEEEE26_clESC_, symObjAddr: 0x1412C, symBinAddr: 0x31564, symSize: 0x168 }
  - { offsetInCU: 0xCF469, offset: 0x16D7FC, size: 0x8, addend: 0x0, symName: __ZNKSt3__110__function6__funcIZN5agora3rtc9extension29FUExtensionDelegateAPIBindingEPNS4_19FUExtensionDelegateEEUlRKNS_12basic_stringIcNS_11char_traitsIcEENS_9allocatorIcEEEEE26_NSA_ISF_EEFiSE_EE6targetERKSt9type_info, symObjAddr: 0x140E4, symBinAddr: 0x3151C, symSize: 0x3C }
  - { offsetInCU: 0xCF4B7, offset: 0x16D84A, size: 0x8, addend: 0x0, symName: __ZNKSt3__110__function6__funcIZN5agora3rtc9extension29FUExtensionDelegateAPIBindingEPNS4_19FUExtensionDelegateEEUlRKNS_12basic_stringIcNS_11char_traitsIcEENS_9allocatorIcEEEEE26_NSA_ISF_EEFiSE_EE11target_typeEv, symObjAddr: 0x14120, symBinAddr: 0x31558, symSize: 0xC }
  - { offsetInCU: 0xCF4E0, offset: 0x16D873, size: 0x8, addend: 0x0, symName: __ZNSt3__110__function6__funcIZN5agora3rtc9extension29FUExtensionDelegateAPIBindingEPNS4_19FUExtensionDelegateEEUlRKNS_12basic_stringIcNS_11char_traitsIcEENS_9allocatorIcEEEEE27_NSA_ISF_EEFiSE_EED1Ev, symObjAddr: 0x14294, symBinAddr: 0x316CC, symSize: 0x4 }
  - { offsetInCU: 0xCF50C, offset: 0x16D89F, size: 0x8, addend: 0x0, symName: __ZNSt3__110__function6__funcIZN5agora3rtc9extension29FUExtensionDelegateAPIBindingEPNS4_19FUExtensionDelegateEEUlRKNS_12basic_stringIcNS_11char_traitsIcEENS_9allocatorIcEEEEE27_NSA_ISF_EEFiSE_EED0Ev, symObjAddr: 0x14298, symBinAddr: 0x316D0, symSize: 0x4 }
  - { offsetInCU: 0xCF710, offset: 0x16DAA3, size: 0x8, addend: 0x0, symName: __ZNKSt3__110__function6__funcIZN5agora3rtc9extension29FUExtensionDelegateAPIBindingEPNS4_19FUExtensionDelegateEEUlRKNS_12basic_stringIcNS_11char_traitsIcEENS_9allocatorIcEEEEE27_NSA_ISF_EEFiSE_EE7__cloneEv, symObjAddr: 0x1429C, symBinAddr: 0x316D4, symSize: 0x34 }
  - { offsetInCU: 0xCFA03, offset: 0x16DD96, size: 0x8, addend: 0x0, symName: __ZNKSt3__110__function6__funcIZN5agora3rtc9extension29FUExtensionDelegateAPIBindingEPNS4_19FUExtensionDelegateEEUlRKNS_12basic_stringIcNS_11char_traitsIcEENS_9allocatorIcEEEEE27_NSA_ISF_EEFiSE_EE7__cloneEPNS0_6__baseISH_EE, symObjAddr: 0x142D0, symBinAddr: 0x31708, symSize: 0x14 }
  - { offsetInCU: 0xCFA3A, offset: 0x16DDCD, size: 0x8, addend: 0x0, symName: __ZNKSt3__110__function6__funcIZN5agora3rtc9extension29FUExtensionDelegateAPIBindingEPNS4_19FUExtensionDelegateEEUlRKNS_12basic_stringIcNS_11char_traitsIcEENS_9allocatorIcEEEEE27_NSA_ISF_EEFiSE_EE7__cloneEPNS0_6__baseISH_EE, symObjAddr: 0x142D0, symBinAddr: 0x31708, symSize: 0x14 }
  - { offsetInCU: 0xCFA68, offset: 0x16DDFB, size: 0x8, addend: 0x0, symName: __ZNKSt3__110__function6__funcIZN5agora3rtc9extension29FUExtensionDelegateAPIBindingEPNS4_19FUExtensionDelegateEEUlRKNS_12basic_stringIcNS_11char_traitsIcEENS_9allocatorIcEEEEE27_NSA_ISF_EEFiSE_EE7__cloneEPNS0_6__baseISH_EE, symObjAddr: 0x142D0, symBinAddr: 0x31708, symSize: 0x14 }
